(dp0
I0
(lp1
I88
aI470
aI673
aI735
aI1223
aI1649
aI2665
aI4112
aI6336
aI6767
aI6794
aI6898
aI7231
aI8874
aI9057
aI9520
aI10024
aI10248
aI10350
aI10626
aI11841
aI12267
aI12508
aI12677
aI13150
aI13244
aI13538
aI15781
aI16132
aI16147
aI16250
aI17073
aI18037
aI18540
aI18608
aI19134
aI20377
aI20397
aI21452
aI21676
aI21714
aI21879
aI21936
aI22728
aI23436
aI23441
aI23485
aI24211
aI24373
aI24686
asI1
(lp2
I952
aI2523
aI2782
aI2897
aI3219
aI4193
aI4260
aI4417
aI5584
aI7537
aI7997
aI8646
aI8808
aI8831
aI10584
aI11507
aI12408
aI12424
aI13466
aI13677
aI14070
aI14236
aI15538
aI15770
aI15805
aI16189
aI16560
aI16661
aI17784
aI17904
aI17932
aI18545
aI18617
aI19054
aI19632
aI19689
aI19786
aI19960
aI20121
aI20315
aI20690
aI21574
aI21945
aI23598
aI24486
asI2
(lp3
I832
aI2031
aI2123
aI2812
aI3205
aI4062
aI4871
aI4978
aI5579
aI5655
aI5836
aI5966
aI6283
aI6928
aI7446
aI8279
aI8718
aI9457
aI9589
aI10806
aI12149
aI12506
aI13318
aI15561
aI16109
aI16324
aI16993
aI17241
aI17476
aI17628
aI18242
aI20051
aI20713
aI21688
aI23423
aI24548
asI3
(lp4
I433
aI878
aI1624
aI3347
aI4021
aI4392
aI5023
aI5246
aI6324
aI6695
aI7043
aI7254
aI9143
aI9175
aI9569
aI10437
aI10505
aI10652
aI11928
aI12418
aI12966
aI13458
aI15514
aI17082
aI17161
aI17757
aI18654
aI20684
aI20742
aI21045
aI21147
aI21265
aI21316
aI21589
aI21933
aI22189
aI22404
aI22610
aI22761
aI23827
asI4
(lp5
I71
aI597
aI1181
aI1911
aI1952
aI2816
aI2840
aI3023
aI3634
aI3855
aI4531
aI4579
aI4743
aI5048
aI5069
aI5322
aI5459
aI5616
aI5761
aI6027
aI6229
aI6704
aI7645
aI8099
aI8938
aI9060
aI9396
aI10724
aI12851
aI13163
aI13492
aI13679
aI14099
aI14141
aI14666
aI14703
aI14811
aI15047
aI15699
aI17119
aI17695
aI17746
aI18041
aI18271
aI18613
aI18775
aI19354
aI19384
aI20937
aI20939
aI21704
aI21769
aI23556
aI23729
aI24367
aI24895
asI5
(lp6
I34
aI535
aI2294
aI2509
aI2562
aI5135
aI5216
aI5270
aI5809
aI6048
aI7081
aI7475
aI7490
aI7847
aI8320
aI8482
aI8950
aI9951
aI10033
aI11050
aI12379
aI12397
aI12518
aI12711
aI13277
aI13453
aI14046
aI14274
aI14300
aI15896
aI15995
aI16357
aI17438
aI17569
aI19474
aI19934
aI20178
aI20519
aI21780
aI21964
aI23856
asI6
(lp7
I698
aI744
aI757
aI1246
aI1483
aI2237
aI2725
aI2795
aI3189
aI4294
aI4415
aI4497
aI5598
aI5641
aI5844
aI6245
aI6626
aI8049
aI8267
aI8396
aI8559
aI8982
aI9508
aI9718
aI10669
aI10960
aI14928
aI15898
aI15927
aI16094
aI16395
aI16611
aI16892
aI17693
aI19013
aI19243
aI19362
aI20681
aI21297
aI22237
aI22496
aI22541
asI7
(lp8
I480
aI1768
aI2053
aI2055
aI2388
aI3824
aI3932
aI4564
aI4940
aI5255
aI5710
aI6547
aI6571
aI7052
aI10312
aI11006
aI12626
aI12842
aI13332
aI13664
aI13809
aI14069
aI14283
aI15116
aI15235
aI16337
aI16665
aI18156
aI19100
aI19204
aI21816
aI22417
aI23103
aI23398
aI23456
aI24079
aI24123
aI24219
asI8
(lp9
I1056
aI1146
aI1467
aI1852
aI1978
aI2047
aI2223
aI2250
aI3953
aI5385
aI7335
aI9321
aI9342
aI9982
aI11322
aI12069
aI12172
aI13363
aI14138
aI14542
aI15216
aI15951
aI16780
aI18192
aI18303
aI18827
aI19533
aI19923
aI20058
aI20186
aI20826
aI21112
aI21619
aI24291
aI24308
asI9
(lp10
I304
aI1098
aI1123
aI1145
aI1430
aI1772
aI2455
aI3574
aI4580
aI5109
aI6679
aI7021
aI7380
aI9069
aI10460
aI11837
aI11862
aI12784
aI12863
aI12875
aI12904
aI13645
aI14128
aI14197
aI15443
aI16225
aI19132
aI19882
aI20850
aI21261
aI21373
aI21601
aI24629
aI24704
asI10
(lp11
I136
aI215
aI285
aI1985
aI2026
aI2508
aI3073
aI3228
aI3691
aI3733
aI3777
aI5352
aI5485
aI5767
aI6006
aI6185
aI6308
aI6437
aI6860
aI7009
aI7069
aI7381
aI7460
aI7876
aI8329
aI8593
aI9316
aI9349
aI10175
aI10504
aI10553
aI10621
aI10752
aI11246
aI12705
aI14617
aI15010
aI15420
aI15508
aI15996
aI16244
aI16297
aI16909
aI18012
aI18771
aI18818
aI19293
aI19523
aI20231
aI21192
aI21260
aI21381
aI21866
aI22643
aI23711
aI24064
asI11
(lp12
I264
aI827
aI967
aI1017
aI1842
aI2541
aI2702
aI3218
aI4444
aI5437
aI5708
aI6111
aI6711
aI7496
aI8602
aI8907
aI9016
aI9937
aI10598
aI11199
aI11421
aI11624
aI13884
aI14375
aI15387
aI15736
aI15947
aI17187
aI17329
aI17400
aI18286
aI18718
aI18994
aI19404
aI19929
aI20147
aI20422
aI21617
aI21890
aI22413
aI23077
aI24518
aI24555
asI12
(lp13
I1602
aI1625
aI2568
aI3779
aI3917
aI5008
aI5402
aI5939
aI6143
aI8375
aI8619
aI9289
aI9570
aI10336
aI10559
aI12060
aI12165
aI12686
aI12909
aI14550
aI14715
aI15446
aI16117
aI16393
aI16421
aI17201
aI17392
aI17414
aI17812
aI19114
aI20340
aI20685
aI22190
aI22403
aI22500
aI24101
aI24119
aI24671
asI13
(lp14
I100
aI504
aI532
aI1192
aI1552
aI2165
aI2960
aI4120
aI4665
aI4821
aI4850
aI4937
aI5653
aI5766
aI6597
aI8524
aI9051
aI9752
aI10773
aI11342
aI11864
aI12523
aI13587
aI14234
aI16504
aI16505
aI16605
aI16760
aI18297
aI18651
aI18855
aI18933
aI22995
aI23008
aI23375
aI23853
aI24286
aI24542
asI14
(lp15
I550
aI1841
aI2226
aI3128
aI3392
aI3580
aI3962
aI4521
aI4944
aI5036
aI6240
aI6997
aI10108
aI11350
aI11931
aI12588
aI13139
aI13805
aI14219
aI15159
aI15407
aI15444
aI16371
aI16579
aI16938
aI18248
aI18622
aI18870
aI19626
aI19848
aI19885
aI20167
aI21325
aI21684
aI21788
aI22178
aI22810
aI22821
aI24517
aI24582
aI24791
asI15
(lp16
I769
aI1730
aI2423
aI3749
aI4383
aI4785
aI5541
aI5789
aI6326
aI6497
aI6522
aI6524
aI6566
aI6612
aI6687
aI6814
aI7812
aI8053
aI8746
aI8930
aI9139
aI9578
aI9973
aI10606
aI11335
aI11450
aI12450
aI13070
aI13690
aI14625
aI16795
aI17091
aI17916
aI18122
aI18147
aI18816
aI19857
aI20047
aI20797
aI22188
aI22484
aI22548
aI23788
aI23859
aI24258
aI24921
asI16
(lp17
I1493
aI1551
aI2469
aI3011
aI3267
aI4224
aI5748
aI6047
aI6453
aI6981
aI7458
aI8631
aI9162
aI9764
aI9825
aI10932
aI11540
aI12330
aI12752
aI13361
aI14237
aI14836
aI15052
aI15107
aI15323
aI15731
aI15772
aI15906
aI16278
aI16840
aI16883
aI17994
aI19585
aI20071
aI20073
aI22929
asI17
(lp18
I191
aI3436
aI3533
aI4487
aI4943
aI5326
aI5773
aI5822
aI5941
aI6294
aI6431
aI6463
aI6763
aI9522
aI9757
aI9850
aI9960
aI10020
aI10796
aI11497
aI12706
aI13629
aI13887
aI13998
aI14305
aI16876
aI16987
aI18336
aI20693
aI21269
aI21995
aI23058
aI23140
asI18
(lp19
I188
aI472
aI1316
aI4652
aI4812
aI4842
aI5312
aI5868
aI6120
aI6231
aI6473
aI6977
aI8059
aI8672
aI9182
aI9886
aI9958
aI10816
aI11232
aI11781
aI14114
aI16318
aI16830
aI17140
aI17154
aI17412
aI19079
aI20674
aI20675
aI21185
aI21655
aI21693
aI21970
aI23316
aI23979
aI24392
aI24737
aI24751
asI19
(lp20
I712
aI1356
aI1976
aI3598
aI4139
aI4787
aI4813
aI4999
aI5502
aI5640
aI6054
aI6558
aI8012
aI8779
aI8820
aI9579
aI10112
aI11132
aI11541
aI12731
aI13100
aI13520
aI14158
aI15117
aI15843
aI17236
aI17466
aI18209
aI18300
aI19472
aI20185
aI20354
aI20768
aI21013
aI22083
aI22898
aI23026
aI23145
aI24270
aI24278
aI24358
aI24390
aI24618
aI24748
aI24960
asI20
(lp21
I1114
aI1420
aI1742
aI1853
aI3265
aI4469
aI5183
aI8799
aI9988
aI10022
aI10448
aI11637
aI11962
aI13228
aI13315
aI13588
aI13978
aI14045
aI14546
aI16433
aI16766
aI16845
aI17606
aI17672
aI18909
aI20361
aI20855
aI20934
aI21898
aI23002
aI23688
aI23732
aI24156
aI24158
asI21
(lp22
I2814
aI2870
aI2992
aI3075
aI3830
aI5097
aI9008
aI9784
aI12209
aI12334
aI13864
aI14656
aI15698
aI16035
aI17389
aI17460
aI17558
aI17970
aI18351
aI19825
aI19979
aI20960
aI21585
aI22601
aI23049
aI23522
aI23947
aI24220
asI22
(lp23
I382
aI622
aI762
aI1302
aI1453
aI1538
aI1675
aI3928
aI3989
aI4072
aI5707
aI6666
aI6845
aI6994
aI7387
aI7445
aI7975
aI9918
aI10522
aI10997
aI11022
aI11103
aI11729
aI11934
aI11971
aI12065
aI12413
aI12531
aI12748
aI12910
aI13088
aI13176
aI16742
aI16913
aI17267
aI17411
aI17519
aI17549
aI18451
aI18803
aI19865
aI20954
aI21157
aI21307
aI21499
aI21733
aI23031
aI23112
aI23204
aI23779
aI24067
asI23
(lp24
I1003
aI1294
aI1457
aI1522
aI1764
aI2044
aI3150
aI3297
aI5037
aI5331
aI5509
aI7502
aI7746
aI8082
aI8376
aI8891
aI9550
aI9688
aI9927
aI10147
aI11570
aI11714
aI11909
aI12053
aI12115
aI12816
aI13103
aI13275
aI14235
aI14801
aI15082
aI15563
aI16216
aI17052
aI17717
aI20314
aI20860
aI21448
aI21864
aI22852
aI23061
aI23645
asI24
(lp25
I251
aI1545
aI1736
aI3049
aI3645
aI3828
aI4006
aI4609
aI4750
aI5696
aI6406
aI6617
aI7814
aI7949
aI8273
aI9269
aI9465
aI11323
aI11373
aI12783
aI13721
aI14037
aI14426
aI15539
aI16107
aI16757
aI17506
aI17918
aI19166
aI21263
aI21465
aI21923
aI23347
aI24868
asI25
(lp26
I133
aI2405
aI3863
aI4378
aI4747
aI6500
aI7854
aI8821
aI9775
aI11669
aI12857
aI14639
aI14895
aI14901
aI14991
aI15765
aI18636
aI19014
aI19608
aI20501
aI20766
aI21099
aI22604
aI23196
asI26
(lp27
I629
aI927
aI1941
aI2085
aI2184
aI2681
aI2831
aI4067
aI4251
aI4278
aI5639
aI6069
aI6347
aI6349
aI7837
aI7954
aI9190
aI9998
aI10277
aI10561
aI10671
aI10690
aI12292
aI12495
aI13092
aI14175
aI14855
aI15295
aI16001
aI16372
aI16509
aI16630
aI17528
aI17634
aI18004
aI18047
aI19031
aI19175
aI19457
aI19987
aI20737
aI20904
aI21623
aI21810
aI22581
aI22737
aI23150
aI23547
asI27
(lp28
I781
aI2308
aI4187
aI4280
aI5207
aI6542
aI7996
aI8135
aI9038
aI9156
aI9867
aI9980
aI10380
aI10616
aI12084
aI13950
aI14432
aI16170
aI18917
aI19603
aI22903
aI24226
asI28
(lp29
I741
aI761
aI1182
aI1235
aI1287
aI1821
aI2778
aI3881
aI5031
aI5643
aI5721
aI5811
aI6436
aI6688
aI8219
aI8678
aI10366
aI12083
aI13044
aI13754
aI13891
aI13968
aI14185
aI14293
aI14626
aI15798
aI15851
aI15997
aI16572
aI17067
aI17819
aI17903
aI18659
aI18846
aI19153
aI19163
aI19414
aI19701
aI20172
aI20429
aI21138
aI21184
aI21498
aI22017
aI22781
aI22811
aI23165
asI29
(lp30
I111
aI377
aI999
aI1233
aI1796
aI2352
aI2371
aI3116
aI3398
aI3843
aI4190
aI4894
aI5415
aI5518
aI5741
aI6018
aI6721
aI8017
aI8180
aI9402
aI9996
aI10733
aI10750
aI11057
aI11059
aI11111
aI12374
aI14946
aI15291
aI15912
aI17038
aI17164
aI17379
aI17503
aI17741
aI17849
aI18252
aI19783
aI20481
aI22958
aI22988
aI23111
aI23383
aI24118
asI30
(lp31
I372
aI602
aI658
aI1344
aI1449
aI2255
aI2489
aI2745
aI3134
aI3570
aI3658
aI3900
aI4179
aI4919
aI5029
aI5035
aI5931
aI5958
aI6303
aI6513
aI6678
aI7557
aI8048
aI8867
aI8899
aI9449
aI10911
aI11110
aI11130
aI11166
aI11707
aI11956
aI11987
aI13545
aI13707
aI14393
aI14841
aI15028
aI15181
aI15702
aI16055
aI16121
aI16197
aI16339
aI16782
aI16902
aI17624
aI18597
aI18681
aI19104
aI19312
aI20661
aI20715
aI21236
aI21876
aI22094
aI22515
aI22864
aI23121
aI23320
aI23355
asI31
(lp32
I298
aI1263
aI1544
aI2249
aI2920
aI3909
aI4371
aI4779
aI5838
aI6562
aI6944
aI7141
aI7223
aI7756
aI9070
aI9118
aI9300
aI10118
aI10863
aI10956
aI11868
aI12002
aI12582
aI13003
aI13201
aI13669
aI14648
aI16309
aI16335
aI16676
aI17004
aI17851
aI18257
aI19210
aI19536
aI19997
aI20250
aI20444
aI20574
aI21101
aI21439
aI21775
aI22508
aI22701
aI23321
aI23364
aI23389
aI23440
aI23896
aI24926
asI32
(lp33
I908
aI2909
aI3647
aI3955
aI6115
aI6775
aI7931
aI8750
aI8766
aI9355
aI9647
aI10767
aI10919
aI11314
aI11742
aI11880
aI11932
aI12029
aI14068
aI14318
aI15152
aI15244
aI15849
aI16626
aI16649
aI17323
aI18472
aI19091
aI19306
aI19579
aI20205
aI20865
aI22626
aI23515
aI24707
asI33
(lp34
I1961
aI2091
aI4019
aI4990
aI5275
aI6625
aI6841
aI6996
aI8096
aI8322
aI8614
aI8845
aI9458
aI9475
aI10495
aI11214
aI11440
aI12496
aI12714
aI13316
aI13537
aI13833
aI13954
aI14324
aI14377
aI15432
aI16713
aI16933
aI17886
aI18031
aI19466
aI20089
aI20333
aI20639
aI21124
aI22556
aI23709
aI24178
aI24711
aI24946
aI24966
asI34
(lp35
I598
aI966
aI1765
aI2449
aI3674
aI4274
aI5606
aI6306
aI6923
aI7265
aI7363
aI8128
aI8719
aI8855
aI8954
aI9167
aI11978
aI12099
aI12113
aI12475
aI13264
aI13906
aI14322
aI14640
aI15841
aI16940
aI18054
aI19087
aI20154
aI20318
aI20370
aI20547
aI20845
aI24107
aI24169
asI35
(lp36
I126
aI275
aI499
aI546
aI1127
aI1670
aI2892
aI3232
aI4176
aI4591
aI4735
aI4776
aI4801
aI5143
aI5425
aI5540
aI6855
aI7402
aI7419
aI7782
aI8545
aI9646
aI11136
aI13797
aI14470
aI15638
aI15664
aI16397
aI16645
aI17310
aI17330
aI17976
aI18520
aI18682
aI18702
aI18825
aI19275
aI19919
aI20358
aI21858
aI22110
aI22179
aI22232
aI22683
aI22940
aI23069
aI23507
asI36
(lp37
I46
aI150
aI835
aI1542
aI4048
aI4445
aI4654
aI5194
aI6561
aI7016
aI7427
aI7464
aI8143
aI8419
aI8625
aI8665
aI10111
aI10120
aI10393
aI10471
aI11722
aI14336
aI16443
aI17043
aI18148
aI19950
aI22457
asI37
(lp38
I1095
aI1918
aI3067
aI3329
aI4310
aI6200
aI6816
aI7619
aI7763
aI7916
aI8045
aI9155
aI10329
aI11942
aI12040
aI12682
aI14815
aI16149
aI16361
aI16853
aI17427
aI19371
aI19849
aI20487
aI20553
aI21462
aI22754
aI23676
aI24305
aI24642
aI24959
asI38
(lp39
I5
aI39
aI299
aI397
aI800
aI3174
aI3418
aI5797
aI6407
aI6422
aI6529
aI6966
aI7520
aI7572
aI8553
aI8728
aI9965
aI10126
aI10965
aI11090
aI13257
aI13553
aI15433
aI16272
aI16719
aI18159
aI19271
aI19959
aI20082
aI20912
aI21511
aI22211
aI22450
aI23292
aI24479
aI24823
asI39
(lp40
I3127
aI4356
aI4393
aI4452
aI4625
aI5133
aI5160
aI7343
aI7499
aI7947
aI8014
aI8155
aI9382
aI10375
aI10464
aI11881
aI12068
aI12277
aI12390
aI12571
aI13530
aI14217
aI14492
aI14502
aI14971
aI15522
aI15919
aI16131
aI17410
aI17418
aI17754
aI17987
aI18162
aI18537
aI19549
aI22819
aI23753
asI40
(lp41
I1414
aI1928
aI3102
aI3296
aI3542
aI4061
aI4084
aI4669
aI5067
aI6593
aI7882
aI7904
aI11398
aI11410
aI11485
aI11897
aI12575
aI12852
aI13040
aI13281
aI16613
aI16823
aI18399
aI21202
aI21396
aI22836
aI24770
asI41
(lp42
I605
aI1884
aI4681
aI5073
aI5664
aI5668
aI5947
aI6636
aI7359
aI9969
aI11574
aI12085
aI13768
aI16097
aI16127
aI16237
aI16280
aI17550
aI18237
aI18821
aI19803
aI20086
aI20198
aI21217
aI21685
aI22136
aI22382
aI22654
aI23787
aI23813
aI24309
aI24316
asI42
(lp43
I1034
aI1108
aI1319
aI1491
aI2361
aI2636
aI2783
aI3089
aI3272
aI7120
aI7168
aI7886
aI8447
aI8980
aI9463
aI9484
aI9942
aI10003
aI10082
aI10642
aI11516
aI12385
aI13647
aI15641
aI15978
aI17344
aI17706
aI18634
aI21751
aI22402
aI22719
aI23630
aI24213
aI24571
asI43
(lp44
I515
aI793
aI1203
aI1245
aI2414
aI2617
aI2903
aI3535
aI3773
aI3959
aI3999
aI4039
aI5543
aI6222
aI6378
aI6630
aI7489
aI8000
aI8224
aI8842
aI9567
aI11331
aI12462
aI13426
aI14589
aI15748
aI17185
aI17189
aI18154
aI18477
aI19657
aI20164
aI20781
aI20974
aI23266
aI23980
aI24591
aI24994
asI44
(lp45
I643
aI874
aI1048
aI1228
aI1901
aI1993
aI2246
aI2330
aI3032
aI3417
aI3664
aI4340
aI4749
aI5346
aI6674
aI6786
aI6936
aI6945
aI7455
aI7807
aI7869
aI8691
aI9133
aI9783
aI10615
aI10780
aI11262
aI11684
aI12244
aI12641
aI12643
aI13285
aI13411
aI13572
aI13810
aI14642
aI14813
aI14889
aI15264
aI15594
aI15828
aI15901
aI16352
aI20328
aI20864
aI20935
aI21527
aI21539
aI21569
aI21745
aI22148
aI22258
aI22326
aI22694
aI24026
asI45
(lp46
I983
aI1609
aI1914
aI2097
aI2468
aI3428
aI3734
aI5213
aI5303
aI6019
aI6755
aI8085
aI8327
aI10092
aI10205
aI10257
aI10848
aI10978
aI13474
aI14079
aI14196
aI14486
aI14567
aI14869
aI15360
aI15415
aI15596
aI15661
aI16548
aI17361
aI17758
aI17868
aI17933
aI17934
aI18151
aI18342
aI19191
aI20163
aI20930
aI21450
aI23036
aI23044
aI23360
aI23380
aI23741
aI23875
aI23927
asI46
(lp47
I1360
aI1923
aI2346
aI2963
aI3469
aI5481
aI6139
aI6618
aI7030
aI7695
aI7842
aI7938
aI9979
aI10589
aI12197
aI13124
aI13438
aI13569
aI15346
aI16566
aI16954
aI17513
aI18043
aI18711
aI19081
aI20712
aI21120
aI21186
aI21512
aI21799
asI47
(lp48
I611
aI1548
aI1981
aI2383
aI2628
aI3394
aI4337
aI4399
aI6523
aI7088
aI7166
aI7476
aI7643
aI7960
aI8116
aI9145
aI9801
aI10305
aI10442
aI12979
aI12990
aI13138
aI13703
aI13808
aI14077
aI14584
aI15022
aI15373
aI16796
aI17814
aI18762
aI18824
aI20514
aI22133
aI22758
aI22932
aI24441
asI48
(lp49
I165
aI782
aI1399
aI1987
aI2353
aI2760
aI3273
aI4206
aI4275
aI4407
aI4992
aI5330
aI5589
aI5913
aI6189
aI6582
aI7494
aI8004
aI9371
aI9664
aI10420
aI10588
aI10836
aI12094
aI12248
aI12528
aI12646
aI17192
aI18001
aI18114
aI20187
aI20459
aI22439
aI23754
aI24235
asI49
(lp50
I929
aI2234
aI2300
aI2364
aI2832
aI3377
aI3474
aI3503
aI3811
aI4002
aI4780
aI4895
aI5055
aI5074
aI5460
aI5626
aI6127
aI7157
aI7473
aI8153
aI9548
aI9772
aI10945
aI11123
aI11965
aI12009
aI12120
aI13056
aI13367
aI13941
aI13984
aI15016
aI15096
aI15842
aI16078
aI16956
aI17257
aI17497
aI17642
aI18363
aI18409
aI18887
aI18930
aI18931
aI19724
aI19754
aI22431
aI22640
aI23136
aI23647
aI24115
aI24820
asI50
(lp51
I403
aI1138
aI1566
aI1707
aI1748
aI2125
aI3979
aI4239
aI4527
aI5325
aI6442
aI7279
aI7984
aI8404
aI8743
aI9941
aI10656
aI10950
aI11484
aI11616
aI11683
aI12557
aI12681
aI13296
aI15281
aI16031
aI16492
aI16767
aI17264
aI17617
aI17788
aI19309
aI20111
aI20367
aI20782
aI21012
aI21056
aI21490
aI21846
aI21904
aI23738
aI24036
asI51
(lp52
I1067
aI2222
aI2530
aI3053
aI3670
aI3807
aI3961
aI4475
aI4659
aI4790
aI4804
aI5565
aI7112
aI7290
aI8227
aI8953
aI8964
aI9445
aI9737
aI9791
aI9808
aI9964
aI10449
aI10746
aI11165
aI11914
aI12454
aI12936
aI13174
aI14490
aI14672
aI14968
aI15017
aI15324
aI16558
aI17024
aI17048
aI17455
aI17561
aI18027
aI18500
aI20102
aI20823
aI20925
aI21148
aI21273
aI21867
aI22197
aI22605
aI22884
aI23132
aI23967
asI52
(lp53
I2764
aI2898
aI5241
aI6236
aI7606
aI9680
aI10202
aI10969
aI13425
aI14472
aI14644
aI14657
aI14772
aI15090
aI15348
aI16670
aI17286
aI18243
aI19133
aI19729
aI20398
aI20482
aI20893
aI21278
aI22372
aI22549
aI23298
aI23710
aI24330
aI24371
aI24681
aI24961
asI53
(lp54
I336
aI1273
aI1555
aI1963
aI3812
aI4814
aI5264
aI5755
aI6052
aI6094
aI6298
aI7247
aI8507
aI8673
aI10010
aI10539
aI10653
aI10979
aI11329
aI11336
aI11904
aI12577
aI13467
aI13763
aI14342
aI14782
aI15173
aI15209
aI15392
aI15603
aI16677
aI17927
aI18188
aI19102
aI19157
aI19192
aI20135
aI20177
aI20672
aI21170
aI21599
aI22080
aI22433
aI22501
aI22984
aI23757
aI24085
aI24202
aI24268
aI24616
aI24778
asI54
(lp55
I1633
aI2273
aI2790
aI3305
aI3551
aI4042
aI5405
aI5486
aI6606
aI6827
aI7416
aI7926
aI8092
aI8292
aI8364
aI8432
aI9828
aI11614
aI11869
aI12336
aI12664
aI13781
aI13837
aI14634
aI14753
aI14784
aI14880
aI15074
aI16155
aI16277
aI16290
aI17422
aI18256
aI20728
aI21809
aI23349
aI23381
aI23725
aI24473
asI55
(lp56
I171
aI581
aI1292
aI1485
aI2651
aI3321
aI4016
aI4362
aI4460
aI4892
aI5841
aI6188
aI7734
aI7929
aI8499
aI8580
aI9743
aI9766
aI10631
aI11834
aI12270
aI12550
aI12742
aI15609
aI16142
aI16439
aI16568
aI16624
aI16972
aI17877
aI19598
aI19751
aI20242
aI20353
aI21764
aI21935
aI22003
aI22101
aI22306
aI22982
aI24654
aI24713
asI56
(lp57
I2151
aI2183
aI5202
aI5877
aI6028
aI6037
aI6226
aI6394
aI6764
aI7277
aI8434
aI8442
aI10282
aI10710
aI12189
aI12804
aI12929
aI13280
aI14731
aI15626
aI16430
aI17134
aI17253
aI17346
aI17945
aI19468
aI19534
aI21149
aI21267
aI21442
aI21944
aI22121
aI23280
aI23317
aI23956
aI24170
asI57
(lp58
I652
aI3260
aI4454
aI4551
aI4615
aI4818
aI5990
aI6976
aI6991
aI7000
aI7239
aI8970
aI9220
aI9625
aI10239
aI10963
aI12226
aI15001
aI15025
aI15506
aI16674
aI16824
aI18142
aI18526
aI19315
aI20323
aI20585
aI20873
aI22021
aI22660
aI22686
aI24769
aI24828
aI24993
asI58
(lp59
I233
aI736
aI1943
aI2148
aI2762
aI2820
aI3196
aI3299
aI3845
aI5157
aI5627
aI6145
aI6151
aI6801
aI7421
aI7526
aI7684
aI8888
aI9409
aI9469
aI11089
aI13447
aI14425
aI15305
aI15541
aI15888
aI16364
aI17450
aI17782
aI18087
aI20227
aI20570
aI20866
aI21718
aI21761
aI21825
asI59
(lp60
I300
aI1657
aI2626
aI2792
aI3038
aI3525
aI3586
aI4753
aI7509
aI8028
aI8675
aI10065
aI11419
aI13688
aI13897
aI13931
aI14147
aI14580
aI15182
aI16300
aI16659
aI16696
aI16873
aI17007
aI17126
aI17678
aI18849
aI18919
aI20261
aI20273
aI20975
aI21686
aI22803
aI23849
aI24262
asI60
(lp61
I202
aI1389
aI3211
aI3230
aI3626
aI3945
aI4259
aI5550
aI6065
aI7444
aI7517
aI8121
aI9845
aI9906
aI11004
aI12077
aI13243
aI13961
aI15338
aI15819
aI17254
aI17483
aI17702
aI18888
aI19375
aI20976
aI21739
aI22073
aI22156
aI22173
aI22337
aI22418
aI23224
aI23948
aI24453
asI61
(lp62
I765
aI806
aI1204
aI1509
aI3241
aI3539
aI3874
aI4287
aI4482
aI4752
aI4891
aI5350
aI5698
aI5832
aI6219
aI6462
aI9013
aI10317
aI12401
aI14590
aI14643
aI15232
aI16247
aI16469
aI16531
aI16908
aI16955
aI17675
aI17769
aI17845
aI18568
aI18701
aI19723
aI19728
aI19904
aI20150
aI20368
aI21892
aI23983
aI24773
asI62
(lp63
I67
aI223
aI395
aI596
aI1846
aI2248
aI3177
aI3550
aI3869
aI4136
aI4912
aI4947
aI5662
aI6371
aI8035
aI8838
aI9228
aI10837
aI14063
aI14927
aI15640
aI20148
aI20968
aI20996
aI21324
aI22453
aI23621
aI23975
aI24448
asI63
(lp64
I816
aI871
aI1128
aI1144
aI1254
aI1272
aI1683
aI1866
aI2324
aI5795
aI5835
aI6952
aI9968
aI10228
aI11622
aI12442
aI13582
aI13772
aI14415
aI14907
aI15667
aI16543
aI17803
aI18071
aI18489
aI18533
aI20037
aI20077
aI20730
aI21279
aI21743
aI22437
aI22607
aI23312
aI23843
aI24414
aI24695
asI64
(lp65
I190
aI555
aI1086
aI1352
aI2286
aI4908
aI6004
aI7849
aI9399
aI11364
aI11625
aI14452
aI14740
aI16171
aI16174
aI16642
aI16743
aI17142
aI21239
aI21723
aI22217
aI23714
aI24419
asI65
(lp66
I518
aI1759
aI1925
aI3168
aI4218
aI4899
aI5650
aI6638
aI7186
aI7187
aI7513
aI7725
aI8769
aI9521
aI11025
aI11505
aI12951
aI13644
aI14338
aI15606
aI15936
aI17124
aI17198
aI17771
aI18202
aI18391
aI18521
aI19078
aI19842
aI20035
aI21559
aI23510
aI24217
asI66
(lp67
I265
aI695
aI968
aI1855
aI2326
aI3311
aI3447
aI3494
aI3853
aI5631
aI5805
aI7222
aI7963
aI8421
aI9327
aI10711
aI10982
aI12831
aI12872
aI14054
aI14972
aI15168
aI15820
aI15964
aI16423
aI17878
aI19509
aI19742
aI20613
aI22471
aI22879
aI22986
aI24045
aI24567
aI24641
asI67
(lp68
I464
aI641
aI716
aI1770
aI2586
aI2957
aI3715
aI4336
aI5682
aI6063
aI6658
aI7700
aI7737
aI8391
aI10734
aI12322
aI13564
aI13975
aI14686
aI15156
aI15202
aI15721
aI15832
aI15917
aI16164
aI16353
aI20124
aI20284
aI20708
aI20748
aI21449
aI21988
aI22507
aI22772
aI22873
aI23693
aI24059
aI24122
aI24603
aI24677
aI24929
asI68
(lp69
I4397
aI4815
aI5709
aI6023
aI6166
aI6712
aI7210
aI8251
aI8803
aI9571
aI9934
aI9993
aI10149
aI10204
aI10582
aI11146
aI12004
aI13552
aI13770
aI18607
aI19139
aI20343
aI22131
aI23080
aI23966
asI69
(lp70
I1141
aI1169
aI1498
aI3771
aI4197
aI5116
aI5884
aI6365
aI6411
aI6846
aI7501
aI7898
aI8261
aI10370
aI11995
aI12022
aI13435
aI14164
aI14451
aI14662
aI17237
aI18149
aI18564
aI18901
aI19928
aI20679
aI20989
aI21160
aI21365
aI22138
aI22574
aI22712
aI23032
aI23583
aI23932
aI24058
aI24493
asI70
(lp71
I306
aI373
aI644
aI1164
aI3983
aI4641
aI4950
aI5054
aI5516
aI6012
aI6908
aI7319
aI7830
aI7988
aI8400
aI9916
aI11083
aI11998
aI12072
aI12225
aI12325
aI12526
aI13036
aI13226
aI13331
aI13982
aI15806
aI15865
aI15967
aI16415
aI17144
aI17215
aI17490
aI18621
aI19478
aI21455
aI21938
aI23265
aI23386
aI24117
aI24594
asI71
(lp72
I339
aI513
aI723
aI1404
aI2343
aI4387
aI6595
aI7542
aI8093
aI8229
aI9094
aI9549
aI9669
aI11557
aI11953
aI12451
aI12662
aI13314
aI14289
aI15169
aI15639
aI15869
aI15934
aI16168
aI16354
aI16635
aI17085
aI20433
aI21521
aI21697
aI22936
aI22956
aI24237
asI72
(lp73
I262
aI1600
aI1856
aI2370
aI2437
aI2971
aI3281
aI3697
aI3880
aI4859
aI5441
aI5725
aI6363
aI6409
aI6489
aI6777
aI8073
aI9298
aI10529
aI10934
aI13932
aI15595
aI15768
aI15799
aI16122
aI17087
aI18381
aI18561
aI18756
aI19063
aI19415
aI19717
aI21598
aI21763
aI23000
aI23155
aI23171
aI23246
aI24232
aI24890
asI73
(lp74
I1341
aI3899
aI4180
aI4874
aI4964
aI5383
aI6415
aI8372
aI8475
aI10023
aI10156
aI10472
aI10556
aI11449
aI11957
aI12206
aI12989
aI13780
aI13839
aI13914
aI14029
aI14276
aI15303
aI16145
aI16555
aI17680
aI18135
aI18875
aI18896
aI19036
aI19127
aI19200
aI20074
aI20840
aI21298
aI22318
aI23497
aI23900
aI23929
aI24990
asI74
(lp75
I2161
aI2207
aI3584
aI5374
aI6042
aI7314
aI7321
aI8921
aI10221
aI10821
aI12620
aI12913
aI14308
aI14363
aI15855
aI16535
aI16615
aI16925
aI17266
aI18755
aI20095
aI20283
aI20641
aI20692
aI20915
aI21174
aI21386
aI21678
aI21979
aI22451
aI22962
aI23325
aI23935
asI75
(lp76
I142
aI1094
aI1175
aI1630
aI2842
aI3355
aI5265
aI5414
aI5621
aI6265
aI7232
aI9257
aI11501
aI12679
aI13511
aI13524
aI14310
aI14817
aI14990
aI15143
aI15225
aI15272
aI15292
aI15764
aI16110
aI16937
aI17986
aI18680
aI20016
aI20736
aI21435
aI21622
aI21749
aI22622
aI23102
aI24503
asI76
(lp77
I677
aI2095
aI2137
aI3093
aI3131
aI3508
aI3981
aI4349
aI5010
aI5334
aI6960
aI7826
aI8591
aI9213
aI11459
aI11563
aI11644
aI12882
aI13643
aI14107
aI14151
aI15428
aI16019
aI16378
aI16983
aI17249
aI19040
aI20886
aI20927
aI20942
aI21547
aI21734
aI22778
aI24100
aI24472
aI24824
aI24832
asI77
(lp78
I573
aI808
aI826
aI995
aI1211
aI2284
aI2904
aI2990
aI3546
aI4686
aI6629
aI7578
aI8084
aI9929
aI10050
aI11102
aI11464
aI12196
aI12484
aI12855
aI13293
aI13441
aI14853
aI14879
aI15187
aI16306
aI17287
aI17721
aI17872
aI17966
aI18172
aI19169
aI20495
aI20551
aI21309
aI21480
aI21504
aI22456
aI22609
aI23234
aI23918
aI24789
aI24853
asI78
(lp79
I115
aI428
aI2697
aI3490
aI3517
aI4548
aI5432
aI5815
aI6304
aI6389
aI7730
aI7816
aI10031
aI10073
aI10490
aI13028
aI13209
aI14650
aI15787
aI16918
aI17674
aI18121
aI18854
aI19282
aI20763
aI20931
aI21673
aI21770
aI23107
aI23601
aI24049
asI79
(lp80
I615
aI1035
aI1111
aI1184
aI1652
aI2230
aI2518
aI2965
aI3048
aI3867
aI4100
aI4836
aI4851
aI5002
aI5100
aI5138
aI5920
aI6051
aI6234
aI6789
aI8285
aI8340
aI8476
aI8701
aI9452
aI9645
aI11073
aI11369
aI12881
aI12972
aI13270
aI14484
aI15790
aI16186
aI17219
aI19428
aI21131
aI21517
aI21580
aI21614
aI21828
aI22096
aI22316
aI22759
aI23035
aI23692
asI80
(lp81
I21
aI779
aI1280
aI1880
aI1882
aI2040
aI2382
aI2642
aI2936
aI3892
aI4637
aI6179
aI6197
aI6237
aI6510
aI6540
aI6780
aI6965
aI8792
aI8837
aI10398
aI10530
aI11105
aI11312
aI11554
aI11912
aI11985
aI12310
aI12389
aI13631
aI14321
aI16387
aI17010
aI17590
aI19161
aI20746
aI21165
aI21624
aI21949
aI22267
aI23162
asI81
(lp82
I411
aI1480
aI1502
aI1561
aI2261
aI2394
aI2408
aI2552
aI3369
aI4033
aI4068
aI4115
aI4145
aI4323
aI5717
aI5848
aI5967
aI6438
aI6627
aI7103
aI7228
aI7296
aI7795
aI8933
aI9192
aI9262
aI9306
aI9781
aI9947
aI9952
aI10492
aI11012
aI11762
aI11840
aI11878
aI12348
aI13002
aI13999
aI14021
aI15312
aI16039
aI16345
aI16477
aI16680
aI16712
aI17265
aI18002
aI18439
aI18759
aI19465
aI19613
aI19763
aI19829
aI19972
aI20003
aI20663
aI21256
aI21969
aI22582
aI24042
aI24397
aI24403
aI24943
asI82
(lp83
I208
aI440
aI727
aI1093
aI1209
aI1747
aI2011
aI2434
aI3254
aI4262
aI5290
aI5418
aI5726
aI5807
aI8523
aI9422
aI9765
aI9881
aI10264
aI11348
aI11559
aI11738
aI12618
aI13370
aI14133
aI14791
aI15706
aI16058
aI18319
aI18555
aI18667
aI19893
aI20573
aI22749
aI23007
aI24398
aI24430
asI83
(lp84
I949
aI1188
aI1258
aI2363
aI2472
aI2496
aI2558
aI2947
aI3129
aI3501
aI3958
aI5491
aI5675
aI5866
aI6464
aI7273
aI9975
aI10575
aI10798
aI12928
aI13416
aI15018
aI16413
aI16628
aI17105
aI17523
aI17923
aI18463
aI18532
aI18575
aI19224
aI19452
aI19496
aI19665
aI19697
aI20337
aI20402
aI20472
aI20787
aI21197
aI21291
aI21301
aI21390
aI22809
aI22825
aI23634
aI24276
aI24426
aI24845
asI84
(lp85
I663
aI934
aI1218
aI1795
aI1877
aI2093
aI2116
aI2232
aI2951
aI3300
aI4342
aI4545
aI5119
aI5266
aI7508
aI7968
aI8410
aI8534
aI9444
aI9617
aI9733
aI9831
aI11287
aI12204
aI12231
aI13027
aI13029
aI14061
aI14105
aI14681
aI14924
aI15033
aI15528
aI15769
aI15808
aI16036
aI16315
aI16488
aI16577
aI17018
aI19197
aI19490
aI21703
aI22029
aI22715
aI23199
aI23523
aI23814
aI24549
asI85
(lp86
I32
aI444
aI1702
aI2511
aI2981
aI4064
aI4087
aI4839
aI6118
aI6992
aI7091
aI7203
aI8422
aI8578
aI8699
aI8894
aI9159
aI9835
aI9848
aI10884
aI11020
aI11163
aI11575
aI12178
aI14602
aI15796
aI16715
aI17760
aI18138
aI18362
aI18744
aI18815
aI18992
aI19051
aI19921
aI20004
aI20221
aI20233
aI20962
aI21756
aI22130
aI22374
aI23627
aI24087
asI86
(lp87
I620
aI707
aI4065
aI5390
aI5453
aI6642
aI7096
aI9514
aI11029
aI11255
aI12006
aI12659
aI12981
aI13632
aI13723
aI14881
aI15483
aI15659
aI15760
aI16978
aI19101
aI19300
aI19958
aI20001
aI20617
aI21731
aI24547
aI24889
asI87
(lp88
I130
aI256
aI1005
aI3897
aI4079
aI4577
aI4910
aI4923
aI5200
aI5421
aI5992
aI6233
aI6269
aI6837
aI8041
aI8255
aI8649
aI8801
aI9286
aI10155
aI10287
aI10532
aI10570
aI10875
aI11298
aI12931
aI13544
aI14716
aI16178
aI16597
aI16935
aI17263
aI18324
aI19252
aI19351
aI19622
aI19771
aI19936
aI20466
aI20941
aI21042
aI21058
aI21587
aI23191
aI24648
aI24979
asI88
(lp89
I591
aI889
aI1039
aI2070
aI2953
aI3213
aI3339
aI3430
aI4826
aI6284
aI7062
aI7238
aI7618
aI8256
aI9928
aI10139
aI11725
aI11748
aI13487
aI14050
aI14182
aI14977
aI15106
aI15365
aI17505
aI19177
aI21500
aI21906
aI22327
aI23309
aI23575
aI23696
asI89
(lp90
I442
aI2290
aI3934
aI5050
aI5051
aI5092
aI5154
aI5495
aI5507
aI6601
aI7707
aI7735
aI7788
aI8188
aI8565
aI9101
aI10064
aI11520
aI12011
aI12233
aI14159
aI14267
aI15926
aI16267
aI16752
aI18235
aI19475
aI19639
aI19750
aI20015
aI21335
aI22801
aI22991
aI23921
aI24356
aI24482
aI24551
aI24564
aI24844
asI90
(lp91
I1221
aI1875
aI3947
aI4182
aI4377
aI4650
aI4663
aI6092
aI6276
aI6910
aI7980
aI8636
aI8843
aI9108
aI10141
aI10885
aI10980
aI14104
aI14130
aI14412
aI14421
aI15534
aI16246
aI16545
aI16895
aI17859
aI18074
aI18171
aI18872
aI19978
aI20994
aI21540
aI21836
aI23328
aI24113
asI91
(lp92
I112
aI881
aI1540
aI1611
aI2683
aI2927
aI3403
aI3898
aI3924
aI4881
aI5680
aI6598
aI8163
aI8577
aI9365
aI9976
aI10827
aI10843
aI11740
aI11888
aI13081
aI13111
aI13261
aI13459
aI13963
aI14048
aI14093
aI14284
aI14326
aI14604
aI19131
aI19448
aI20201
aI21489
aI23418
aI23839
aI23963
aI24112
aI24589
asI92
(lp93
I1913
aI2879
aI3312
aI4932
aI5338
aI5921
aI6036
aI6971
aI7921
aI8064
aI8519
aI8927
aI10188
aI11275
aI11307
aI12660
aI14270
aI14404
aI14887
aI15198
aI15379
aI15572
aI15583
aI17122
aI18346
aI19620
aI20528
aI21156
aI21377
aI21483
aI23144
aI23424
aI24141
asI93
(lp94
I241
aI509
aI610
aI661
aI725
aI3264
aI3376
aI3637
aI3750
aI4172
aI4484
aI4586
aI4697
aI4840
aI5492
aI6418
aI7981
aI9106
aI10715
aI11943
aI12229
aI12828
aI14224
aI14700
aI15211
aI16368
aI16867
aI16947
aI16971
aI17515
aI19405
aI20741
aI21070
aI21350
aI22293
aI23490
aI23820
asI94
(lp95
I1396
aI1771
aI2242
aI2616
aI3405
aI8018
aI8423
aI9092
aI9435
aI12137
aI13496
aI14702
aI14706
aI14960
aI15223
aI15844
aI16304
aI17055
aI18812
aI19513
aI19957
aI21639
aI23274
aI23409
aI24023
aI24132
aI24825
asI95
(lp96
I517
aI531
aI942
aI1445
aI1591
aI2918
aI3402
aI4906
aI5367
aI5667
aI5917
aI6912
aI7478
aI8316
aI8440
aI8846
aI10301
aI10558
aI12057
aI12332
aI13888
aI14536
aI14566
aI14824
aI15683
aI16382
aI16582
aI17086
aI17200
aI17936
aI18445
aI18836
aI19383
aI19473
aI19515
aI19762
aI19779
aI19996
aI21251
aI22171
aI22455
aI22593
aI23105
aI23519
asI96
(lp97
I766
aI943
aI1946
aI2024
aI2641
aI4046
aI4876
aI5391
aI5580
aI5781
aI6087
aI6537
aI7799
aI8086
aI8721
aI13749
aI14193
aI14875
aI15081
aI16571
aI16961
aI17778
aI17944
aI18285
aI18519
aI19766
aI20668
aI20758
aI21200
aI21698
aI22108
aI22220
aI23464
aI23517
aI24137
asI97
(lp98
I2337
aI2643
aI3601
aI5400
aI5722
aI6271
aI6383
aI6543
aI7356
aI7694
aI8800
aI9014
aI9925
aI11094
aI11195
aI11290
aI11757
aI12180
aI14215
aI14506
aI17491
aI19469
aI19752
aI22740
aI23187
aI23557
asI98
(lp99
I232
aI257
aI748
aI2497
aI2880
aI2988
aI3159
aI4783
aI5898
aI7235
aI7846
aI8416
aI8832
aI9266
aI13449
aI13965
aI14736
aI14980
aI17527
aI18280
aI18433
aI19060
aI19641
aI19855
aI19891
aI20907
aI22142
aI22706
aI24764
asI99
(lp100
I293
aI869
aI1368
aI2476
aI2634
aI2882
aI3109
aI3643
aI3719
aI4744
aI5166
aI5260
aI5987
aI6070
aI7560
aI8298
aI8478
aI9233
aI9260
aI9470
aI9557
aI10793
aI13197
aI13911
aI14774
aI15201
aI15816
aI16212
aI16534
aI16604
aI17982
aI18642
aI18860
aI19135
aI19147
aI20467
aI21666
aI22617
aI22840
aI23115
aI23812
aI23819
aI24446
aI24971
asI100
(lp101
I1986
aI2630
aI3787
aI5108
aI9851
aI9856
aI10000
aI10019
aI10977
aI13691
aI15445
aI18270
aI18672
aI18995
aI19113
aI19440
aI21725
aI23043
aI23425
aI24145
aI24680
asI101
(lp102
I1308
aI1599
aI1800
aI2238
aI3607
aI3630
aI3808
aI4363
aI4447
aI4596
aI4695
aI4942
aI5499
aI6940
aI7110
aI7556
aI7655
aI7860
aI8546
aI9086
aI9338
aI9720
aI9999
aI10403
aI10634
aI10677
aI11043
aI11316
aI11437
aI11747
aI11801
aI12874
aI12947
aI13364
aI13419
aI13903
aI16573
aI17652
aI18327
aI18582
aI18829
aI19647
aI19861
aI20139
aI20336
aI22022
aI22561
aI22954
aI23585
aI24194
asI102
(lp103
I24
aI1135
aI1517
aI1622
aI1984
aI2563
aI5178
aI5747
aI5949
aI6001
aI6370
aI7326
aI7388
aI7679
aI7687
aI7749
aI7768
aI8248
aI8508
aI9049
aI10347
aI10547
aI10675
aI11578
aI11726
aI12634
aI13154
aI13570
aI14258
aI14746
aI14747
aI15123
aI15141
aI15879
aI17014
aI17627
aI18851
aI21188
aI23723
aI24830
asI103
(lp104
I178
aI1402
aI1539
aI2020
aI2977
aI3827
aI5007
aI5684
aI6285
aI6391
aI6741
aI7261
aI7340
aI7399
aI7784
aI7955
aI8328
aI8510
aI10051
aI10341
aI10429
aI10649
aI12860
aI12962
aI13109
aI14332
aI14677
aI15276
aI15391
aI15454
aI16152
aI16460
aI16587
aI16814
aI17727
aI17772
aI18062
aI19790
aI20344
aI21195
aI21290
aI21495
aI22160
aI22252
aI22323
aI22784
aI22807
aI23255
aI23421
aI24402
aI24592
asI104
(lp105
I910
aI1403
aI1690
aI1863
aI2111
aI2583
aI4420
aI5561
aI5951
aI7574
aI8859
aI9146
aI9439
aI9734
aI11359
aI13461
aI14543
aI14888
aI15063
aI15336
aI17406
aI18475
aI22205
aI22209
aI23365
aI24460
aI24612
aI24903
asI105
(lp106
I12
aI1299
aI2015
aI2994
aI3224
aI4053
aI4395
aI4561
aI5022
aI5220
aI5955
aI6272
aI6969
aI8621
aI9315
aI9675
aI9841
aI11033
aI11681
aI11954
aI12856
aI13477
aI14301
aI16296
aI17574
aI18057
aI18811
aI19807
aI20277
aI20792
aI22164
aI22656
aI22823
aI23707
aI24344
aI24740
aI24818
aI24848
asI106
(lp107
I701
aI2482
aI3096
aI3140
aI3545
aI3920
aI4628
aI5177
aI6933
aI6983
aI8365
aI9181
aI10862
aI11036
aI11124
aI11728
aI12629
aI13566
aI14028
aI14207
aI15218
aI16230
aI16263
aI17081
aI18683
aI20258
aI21077
aI22359
aI23840
aI24195
aI24803
asI107
(lp108
I461
aI2505
aI2853
aI3902
aI4159
aI4245
aI4498
aI5984
aI6148
aI6441
aI6694
aI6727
aI6832
aI6975
aI7692
aI8368
aI8627
aI9855
aI11923
aI12655
aI12760
aI12927
aI14899
aI15005
aI15724
aI15923
aI16887
aI21048
aI21971
aI22058
aI22229
aI22341
aI22743
aI24029
aI24662
aI24919
asI108
(lp109
I487
aI1291
aI3084
aI3391
aI4347
aI5242
aI5328
aI6312
aI6555
aI6556
aI8698
aI9112
aI10381
aI12799
aI13580
aI14548
aI15007
aI15277
aI15822
aI16625
aI16634
aI17324
aI17810
aI18436
aI19126
aI19686
aI20192
aI22827
aI22831
aI23054
aI23623
aI23805
aI23858
asI109
(lp110
I244
aI1572
aI1781
aI2694
aI3050
aI3215
aI3890
aI4290
aI4929
aI5224
aI5570
aI5656
aI5932
aI7271
aI9809
aI10328
aI11967
aI12429
aI12702
aI13007
aI13178
aI13938
aI14829
aI14876
aI15088
aI15920
aI16589
aI16631
aI17059
aI17341
aI18906
aI18929
aI19209
aI19288
aI20054
aI20103
aI20247
aI21897
aI22969
aI23555
asI110
(lp111
I125
aI284
aI503
aI530
aI1106
aI1293
aI2000
aI2062
aI2580
aI3013
aI3457
aI4774
aI5408
aI6178
aI6377
aI7579
aI7631
aI7914
aI8517
aI8654
aI8827
aI9760
aI10272
aI10279
aI12150
aI12729
aI13255
aI13304
aI15183
aI15637
aI17088
aI18157
aI18377
aI18700
aI18928
aI19677
aI19768
aI20434
aI20477
aI20539
aI20698
aI20706
aI21159
aI23772
aI24047
aI24084
aI24912
asI111
(lp112
I207
aI334
aI607
aI715
aI2196
aI2350
aI3258
aI3543
aI3685
aI4265
aI4485
aI6350
aI6375
aI6573
aI6703
aI7013
aI7382
aI7440
aI7639
aI8242
aI8608
aI8882
aI9361
aI9804
aI11811
aI12153
aI12260
aI12599
aI12998
aI13558
aI13822
aI15938
aI16805
aI17386
aI17553
aI17902
aI18765
aI19524
aI19673
aI19700
aI19924
aI20084
aI20508
aI20829
aI21032
aI21603
aI22874
aI24257
aI24456
aI24575
aI24634
asI112
(lp113
I1327
aI1407
aI1549
aI2235
aI2301
aI2696
aI3689
aI4593
aI5636
aI6082
aI8115
aI8866
aI9354
aI10115
aI10131
aI10650
aI11251
aI12466
aI13394
aI13431
aI14018
aI15065
aI16232
aI16829
aI16936
aI17481
aI18185
aI18577
aI19567
aI20243
aI20723
aI21280
aI21507
aI21907
aI21925
aI22192
aI22846
aI22917
aI23066
aI23520
aI23862
aI24370
asI113
(lp114
I341
aI1379
aI1902
aI2013
aI3309
aI3721
aI3741
aI4341
aI5091
aI6022
aI7538
aI10071
aI10524
aI11658
aI11751
aI12205
aI12572
aI12974
aI13303
aI13880
aI16592
aI17063
aI17145
aI17547
aI17889
aI18786
aI18935
aI19413
aI19638
aI19890
aI19992
aI21182
aI21257
aI21413
aI21608
aI22474
aI22611
aI22698
aI22800
aI24579
aI24660
asI114
(lp115
I91
aI312
aI734
aI974
aI1241
aI2074
aI2080
aI2115
aI3287
aI3873
aI6104
aI6735
aI7507
aI7962
aI8369
aI9138
aI9616
aI9673
aI10345
aI11318
aI12832
aI13215
aI14000
aI14095
aI14403
aI14891
aI16735
aI17005
aI17076
aI17798
aI19092
aI19498
aI20470
aI20545
aI20731
aI21795
aI22470
aI22481
aI22734
aI22750
aI22886
aI22907
aI23011
aI23890
aI24086
asI115
(lp116
I626
aI721
aI916
aI1655
aI2498
aI2730
aI3167
aI4406
aI6113
aI6305
aI6457
aI6487
aI6632
aI6833
aI7395
aI7467
aI7772
aI7951
aI8034
aI11320
aI11371
aI11632
aI11655
aI11710
aI11743
aI12198
aI13236
aI13996
aI15501
aI15880
aI16427
aI16448
aI17050
aI17779
aI18042
aI18229
aI18455
aI19369
aI21203
aI21464
aI21681
aI22568
aI22870
aI23518
aI23988
aI24277
asI116
(lp117
I413
aI895
aI1081
aI1304
aI1613
aI1950
aI2117
aI2144
aI2493
aI3005
aI3522
aI5155
aI6647
aI6947
aI7892
aI7961
aI8039
aI9657
aI11344
aI11803
aI11810
aI12723
aI13842
aI14191
aI14316
aI15282
aI16819
aI18420
aI19436
aI19684
aI20059
aI20355
aI20594
aI20678
aI21304
aI21689
aI23331
aI23345
aI24024
aI24314
asI117
(lp118
I143
aI2597
aI3293
aI3527
aI4893
aI6342
aI6926
aI8486
aI9789
aI10285
aI10564
aI10628
aI10917
aI11095
aI12096
aI12191
aI12717
aI12728
aI12751
aI12934
aI13429
aI13581
aI13682
aI13705
aI13924
aI14291
aI14532
aI14630
aI15314
aI15441
aI15617
aI15813
aI15854
aI16327
aI17912
aI18103
aI18191
aI19165
aI19581
aI19755
aI19878
aI21870
aI21955
aI22175
aI22287
aI22445
aI22925
aI23587
asI118
(lp119
I1193
aI1647
aI1686
aI1740
aI1850
aI1859
aI2791
aI3160
aI3344
aI3628
aI4199
aI4208
aI4225
aI5025
aI5757
aI5897
aI6174
aI7221
aI7636
aI8215
aI8441
aI8671
aI8706
aI8858
aI9152
aI9235
aI9727
aI10146
aI10262
aI10465
aI10537
aI11528
aI11567
aI11577
aI11856
aI12108
aI12296
aI13232
aI13935
aI14042
aI15137
aI16721
aI20871
aI21613
aI21869
aI22652
aI22671
aI23786
aI24242
asI119
(lp120
I551
aI1417
aI1733
aI1766
aI2444
aI2826
aI3817
aI4146
aI4495
aI5553
aI6785
aI9037
aI10578
aI10962
aI11053
aI12254
aI12604
aI12953
aI13621
aI13666
aI13992
aI15381
aI16183
aI16325
aI18024
aI18552
aI18601
aI21928
aI22057
aI22463
aI23446
aI23919
aI24099
aI24284
aI24611
asI120
(lp121
I538
aI1162
aI3354
aI5455
aI5557
aI5671
aI6202
aI6901
aI7742
aI8296
aI9091
aI9273
aI9891
aI10113
aI10566
aI10825
aI12667
aI12778
aI13076
aI14148
aI15059
aI16146
aI16406
aI18193
aI18212
aI18487
aI18566
aI18805
aI19340
aI20246
aI20847
aI21218
aI21393
aI21550
aI21752
aI22219
aI22257
aI22410
aI22464
aI24354
aI24386
asI121
(lp122
I542
aI1255
aI2079
aI2732
aI2919
aI4620
aI5439
aI5539
aI6798
aI7017
aI7349
aI8490
aI8575
aI9024
aI9294
aI9577
aI10654
aI11152
aI11200
aI11526
aI12239
aI13136
aI13352
aI13604
aI13646
aI14277
aI14796
aI14921
aI14942
aI15269
aI15592
aI16108
aI17061
aI17118
aI17210
aI17557
aI17900
aI18253
aI19425
aI20248
aI20364
aI20388
aI22391
aI22788
aI22856
aI23131
aI23427
aI23495
aI24057
aI24264
aI24617
asI122
(lp123
I135
aI635
aI824
aI1641
aI2103
aI2347
aI2769
aI2973
aI3345
aI3657
aI5369
aI5463
aI5647
aI6128
aI6147
aI7260
aI8634
aI8704
aI8848
aI10300
aI10405
aI10416
aI11249
aI11313
aI12285
aI15138
aI15986
aI16086
aI17152
aI17174
aI17276
aI17339
aI17601
aI18443
aI20209
aI20511
aI22312
aI22338
aI23027
aI23099
aI23426
aI24154
asI123
(lp124
I683
aI751
aI2134
aI2679
aI3000
aI5081
aI5360
aI5545
aI6278
aI6805
aI7431
aI10574
aI10592
aI11328
aI11941
aI12869
aI13192
aI13302
aI13502
aI14009
aI14076
aI14226
aI14525
aI16000
aI16945
aI17520
aI17723
aI17780
aI18454
aI18666
aI19128
aI19920
aI20889
aI21025
aI21100
aI21225
aI21571
aI23052
aI23211
aI24179
aI24601
aI24705
aI24717
asI124
(lp125
I2
aI441
aI1370
aI2465
aI2569
aI3288
aI4093
aI4352
aI4673
aI5533
aI5827
aI7106
aI10683
aI10707
aI10999
aI11101
aI11949
aI12351
aI13542
aI14798
aI15610
aI16349
aI16710
aI18417
aI20416
aI20442
aI20699
aI20919
aI21053
aI21360
aI22241
aI22684
aI22862
aI22997
aI23030
aI23604
aI23783
aI24554
aI24718
asI125
(lp126
I640
aI864
aI2082
aI3054
aI3094
aI3738
aI5989
aI6511
aI6596
aI7325
aI7429
aI7597
aI8427
aI9580
aI9681
aI10335
aI10646
aI10947
aI10974
aI11487
aI11865
aI12955
aI13168
aI13386
aI13469
aI14134
aI14962
aI16903
aI17938
aI18551
aI19691
aI20542
aI20822
aI21812
aI22002
asI126
(lp127
I30
aI1953
aI2152
aI3906
aI4055
aI4616
aI4984
aI5413
aI6770
aI7389
aI7696
aI7798
aI7875
aI8176
aI8603
aI8870
aI8934
aI9163
aI9894
aI10856
aI10892
aI11411
aI11433
aI11477
aI12250
aI12469
aI13063
aI15527
aI15966
aI16006
aI18390
aI18585
aI19397
aI19479
aI20546
aI21461
aI22829
aI23090
aI23880
aI24025
aI24299
asI127
(lp128
I724
aI2741
aI2877
aI3018
aI3024
aI3262
aI3336
aI3412
aI3560
aI4760
aI4844
aI4852
aI5376
aI7370
aI7480
aI7558
aI8789
aI8941
aI9153
aI9546
aI10338
aI10576
aI11227
aI11280
aI12171
aI12280
aI12933
aI13144
aI14632
aI14762
aI15328
aI16068
aI16351
aI17109
aI17580
aI18705
aI18966
aI20802
aI22152
aI22650
aI22783
aI23480
aI23651
aI23834
aI23889
aI23982
aI24805
asI128
(lp129
I234
aI407
aI681
aI911
aI1238
aI1595
aI1954
aI2427
aI2661
aI2821
aI3465
aI3470
aI3496
aI4508
aI4661
aI5239
aI5676
aI6005
aI6138
aI6915
aI6967
aI7049
aI8481
aI8730
aI9111
aI10011
aI10230
aI10395
aI12796
aI14341
aI14570
aI15195
aI15571
aI15694
aI15717
aI16222
aI18095
aI18889
aI19711
aI19952
aI22960
aI24177
aI24420
asI129
(lp130
I495
aI2036
aI3185
aI3340
aI3758
aI3988
aI4231
aI4530
aI4905
aI5712
aI5993
aI6064
aI6392
aI6792
aI7127
aI7162
aI7545
aI7561
aI8641
aI8765
aI8905
aI9134
aI9150
aI9278
aI9472
aI10679
aI12067
aI12551
aI12653
aI13427
aI13812
aI14203
aI14896
aI16062
aI16139
aI16185
aI16322
aI18275
aI18745
aI19259
aI19514
aI19545
aI20605
aI20682
aI20754
aI21285
aI21747
aI21755
aI21819
aI23126
aI24172
asI130
(lp131
I805
aI931
aI1512
aI2016
aI2034
aI2698
aI5274
aI5620
aI8244
aI8464
aI10555
aI10923
aI11596
aI12081
aI12324
aI12500
aI13252
aI13672
aI15098
aI15412
aI16425
aI17054
aI17623
aI18440
aI20491
aI22641
asI131
(lp132
I362
aI1066
aI1107
aI2614
aI4105
aI5736
aI7095
aI8258
aI10039
aI11071
aI11911
aI12566
aI13118
aI13237
aI15359
aI16470
aI17283
aI17633
aI18208
aI18289
aI19357
aI20062
aI20760
aI22723
aI24295
asI132
(lp133
I823
aI868
aI2396
aI2748
aI4148
aI5464
aI6140
aI6154
aI6341
aI7061
aI7353
aI7593
aI7769
aI8015
aI8538
aI8904
aI9732
aI10507
aI11549
aI12184
aI13305
aI13626
aI14247
aI14298
aI15267
aI15439
aI15589
aI15859
aI16498
aI17563
aI19346
aI19477
aI19546
aI20548
aI21018
aI23837
aI24552
asI133
(lp134
I840
aI2598
aI3831
aI6568
aI6849
aI7358
aI8378
aI9481
aI9606
aI10376
aI12654
aI12703
aI12788
aI12817
aI14545
aI15311
aI15362
aI16586
aI16919
aI18486
aI19302
aI19510
aI20842
aI21871
aI22223
aI23592
aI23922
asI134
(lp135
I860
aI1775
aI1916
aI2962
aI3482
aI5697
aI6073
aI6093
aI6267
aI6569
aI6584
aI7519
aI7991
aI8167
aI8794
aI9127
aI9403
aI10764
aI10790
aI10922
aI11370
aI11679
aI12117
aI12516
aI12893
aI13032
aI13603
aI13801
aI14016
aI14867
aI16563
aI16622
aI17153
aI17343
aI17433
aI18792
aI18838
aI19625
aI20236
aI20386
aI20471
aI20868
aI21803
aI21910
aI21924
aI22098
aI22127
aI22202
aI23272
aI23413
aI24238
aI24726
aI24891
asI135
(lp136
I267
aI1154
aI1673
aI1858
aI3139
aI3426
aI3579
aI4196
aI4715
aI5467
aI8331
aI8474
aI8667
aI8761
aI10571
aI13240
aI14357
aI14362
aI15207
aI15486
aI15654
aI15884
aI17662
aI17888
aI18777
aI20072
aI20521
aI20620
aI20824
aI21123
aI22042
aI22070
aI22851
aI24010
aI24054
aI24275
aI24288
aI24301
aI24977
asI136
(lp137
I140
aI1072
aI1439
aI1897
aI2298
aI3781
aI4106
aI4409
aI5435
aI6292
aI7123
aI7503
aI7682
aI7940
aI8349
aI8974
aI9039
aI9587
aI9661
aI9731
aI10975
aI11075
aI12114
aI12128
aI12295
aI12782
aI12805
aI13634
aI15011
aI15064
aI15662
aI16599
aI16668
aI17609
aI18382
aI19167
aI19740
aI20285
aI20376
aI20534
aI20601
aI20671
aI20807
aI20863
aI21020
aI22703
aI23236
aI23848
aI24296
aI24674
aI24679
asI137
(lp138
I355
aI1684
aI1826
aI2176
aI2704
aI2724
aI5728
aI6164
aI8125
aI8379
aI8484
aI9559
aI9820
aI10371
aI10699
aI11395
aI11470
aI11908
aI12179
aI12696
aI13182
aI14628
aI16199
aI16944
aI17027
aI17415
aI18752
aI19112
aI19295
aI19695
aI22114
aI22487
aI22779
aI22844
aI22935
aI23006
aI23303
aI24210
asI138
(lp139
I226
aI1021
aI1121
aI2166
aI2403
aI2590
aI3179
aI3680
aI3810
aI4329
aI4525
aI6315
aI6968
aI7133
aI7587
aI8154
aI8975
aI9319
aI10066
aI10386
aI10929
aI11284
aI12095
aI14518
aI14826
aI17696
aI17940
aI18414
aI18808
aI20194
aI20552
aI22165
aI22195
aI22765
aI22878
aI24515
aI24528
asI139
(lp140
I1025
aI1336
aI3030
aI3368
aI3887
aI4448
aI4733
aI5149
aI6353
aI6429
aI6993
aI7056
aI8266
aI8871
aI9364
aI10105
aI10227
aI11117
aI11975
aI12838
aI13877
aI15068
aI15393
aI16236
aI16268
aI17156
aI17355
aI17376
aI17799
aI19322
aI20131
aI20403
aI20465
aI20599
aI22631
aI23334
aI23885
aI24480
aI24902
asI140
(lp141
I802
aI1183
aI2502
aI2645
aI2658
aI2827
aI4311
aI4456
aI5076
aI6458
aI7258
aI7760
aI8513
aI8642
aI8781
aI8872
aI8966
aI10181
aI10687
aI11657
aI11910
aI13402
aI14313
aI15053
aI15863
aI16206
aI16553
aI16815
aI17121
aI17285
aI17995
aI18583
aI18800
aI19065
aI19583
aI21397
aI21398
aI21561
aI22891
aI23222
asI141
(lp142
I222
aI483
aI737
aI3012
aI3459
aI4748
aI5287
aI5302
aI6372
aI6432
aI7163
aI7831
aI7974
aI9120
aI9283
aI9971
aI10594
aI10625
aI10639
aI11349
aI11986
aI12041
aI12378
aI12432
aI13062
aI13320
aI13727
aI14187
aI15690
aI15924
aI16227
aI19789
aI19797
aI19986
aI20633
aI21068
aI21283
aI21721
aI23395
aI23487
aI23971
aI24329
aI24599
aI24678
asI142
(lp143
I84
aI423
aI2890
aI2966
aI2974
aI3059
aI4017
aI4440
aI5578
aI6059
aI7414
aI7488
aI7832
aI8177
aI8426
aI9420
aI10659
aI10729
aI11606
aI12190
aI12222
aI12365
aI13130
aI13188
aI16002
aI16637
aI16974
aI17351
aI17710
aI17998
aI18512
aI20618
aI20878
aI21082
aI22646
aI22790
aI23244
asI143
(lp144
I767
aI1038
aI1685
aI2602
aI3956
aI6025
aI7385
aI7720
aI8202
aI8558
aI8771
aI8913
aI11179
aI11237
aI11651
aI12439
aI12480
aI13016
aI14166
aI14760
aI15369
aI15408
aI17075
aI18076
aI19941
aI20306
aI20664
aI20789
aI21063
aI21744
aI21972
aI22412
aI23275
asI144
(lp145
I675
aI687
aI886
aI3208
aI3711
aI4538
aI4635
aI5019
aI5230
aI5254
aI5522
aI6158
aI6652
aI6700
aI7379
aI7880
aI7970
aI9109
aI9191
aI9466
aI9478
aI9797
aI9847
aI10054
aI10880
aI11236
aI12367
aI12610
aI12627
aI12993
aI13568
aI13662
aI13844
aI14123
aI14433
aI14783
aI16257
aI17112
aI17637
aI17807
aI18389
aI19018
aI19215
aI19640
aI19815
aI20119
aI20506
aI21143
aI21651
aI22011
aI22976
aI23083
aI23101
aI23227
aI23241
aI23494
aI24155
aI24425
asI145
(lp146
I432
aI893
aI1078
aI1482
aI1955
aI2057
aI2534
aI3829
aI3868
aI4474
aI10497
aI10912
aI11345
aI12375
aI12458
aI12921
aI17207
aI17748
aI17968
aI18799
aI18862
aI20686
aI20757
aI22798
aI23990
aI24240
aI24298
aI24842
aI24863
asI146
(lp147
I1156
aI1295
aI2100
aI2202
aI2504
aI3182
aI4204
aI4629
aI5891
aI6806
aI6850
aI7294
aI7351
aI7352
aI7626
aI7853
aI8617
aI9543
aI10937
aI13137
aI13390
aI13894
aI15448
aI15558
aI19246
aI19761
aI20462
aI20839
aI21374
aI21422
aI22512
aI22672
aI22746
aI23466
aI24083
aI24272
aI24565
aI24856
asI147
(lp148
I1926
aI3358
aI4279
aI4557
aI4684
aI5323
aI5433
aI6044
aI7497
aI7719
aI7797
aI8038
aI8506
aI8531
aI9742
aI9806
aI9914
aI10388
aI10513
aI11709
aI12048
aI12286
aI12540
aI12930
aI13099
aI13534
aI13819
aI13852
aI14110
aI14713
aI14953
aI15337
aI15479
aI15622
aI15868
aI15904
aI15925
aI16537
aI16562
aI16633
aI17000
aI17670
aI17797
aI17809
aI19530
aI19772
aI20182
aI21006
aI21150
aI22389
aI22552
aI24125
aI24162
aI24578
aI24598
aI24808
asI148
(lp149
I474
aI2320
aI2519
aI2735
aI3164
aI3327
aI3553
aI3826
aI4938
aI5291
aI5734
aI6603
aI6916
aI7037
aI7055
aI8852
aI9259
aI9346
aI9498
aI10163
aI10408
aI10966
aI11226
aI12541
aI13859
aI13946
aI15802
aI16231
aI16506
aI16716
aI17480
aI17955
aI20260
aI20265
aI20598
aI20820
aI20909
aI20999
aI21515
aI21787
aI22692
aI24009
aI24090
aI24393
aI24415
aI24885
asI149
(lp150
I1876
aI2147
aI2579
aI3142
aI5196
aI5456
aI5985
aI6257
aI6427
aI7217
aI7225
aI7828
aI9272
aI9803
aI10883
aI11178
aI11456
aI11754
aI11799
aI11963
aI12100
aI12124
aI12673
aI13671
aI15165
aI15212
aI15243
aI15423
aI15703
aI15729
aI16129
aI16648
aI17565
aI17676
aI18039
aI18320
aI20049
aI20953
aI21140
aI21546
aI21986
aI23721
aI24335
asI150
(lp151
I662
aI742
aI818
aI2640
aI2656
aI3015
aI3876
aI4203
aI6970
aI7003
aI7150
aI7500
aI7813
aI8168
aI8317
aI8500
aI8530
aI8679
aI9025
aI9222
aI9949
aI9955
aI10758
aI11093
aI11847
aI12131
aI12181
aI13594
aI13735
aI14165
aI14184
aI15856
aI15970
aI16476
aI16511
aI18960
aI21726
aI22074
aI22845
aI22893
aI23276
aI23372
aI24334
aI24445
aI24883
asI151
(lp152
I489
aI775
aI1546
aI2205
aI3112
aI3144
aI3526
aI3774
aI4124
aI4770
aI5045
aI5605
aI6110
aI6262
aI6843
aI7165
aI7175
aI7554
aI7691
aI7905
aI8269
aI8281
aI10804
aI12335
aI13667
aI15504
aI19586
aI20140
aI20780
aI21720
aI22529
aI24017
aI24364
aI24454
asI152
(lp153
I650
aI898
aI1490
aI1744
aI2054
aI3284
aI3476
aI3698
aI3699
aI4405
aI5120
aI5945
aI6776
aI6857
aI7083
aI8090
aI8131
aI9613
aI9705
aI10080
aI10402
aI11301
aI11355
aI11500
aI11699
aI12262
aI12544
aI13015
aI13096
aI13375
aI13418
aI13651
aI14198
aI15775
aI15971
aI16647
aI16790
aI17334
aI17435
aI17521
aI18357
aI18438
aI18459
aI18738
aI18748
aI18758
aI19824
aI19831
aI20048
aI20732
aI20735
aI21274
aI21805
aI22213
aI22408
aI22854
aI23218
aI23294
aI24377
asI153
(lp154
I80
aI819
aI1879
aI2333
aI3175
aI3440
aI3567
aI3690
aI4241
aI4464
aI7412
aI8160
aI8599
aI9749
aI10610
aI11078
aI11283
aI11518
aI12911
aI12977
aI13156
aI15080
aI15334
aI16807
aI17338
aI17511
aI18345
aI18902
aI19433
aI19875
aI20338
aI21428
aI23366
aI24126
aI24333
aI24416
aI24967
asI154
(lp155
I385
aI560
aI1442
aI2231
aI2567
aI3352
aI3507
aI3972
aI7433
aI7602
aI9079
aI11319
aI11496
aI12853
aI13266
aI13518
aI15321
aI16022
aI17015
aI17589
aI19080
aI19355
aI19421
aI19643
aI20351
aI20637
aI22530
aI22630
aI22732
aI23706
aI23868
asI155
(lp156
I717
aI3029
aI3334
aI3513
aI3588
aI4155
aI5027
aI5857
aI6864
aI7688
aI7717
aI8529
aI8660
aI11377
aI12813
aI14528
aI14540
aI16915
aI17138
aI17765
aI17824
aI18261
aI19145
aI19249
aI21023
aI21645
aI22921
aI23088
aI24665
asI156
(lp157
I245
aI317
aI379
aI2967
aI4575
aI4653
aI5301
aI5714
aI6181
aI6187
aI6286
aI6425
aI10062
aI13722
aI13762
aI14785
aI14940
aI16095
aI16201
aI16251
aI16741
aI17714
aI17836
aI18556
aI19437
aI19853
aI20567
aI20704
aI21047
aI21401
aI22397
aI23261
aI23841
aI24355
asI157
(lp158
I326
aI991
aI1831
aI2141
aI2564
aI3111
aI3120
aI4013
aI6198
aI6256
aI6539
aI7205
aI8019
aI8472
aI9644
aI9872
aI10164
aI10839
aI11326
aI12230
aI12406
aI13306
aI13541
aI13904
aI14541
aI16880
aI17280
aI18086
aI18165
aI18525
aI18712
aI19954
aI20156
aI20646
aI21652
aI21806
aI22067
aI23028
aI23125
aI23513
aI23924
aI24986
asI158
(lp159
I1068
aI1700
aI3665
aI4507
aI5445
aI5609
aI6191
aI6812
aI9215
aI9400
aI11455
aI11579
aI12699
aI12808
aI13899
aI14204
aI14592
aI15447
aI15747
aI18310
aI18431
aI18868
aI20166
aI20359
aI20733
aI20773
aI21593
aI24532
aI24841
asI159
(lp160
I850
aI2392
aI2488
aI3176
aI3197
aI4009
aI4453
aI4623
aI4700
aI4976
aI5320
aI5867
aI5914
aI6918
aI7375
aI8149
aI11230
aI12047
aI12195
aI13725
aI16179
aI17698
aI17701
aI18287
aI18361
aI18428
aI19342
aI19576
aI24030
aI24483
asI160
(lp161
I132
aI254
aI2553
aI3316
aI3682
aI3870
aI4889
aI4998
aI5153
aI5648
aI6896
aI7350
aI7398
aI7820
aI8563
aI9415
aI9493
aI9612
aI10072
aI10222
aI10579
aI13917
aI13957
aI15203
aI15545
aI15902
aI16975
aI17116
aI17608
aI18023
aI18905
aI19450
aI19504
aI19922
aI20342
aI21055
aI21937
aI22446
aI24727
asI161
(lp162
I1556
aI1732
aI2815
aI3061
aI3165
aI3608
aI3651
aI3792
aI4277
aI4742
aI5082
aI5746
aI6328
aI8044
aI8057
aI8240
aI8816
aI9496
aI9574
aI9583
aI10462
aI10741
aI11560
aI12510
aI12533
aI13200
aI13788
aI15451
aI15704
aI15738
aI15873
aI17545
aI18146
aI19085
aI20044
aI21146
aI21172
aI23619
aI23636
aI24031
aI24072
aI24326
aI24851
asI162
(lp163
I51
aI426
aI572
aI1810
aI3666
aI4076
aI4457
aI4640
aI4739
aI4969
aI5294
aI6867
aI6892
aI7511
aI7581
aI8370
aI10006
aI10456
aI10692
aI11363
aI11568
aI11915
aI12436
aI12821
aI13142
aI13405
aI13499
aI14851
aI14914
aI15274
aI15507
aI18137
aI18460
aI19042
aI20241
aI20412
aI21133
aI21830
aI21887
aI22817
aI23060
aI23273
aI23897
aI23928
aI24051
aI24413
asI163
(lp164
I1011
aI1117
aI2907
aI3650
aI5176
aI5184
aI7678
aI8613
aI8644
aI8875
aI8987
aI9690
aI9707
aI11224
aI11303
aI11672
aI11704
aI11802
aI12093
aI12186
aI12396
aI13258
aI14902
aI15398
aI15467
aI15812
aI17213
aI18120
aI18567
aI20334
aI20597
aI21514
aI22357
aI22961
aI23800
aI24331
aI24363
asI164
(lp165
I406
aI885
aI1243
aI1881
aI2758
aI3725
aI3785
aI4160
aI4332
aI5217
aI6297
aI7075
aI7230
aI7417
aI7895
aI7999
aI8103
aI8161
aI8562
aI9433
aI9523
aI9859
aI10640
aI11072
aI11294
aI12173
aI12199
aI12792
aI13757
aI14350
aI14641
aI15023
aI15061
aI15886
aI16688
aI17133
aI17853
aI18180
aI18333
aI18503
aI19219
aI19720
aI21641
asI165
(lp166
I1249
aI1843
aI2107
aI3577
aI3727
aI4838
aI6339
aI6435
aI7206
aI7345
aI7371
aI7761
aI9129
aI10324
aI10413
aI11018
aI13360
aI13525
aI14335
aI14511
aI15566
aI16123
aI16173
aI18153
aI18530
aI20722
aI21331
aI21633
aI24165
aI24887
asI166
(lp167
I79
aI363
aI468
aI525
aI541
aI817
aI1550
aI1718
aI1813
aI2006
aI2199
aI2445
aI2982
aI4130
aI4131
aI4227
aI4380
aI4560
aI5125
aI6192
aI6263
aI6614
aI6705
aI6759
aI7469
aI7971
aI10702
aI11668
aI12331
aI13295
aI13368
aI15135
aI15370
aI15786
aI15994
aI16489
aI16662
aI17610
aI17922
aI19707
aI20158
aI21387
aI21505
aI22718
aI24450
asI167
(lp168
I479
aI1836
aI4073
aI4230
aI5389
aI5720
aI6868
aI7121
aI8648
aI9197
aI11098
aI11100
aI11443
aI11532
aI11534
aI11792
aI12012
aI12624
aI13399
aI14448
aI17725
aI19358
aI20292
aI24602
asI168
(lp169
I862
aI1256
aI2045
aI2501
aI2717
aI2801
aI3484
aI4492
aI5041
aI5936
aI7004
aI7282
aI7410
aI7453
aI8230
aI8645
aI9103
aI9165
aI9258
aI11641
aI11825
aI12520
aI13051
aI13105
aI13262
aI13719
aI14485
aI14854
aI14864
aI15221
aI17582
aI17651
aI17742
aI18332
aI19364
aI19624
aI20196
aI20631
aI21017
aI22040
aI22151
aI22452
aI23038
aI23470
aI23525
aI23611
aI23756
asI169
(lp170
I1012
aI1320
aI2106
aI2131
aI3320
aI3836
aI4070
aI4699
aI5134
aI5144
aI6477
aI6502
aI7757
aI8206
aI9124
aI11241
aI11431
aI12288
aI13825
aI14243
aI14756
aI15038
aI19046
aI20755
aI21208
aI21226
aI22621
aI23017
aI23362
aI23911
asI170
(lp171
I64
aI822
aI1674
aI3246
aI3263
aI3373
aI3686
aI3786
aI5162
aI5261
aI5555
aI5928
aI6002
aI6235
aI6987
aI7208
aI8083
aI8470
aI10651
aI11930
aI11933
aI12157
aI13001
aI13153
aI13971
aI14883
aI15436
aI15612
aI15642
aI15707
aI16166
aI17592
aI18886
aI19809
aI19965
aI21458
aI21560
aI21730
aI23397
asI171
(lp172
I420
aI807
aI917
aI2759
aI2804
aI5094
aI5233
aI5587
aI5916
aI7615
aI8110
aI8717
aI8722
aI9104
aI9348
aI9500
aI10432
aI10536
aI12142
aI13940
aI14779
aI15008
aI15837
aI16118
aI16157
aI16341
aI16590
aI16614
aI17684
aI18502
aI19895
aI20161
aI21161
aI21440
aI22266
aI23223
aI23330
aI23842
aI24699
asI172
(lp173
I102
aI319
aI425
aI965
aI3212
aI3769
aI4535
aI5066
aI5298
aI5629
aI5654
aI5971
aI6228
aI7973
aI8040
aI8172
aI9665
aI10674
aI11947
aI12320
aI12394
aI12613
aI14081
aI14242
aI14320
aI14481
aI15552
aI16607
aI16689
aI17432
aI18140
aI18186
aI19222
aI19593
aI20857
aI21382
aI21443
aI22060
aI23108
aI23167
aI24981
asI173
(lp174
I739
aI882
aI2241
aI3071
aI4238
aI6247
aI8254
aI9628
aI9917
aI12517
aI13756
aI13824
aI14323
aI14704
aI15848
aI15862
aI16678
aI16738
aI18070
aI18461
aI19798
aI20365
aI20703
aI21931
aI22263
aI23201
asI174
(lp175
I1148
aI1227
aI1563
aI2188
aI2627
aI3041
aI3740
aI4004
aI4354
aI4374
aI4402
aI4816
aI5171
aI5743
aI6803
aI7327
aI8141
aI9553
aI10605
aI11829
aI12554
aI12878
aI14169
aI14504
aI14994
aI15419
aI15794
aI15838
aI16273
aI16934
aI16980
aI17233
aI18129
aI18899
aI18962
aI19155
aI19518
aI20500
aI21109
aI21479
aI21553
aI22649
aI23184
aI23291
aI23712
asI175
(lp176
I356
aI1582
aI1783
aI1907
aI1936
aI2516
aI2561
aI3114
aI3443
aI5479
aI5503
aI5784
aI6238
aI7400
aI8010
aI9018
aI9936
aI10467
aI13661
aI13730
aI15968
aI16653
aI16788
aI16822
aI16889
aI17199
aI17593
aI18806
aI19266
aI19495
aI20405
aI21016
aI21201
aI21444
aI22315
aI23093
aI23225
aI23277
asI176
(lp177
I792
aI3076
aI3146
aI4574
aI4583
aI5724
aI5935
aI6038
aI6565
aI7242
aI7253
aI8003
aI8287
aI10636
aI10787
aI11480
aI12491
aI13058
aI13086
aI14034
aI15914
aI16450
aI17619
aI17658
aI17867
aI18924
aI19323
aI19337
aI19821
aI22461
aI23141
aI24033
aI24434
asI177
(lp178
I3194
aI3618
aI4022
aI4455
aI4767
aI4927
aI6149
aI9471
aI10299
aI10833
aI11245
aI12008
aI12587
aI13072
aI13222
aI13900
aI14080
aI16085
aI18029
aI19105
aI19537
aI19662
aI20414
aI21292
aI21732
aI21960
aI22117
aI23537
aI24321
asI178
(lp179
I536
aI2130
aI3057
aI4069
aI4209
aI8693
aI10241
aI10608
aI11572
aI11588
aI11611
aI11730
aI11887
aI12275
aI13297
aI13612
aI14693
aI15343
aI17405
aI19187
aI19301
aI20503
aI20544
aI21009
aI22147
aI22570
aI22890
aI24640
asI179
(lp180
I1596
aI2329
aI3421
aI3770
aI3935
aI4817
aI5510
aI5842
aI6528
aI7044
aI7383
aI7463
aI7612
aI7804
aI8810
aI8823
aI9296
aI9901
aI10367
aI11406
aI12524
aI13857
aI14633
aI15217
aI15593
aI16210
aI16709
aI17436
aI17843
aI18626
aI18997
aI19049
aI19867
aI20143
aI21781
aI21974
aI22775
aI22944
aI23214
aI23640
aI24780
aI24862
asI180
(lp181
I589
aI3170
aI3960
aI4584
aI7309
aI8366
aI9218
aI9429
aI10014
aI11167
aI13106
aI13549
aI13956
aI14111
aI15166
aI15691
aI15815
aI18281
aI18576
aI19526
aI20100
aI20385
aI21431
aI24152
aI24239
aI24293
aI24742
asI181
(lp182
I69
aI768
aI1051
aI1194
aI1225
aI1301
aI2025
aI2195
aI2247
aI2457
aI2972
aI3319
aI3495
aI4248
aI4754
aI4869
aI4979
aI5038
aI5685
aI5889
aI7113
aI7346
aI7425
aI7708
aI9026
aI10046
aI10203
aI10992
aI11311
aI11939
aI13546
aI13616
aI14136
aI14337
aI14346
aI14966
aI15100
aI15384
aI15932
aI16028
aI16069
aI16893
aI17544
aI17897
aI18674
aI18937
aI19418
aI21357
aI23257
aI23758
aI23873
aI24590
asI182
(lp183
I632
aI880
aI1001
aI1288
aI1751
aI2413
aI2752
aI3290
aI4670
aI6244
aI7216
aI10223
aI10809
aI12502
aI15037
aI16253
aI16330
aI16350
aI16551
aI16791
aI17272
aI17691
aI18265
aI18584
aI20536
aI21144
aI21533
aI21840
aI21989
aI22584
aI23766
aI23799
aI24410
aI24899
asI183
(lp184
I443
aI778
aI1484
aI1689
aI1711
aI1769
aI1807
aI1817
aI1980
aI1996
aI2215
aI2712
aI2866
aI3819
aI3913
aI5739
aI5785
aI6608
aI7147
aI8357
aI10340
aI10618
aI12404
aI12499
aI13195
aI13207
aI13489
aI13665
aI14494
aI16726
aI17586
aI18507
aI20188
aI20576
aI21409
aI22007
aI22018
aI22360
aI22414
aI22510
aI23264
aI23444
aI24728
aI24838
asI184
(lp185
I38
aI42
aI1016
aI1811
aI1951
aI3742
aI4368
aI4796
aI5151
aI5637
aI5882
aI6503
aI7024
aI7198
aI7302
aI7339
aI7451
aI7998
aI9291
aI9324
aI9814
aI9923
aI10100
aI10234
aI11185
aI13282
aI13328
aI13802
aI13874
aI14023
aI14208
aI14260
aI14462
aI14571
aI15453
aI15688
aI16064
aI16544
aI16761
aI16970
aI17035
aI17570
aI17920
aI18554
aI18653
aI19277
aI19339
aI19775
aI19877
aI20834
aI20959
aI21881
aI22348
aI22536
aI23669
aI24760
aI24897
asI185
(lp186
I498
aI1587
aI1894
aI1975
aI2718
aI3052
aI3455
aI3636
aI4831
aI5044
aI5182
aI5607
aI5946
aI5963
aI6417
aI8622
aI8876
aI9815
aI13077
aI13121
aI13800
aI13981
aI14030
aI14067
aI14388
aI15006
aI15573
aI15623
aI15792
aI16959
aI17752
aI17979
aI18069
aI19618
aI20410
aI20478
aI20483
aI20568
aI20580
aI20603
aI21327
aI21447
aI21861
aI22206
aI22347
aI22349
aI22435
aI22913
aI24071
aI24536
aI24576
aI24747
asI186
(lp187
I309
aI543
aI1661
aI1726
aI1816
aI1839
aI2108
aI2167
aI2998
aI3797
aI4211
aI4256
aI4432
aI4720
aI5359
aI6653
aI8399
aI9046
aI10644
aI11126
aI11213
aI11360
aI11816
aI12125
aI12303
aI12656
aI13024
aI14137
aI14370
aI14913
aI15976
aI16363
aI17001
aI17299
aI17530
aI20000
aI20774
aI21632
aI23290
aI24001
aI24021
aI24310
aI24816
aI24930
asI187
(lp188
I177
aI451
aI476
aI634
aI2599
aI2611
aI2622
aI3201
aI3473
aI4289
aI4423
aI4879
aI5504
aI5622
aI6772
aI8398
aI8680
aI9093
aI9624
aI10281
aI10296
aI10523
aI10534
aI11038
aI11266
aI12490
aI12935
aI12991
aI14190
aI14651
aI14696
aI14733
aI14805
aI17097
aI17381
aI17679
aI17957
aI18127
aI18491
aI18757
aI19456
aI20409
aI20776
aI21010
aI21246
aI21611
aI21771
aI21941
aI22167
aI22177
aI22346
aI22393
aI22444
aI22600
aI22645
aI22816
aI23378
aI23484
aI23606
aI23774
aI24014
aI24093
aI24338
aI24581
aI24625
aI24980
asI188
(lp189
I412
aI758
aI1837
aI2086
aI2535
aI2570
aI2931
aI3998
aI4758
aI5140
aI8325
aI9310
aI9362
aI9540
aI9614
aI10330
aI10354
aI10641
aI10703
aI10984
aI11023
aI11173
aI11427
aI12082
aI12674
aI13550
aI13639
aI13795
aI14334
aI15818
aI15972
aI17260
aI17472
aI17487
aI18006
aI18051
aI18053
aI18190
aI18321
aI19385
aI20269
aI20816
aI20948
aI23296
aI23602
asI189
(lp190
I45
aI653
aI1662
aI1895
aI2428
aI2689
aI2803
aI3644
aI4571
aI5791
aI6854
aI6949
aI7046
aI7219
aI8166
aI8377
aI8395
aI9322
aI9377
aI9671
aI9695
aI10034
aI10835
aI11040
aI11281
aI13817
aI14499
aI15410
aI16764
aI16803
aI17110
aI17668
aI18543
aI18947
aI19983
aI20983
aI22233
aI22866
aI23684
aI23694
aI24174
asI190
(lp191
I228
aI2490
aI4015
aI4555
aI5089
aI5686
aI5871
aI6507
aI6876
aI6920
aI7246
aI7591
aI7675
aI8445
aI8802
aI10044
aI10316
aI11583
aI11708
aI12308
aI12453
aI13114
aI13407
aI14001
aI14118
aI15197
aI19565
aI20093
aI20176
aI20381
aI20476
aI21334
aI22769
aI23010
aI23503
aI24110
aI24311
asI191
(lp192
I229
aI981
aI1583
aI5295
aI8439
aI8710
aI10314
aI10509
aI10742
aI11527
aI11753
aI11823
aI11854
aI12052
aI12414
aI14557
aI15521
aI16207
aI16266
aI17564
aI17659
aI18262
aI19150
aI19553
aI20017
aI21650
aI22081
aI24652
asI192
(lp193
I35
aI521
aI1058
aI3101
aI3992
aI5716
aI5923
aI6208
aI6895
aI7529
aI7855
aI8716
aI9196
aI13529
aI14517
aI14915
aI15490
aI15520
aI15940
aI16262
aI18228
aI18735
aI19108
aI19722
aI19746
aI20841
aI21340
aI21818
aI24465
asI193
(lp194
I87
aI1330
aI1523
aI1577
aI2652
aI2653
aI3289
aI3303
aI3775
aI5276
aI5994
aI6414
aI6467
aI6693
aI8311
aI8878
aI9056
aI9499
aI9840
aI9861
aI10001
aI10094
aI11031
aI11141
aI11979
aI11980
aI12203
aI12274
aI12483
aI12668
aI13189
aI13372
aI14044
aI14503
aI14537
aI15652
aI16313
aI17065
aI17356
aI17452
aI18145
aI21135
aI21509
aI22688
aI23403
aI23550
aI23597
aI23923
aI23986
aI24340
aI24521
asI194
(lp195
I448
aI923
aI1437
aI1713
aI3226
aI3569
aI4264
aI5310
aI5665
aI6825
aI8002
aI8811
aI8945
aI11703
aI11764
aI12512
aI12690
aI13958
aI14690
aI16040
aI16140
aI16620
aI17428
aI17602
aI18394
aI19319
aI19341
aI19943
aI21027
aI21653
aI22839
asI195
(lp196
I330
aI332
aI962
aI1516
aI1904
aI3162
aI3739
aI6274
aI6879
aI7485
aI8016
aI8968
aI11269
aI12278
aI13194
aI13420
aI14691
aI15136
aI15954
aI16030
aI16111
aI16701
aI17425
aI18471
aI20226
aI20299
aI21102
aI22285
aI23644
aI24105
aI24372
aI24675
aI24786
asI196
(lp197
I704
aI1511
aI1760
aI3479
aI3705
aI5101
aI5225
aI7310
aI7555
aI7765
aI8098
aI9877
aI10238
aI11634
aI12597
aI12843
aI13927
aI13930
aI14122
aI14221
aI14708
aI14957
aI15482
aI15733
aI17876
aI19866
aI20106
aI20859
aI20896
aI21145
aI22411
aI23056
aI23512
aI24328
asI197
(lp198
I238
aI1380
aI1580
aI1638
aI2442
aI2649
aI2673
aI2703
aI2874
aI3581
aI4094
aI5088
aI6034
aI6126
aI6725
aI7172
aI7865
aI8653
aI10043
aI10309
aI10562
aI10785
aI10971
aI11721
aI12741
aI12845
aI12968
aI14014
aI14458
aI14852
aI15161
aI15777
aI16316
aI16410
aI16436
aI16943
aI17056
aI17362
aI18641
aI19629
aI19708
aI20347
aI21119
aI21343
aI22259
aI23209
aI23254
aI24650
asI198
(lp199
I25
aI855
aI1119
aI1160
aI1669
aI1722
aI1778
aI2283
aI4428
aI6109
aI6212
aI6999
aI7418
aI7628
aI10637
aI10735
aI12393
aI14094
aI14340
aI14597
aI14954
aI15568
aI16456
aI18283
aI19050
aI19335
aI21628
aI22498
aI22598
aI22736
aI23904
asI199
(lp200
I692
aI978
aI1346
aI2886
aI3726
aI4931
aI5494
aI5614
aI6911
aI7276
aI7493
aI10025
aI10852
aI11937
aI12605
aI13343
aI13574
aI16065
aI16346
aI16602
aI17524
aI17621
aI18104
aI18647
aI18780
aI19198
aI20461
aI21724
aI22236
aI22889
aI23263
aI23860
aI24452
aI24945
asI200
(lp201
I219
aI570
aI1102
aI1782
aI2876
aI3485
aI3911
aI4301
aI7011
aI7659
aI7923
aI8596
aI8689
aI8884
aI9326
aI9358
aI9442
aI10356
aI10528
aI10990
aI11706
aI12003
aI12377
aI12447
aI12465
aI12700
aI13443
aI13923
aI13986
aI15475
aI15524
aI15630
aI15811
aI18112
aI18480
aI19245
aI19559
aI20110
aI20432
aI20606
aI22739
aI24076
aI24626
aI24729
aI24767
asI201
(lp202
I3512
aI4864
aI5132
aI5227
aI5549
aI5863
aI6344
aI7107
aI7477
aI7613
aI8204
aI8250
aI8271
aI8453
aI8795
aI8819
aI9375
aI10005
aI11175
aI11276
aI12631
aI13733
aI13777
aI14189
aI14359
aI14612
aI14757
aI15753
aI16434
aI16518
aI16524
aI17751
aI18038
aI18133
aI19485
aI19693
aI19737
aI20406
aI20469
aI21219
aI21472
aI24523
aI24765
asI202
(lp203
I690
aI1069
aI1865
aI2757
aI3382
aI4369
aI4563
aI6007
aI6180
aI7033
aI8570
aI9595
aI10686
aI12097
aI12359
aI13507
aI14549
aI14777
aI15668
aI16154
aI16196
aI16343
aI16681
aI16859
aI16899
aI17440
aI18885
aI22620
aI23722
aI24495
aI24878
asI203
(lp204
I90
aI252
aI340
aI678
aI2121
aI2389
aI2787
aI2833
aI3640
aI4041
aI4077
aI4605
aI4775
aI4875
aI6361
aI6469
aI7151
aI7179
aI7317
aI9701
aI9724
aI9857
aI10364
aI13731
aI13993
aI14520
aI14645
aI16156
aI17047
aI17439
aI17587
aI17909
aI18233
aI18720
aI18926
aI19193
aI19239
aI19307
aI19344
aI20443
aI20926
aI21468
aI21790
aI21794
aI23048
aI23175
aI23300
aI23391
aI23656
aI24253
aI24724
asI204
(lp205
I613
aI1671
aI1992
aI2916
aI2999
aI3154
aI3748
aI5483
aI5530
aI5633
aI5693
aI5962
aI6056
aI6220
aI6774
aI7397
aI8415
aI8623
aI8815
aI9169
aI9284
aI10032
aI10168
aI10728
aI11162
aI12185
aI12407
aI12901
aI13291
aI13704
aI13881
aI15650
aI16053
aI16640
aI16832
aI17327
aI18736
aI19935
aI20013
aI20116
aI20877
aI21709
aI21807
aI24529
aI24750
asI205
(lp206
I344
aI2823
aI2885
aI2983
aI4599
aI4819
aI5751
aI5854
aI5991
aI6440
aI7035
aI7930
aI8889
aI9244
aI10493
aI10688
aI10952
aI11037
aI11386
aI11654
aI12297
aI12997
aI13033
aI13038
aI15952
aI16009
aI16056
aI16452
aI16734
aI16890
aI17401
aI18144
aI18833
aI18973
aI19431
aI20970
aI22321
aI22350
aI22486
aI22967
aI23281
aI24639
asI206
(lp207
I1248
aI1481
aI2415
aI2639
aI3147
aI3566
aI3755
aI6865
aI7117
aI7843
aI7941
aI8616
aI9432
aI9637
aI9874
aI10410
aI12485
aI13085
aI14399
aI14515
aI14900
aI15194
aI15460
aI15852
aI15866
aI16846
aI18175
aI18732
aI20212
aI20610
aI20929
aI20952
aI21117
aI21888
aI24148
aI24741
aI24788
asI207
(lp208
I745
aI1028
aI1224
aI1416
aI3563
aI3986
aI4162
aI5387
aI6086
aI6194
aI6758
aI6815
aI7911
aI8473
aI8618
aI8942
aI9640
aI15105
aI15404
aI16323
aI17123
aI17295
aI18513
aI18631
aI18914
aI19758
aI19788
aI20420
aI20474
aI20572
aI21054
aI22088
aI22522
aI22644
aI23551
aI23872
aI24836
aI24915
asI208
(lp209
I15
aI416
aI511
aI964
aI1815
aI3310
aI3330
aI5000
aI5079
aI5659
aI8185
aI8518
aI11295
aI12525
aI13397
aI13988
aI14923
aI15751
aI17308
aI17646
aI18387
aI18663
aI19148
aI19218
aI19329
aI20479
aI20908
aI21087
aI21329
aI21793
aI22112
aI22245
asI209
(lp210
I1326
aI1806
aI2929
aI4594
aI5406
aI6068
aI6152
aI7039
aI7074
aI7541
aI7699
aI8047
aI8471
aI9304
aI9893
aI10275
aI11789
aI13260
aI15265
aI15649
aI16124
aI16136
aI16375
aI17111
aI17552
aI18452
aI18691
aI19690
aI20129
aI20538
aI21402
aI21886
aI22161
aI23344
aI23396
aI23847
aI24163
asI210
(lp211
I706
aI2008
aI2042
aI2081
aI2917
aI3069
aI3617
aI3663
aI4832
aI5222
aI5853
aI6548
aI6728
aI7312
aI8146
aI8994
aI9007
aI9161
aI9279
aI9504
aI10154
aI10477
aI10501
aI10737
aI11453
aI11687
aI11882
aI12470
aI12983
aI13505
aI13944
aI14878
aI15190
aI15773
aI16641
aI17275
aI17430
aI17694
aI17870
aI17894
aI18266
aI20214
aI20256
aI20645
aI22868
aI23124
aI23127
aI23467
aI23851
aI23874
aI24580
aI24613
asI211
(lp212
I31
aI144
aI691
aI1002
aI3335
aI4134
aI4192
aI4996
aI5740
aI6826
aI7530
aI8231
aI9207
aI9352
aI9488
aI11082
aI11352
aI11539
aI11629
aI11916
aI12309
aI12417
aI12494
aI13068
aI14059
aI14742
aI14987
aI15411
aI15462
aI15515
aI15540
aI16542
aI16561
aI18301
aI18458
aI19237
aI19777
aI19887
aI20324
aI20638
aI22050
aI22494
aI22564
aI24383
aI24474
aI24798
asI212
(lp213
I83
aI926
aI1082
aI1303
aI1723
aI1767
aI2596
aI2848
aI2948
aI5824
aI7053
aI7393
aI7819
aI9062
aI9085
aI9274
aI9863
aI10632
aI11732
aI13132
aI13389
aI14599
aI15431
aI15546
aI16776
aI17074
aI18016
aI18772
aI18964
aI19376
aI21407
aI21667
aI21985
aI22573
aI22735
aI23759
aI24028
asI213
(lp214
I909
aI2050
aI2252
aI2282
aI2483
aI2576
aI2691
aI3169
aI3210
aI3802
aI4000
aI4027
aI7405
aI8130
aI8353
aI10232
aI10722
aI10853
aI11605
aI14508
aI14816
aI15300
aI15468
aI15759
aI16299
aI16437
aI16646
aI16916
aI17020
aI18859
aI19247
aI19764
aI20711
aI20785
aI21534
aI22046
aI24006
asI214
(lp215
I1026
aI1217
aI2557
aI2824
aI2857
aI2970
aI3879
aI5259
aI6024
aI7648
aI8996
aI9188
aI9538
aI9648
aI10298
aI10502
aI11521
aI11609
aI11889
aI12015
aI13045
aI13384
aI14314
aI14529
aI14917
aI15677
aI16739
aI16749
aI19235
aI21736
aI22069
aI22513
aI22957
aI23138
aI24932
asI215
(lp216
I172
aI1161
aI2084
aI2438
aI3472
aI3729
aI4465
aI4886
aI5577
aI6421
aI6881
aI7159
aI7614
aI7983
aI9948
aI11765
aI12235
aI12344
aI12448
aI12858
aI15380
aI16502
aI18249
aI18946
aI19558
aI20066
aI20090
aI20643
aI21065
aI21320
aI22235
aI22814
aI22858
aI23899
aI23934
aI24631
asI216
(lp217
I2593
aI4240
aI4267
aI4740
aI6408
aI7758
aI7932
aI8624
aI9236
aI9357
aI9615
aI9779
aI9834
aI11005
aI11608
aI11828
aI11885
aI12425
aI13224
aI13602
aI14920
aI15347
aI16384
aI16609
aI16658
aI19006
aI19578
aI19988
aI21482
aI22340
aI22842
aI23295
aI23433
aI24066
aI24353
asI217
(lp218
I847
aI1948
aI2513
aI4802
aI6446
aI6483
aI7994
aI10554
aI10603
aI10706
aI13627
aI14154
aI14780
aI14932
aI15043
aI15987
aI17352
aI19610
aI19948
aI20814
aI22296
aI22480
aI22968
aI23253
aI23340
aI23474
aI24422
asI218
(lp219
I380
aI1667
aI3121
aI3343
aI3366
aI3629
aI4116
aI5114
aI7598
aI8257
aI11109
aI11733
aI11790
aI12143
aI12215
aI12265
aI12383
aI13347
aI13485
aI14035
aI15285
aI17166
aI17796
aI18344
aI20447
aI21121
aI21841
aI24440
asI219
(lp220
I1688
aI1966
aI1970
aI4808
aI5843
aI6633
aI7142
aI7448
aI7715
aI7927
aI8050
aI8246
aI8979
aI10374
aI11242
aI13640
aI13714
aI14952
aI16988
aI17120
aI18224
aI18449
aI18494
aI18778
aI19399
aI19668
aI20441
aI21742
aI21798
aI22430
aI22670
aI23985
aI24799
asI220
(lp221
I108
aI796
aI1452
aI3333
aI3532
aI3973
aI4433
aI5377
aI5628
aI5865
aI6743
aI7209
aI7432
aI8516
aI8909
aI8992
aI9489
aI10266
aI10307
aI10334
aI10404
aI10996
aI11439
aI11893
aI12452
aI14239
aI14569
aI14894
aI15091
aI15298
aI15949
aI16248
aI16581
aI16931
aI17163
aI18176
aI18223
aI19637
aI19915
aI20724
aI21308
aI21556
aI21692
aI22193
aI22947
aI23361
aI23704
aI24267
aI24653
aI24978
asI221
(lp222
I323
aI656
aI1167
aI1314
aI1889
aI4138
aI4656
aI4941
aI4962
aI5930
aI5950
aI6862
aI7800
aI8122
aI8384
aI8682
aI8687
aI8727
aI11508
aI11843
aI12319
aI13866
aI13977
aI14010
aI14441
aI15014
aI15660
aI15935
aI16193
aI17692
aI18063
aI18282
aI18308
aI19000
aI19090
aI19968
aI20307
aI21049
aI21760
aI23572
aI23608
aI24206
aI24533
aI24796
asI222
(lp223
I127
aI1790
aI1947
aI2002
aI2309
aI3313
aI3318
aI4191
aI7287
aI8091
aI8430
aI8455
aI9748
aI9862
aI9888
aI11172
aI13272
aI13473
aI13637
aI14230
aI15581
aI15618
aI15779
aI16948
aI18170
aI18695
aI18948
aI19782
aI19981
aI20352
aI21584
aI21586
aI21592
aI22100
aI22289
aI22981
aI23001
aI23129
aI23458
asI223
(lp224
I322
aI405
aI790
aI1366
aI1756
aI2515
aI2784
aI3095
aI3178
aI3515
aI4534
aI4718
aI6937
aI8306
aI9002
aI11010
aI11382
aI11409
aI14155
aI14723
aI15180
aI16671
aI16799
aI16992
aI17451
aI18258
aI18630
aI20293
aI21216
aI21990
aI23163
aI23657
aI23864
aI24070
asI224
(lp225
I201
aI711
aI2604
aI3034
aI3575
aI4325
aI5113
aI5879
aI6345
aI6699
aI7442
aI9503
aI10599
aI10926
aI11196
aI11428
aI11819
aI11984
aI13089
aI14074
aI15757
aI17046
aI17298
aI17559
aI18328
aI18980
aI19241
aI20266
aI20456
aI20458
aI20592
aI20630
aI20862
aI21740
aI22099
aI22230
aI22399
aI22653
aI23455
aI23748
aI24348
aI24777
asI225
(lp226
I453
aI1013
aI1076
aI1592
aI1965
aI2030
aI2358
aI2737
aI3818
aI4709
aI5126
aI5977
aI6250
aI6400
aI6491
aI7196
aI7244
aI8300
aI8788
aI10760
aI10775
aI12590
aI13167
aI13790
aI14374
aI15085
aI15189
aI15371
aI15378
aI15489
aI16133
aI16291
aI17906
aI17939
aI18473
aI18741
aI19264
aI19412
aI19813
aI21191
aI21199
aI22351
aI22469
aI23574
aI24544
asI226
(lp227
I19
aI59
aI3008
aI4782
aI5056
aI5085
aI5240
aI6574
aI6644
aI6667
aI6904
aI7698
aI7752
aI7818
aI8138
aI8498
aI10178
aI10480
aI11140
aI11599
aI13686
aI14259
aI15013
aI15036
aI15823
aI16621
aI17181
aI17206
aI17320
aI17892
aI18164
aI18369
aI18925
aI19093
aI19547
aI20088
aI21359
aI21600
aI21912
aI22317
aI22926
aI24304
aI24910
asI227
(lp228
I9
aI316
aI900
aI2295
aI2507
aI2667
aI3090
aI3921
aI4550
aI5362
aI5449
aI6058
aI7108
aI7136
aI7281
aI8070
aI8124
aI8200
aI8207
aI8664
aI9166
aI9356
aI9368
aI9699
aI12182
aI13160
aI13929
aI14976
aI15643
aI16090
aI16224
aI16362
aI17498
aI18415
aI20987
aI21312
aI21997
aI22492
aI22523
aI22751
aI24557
asI228
(lp229
I158
aI794
aI1968
aI2099
aI2436
aI2906
aI3463
aI5818
aI6671
aI8025
aI8460
aI8647
aI9565
aI10897
aI12014
aI12381
aI12560
aI12984
aI13967
aI14052
aI16088
aI16252
aI17641
aI18539
aI19202
aI19901
aI20255
aI20449
aI21024
aI21036
aI21302
aI21625
aI21851
aI21908
aI21932
aI22061
aI22710
aI23599
aI23914
aI24406
asI229
(lp230
I434
aI636
aI1053
aI1229
aI1585
aI2335
aI3007
aI3419
aI4299
aI4386
aI6657
aI7115
aI7170
aI7873
aI7993
aI8006
aI8511
aI8752
aI8898
aI9201
aI9397
aI9770
aI9829
aI10970
aI10988
aI10991
aI11603
aI11663
aI13230
aI13789
aI13803
aI14622
aI14922
aI16849
aI17554
aI17615
aI18623
aI19123
aI20717
aI21823
aI21875
aI22304
aI22708
aI23807
aI23916
aI23989
aI24200
aI24476
aI24837
asI230
(lp231
I2314
aI2655
aI3242
aI3717
aI4147
aI4477
aI5826
aI8305
aI8839
aI10662
aI10680
aI11061
aI11592
aI11936
aI12328
aI13867
aI15834
aI16497
aI17311
aI17800
aI18359
aI18957
aI19419
aI20215
aI20691
aI22093
aI22272
aI22416
aI22499
aI22978
aI23053
aI24043
asI231
(lp232
I831
aI2022
aI2239
aI2533
aI3238
aI3851
aI3884
aI5131
aI5365
aI5978
aI6708
aI7054
aI7953
aI9729
aI10121
aI10720
aI11339
aI12266
aI12721
aI12826
aI14778
aI14967
aI15175
aI17913
aI18040
aI18277
aI18574
aI18733
aI19062
aI19818
aI19832
aI20223
aI21093
aI21968
aI23283
aI24368
aI24596
asI232
(lp233
I180
aI630
aI1342
aI1724
aI1930
aI2001
aI2390
aI2751
aI3137
aI3275
aI3291
aI3700
aI4249
aI5077
aI5244
aI5285
aI6781
aI6929
aI7190
aI8853
aI9125
aI9323
aI10709
aI11197
aI13821
aI13915
aI14729
aI15316
aI17390
aI18353
aI18596
aI18892
aI19012
aI20171
aI22172
aI22204
aI22677
aI23278
aI23998
asI233
(lp234
I70
aI659
aI1458
aI1915
aI2629
aI2660
aI3493
aI4074
aI4459
aI5136
aI5828
aI6072
aI6299
aI6878
aI7551
aI8755
aI9083
aI9563
aI10320
aI10360
aI10850
aI12398
aI12488
aI13017
aI13369
aI14311
aI14812
aI14818
aI15256
aI15744
aI16027
aI16519
aI17347
aI17504
aI17718
aI18495
aI18779
aI19745
aI20844
aI20972
aI22090
aI22442
aI23367
aI23578
aI23596
aI24374
aI24623
asI234
(lp235
I456
aI883
aI1244
aI1833
aI2456
aI2647
aI2774
aI4644
aI4797
aI5193
aI5272
aI5517
aI5521
aI5563
aI6224
aI6379
aI6616
aI6788
aI7119
aI7369
aI8736
aI8785
aI9961
aI10446
aI12601
aI12797
aI13213
aI13625
aI13908
aI14466
aI15039
aI15075
aI17255
aI18658
aI20463
aI20554
aI21346
aI22930
aI23569
aI24151
aI24352
aI24400
aI24628
aI24708
asI235
(lp236
I1103
aI2744
aI3163
aI3858
aI5969
aI6368
aI7724
aI8228
aI9293
aI9592
aI9818
aI9822
aI10698
aI12507
aI12632
aI14424
aI14556
aI15219
aI18730
aI18884
aI21178
aI21400
aI21463
aI21905
aI23735
asI236
(lp237
I938
aI1312
aI1701
aI2417
aI3148
aI3279
aI3562
aI4494
aI4685
aI5364
aI5368
aI5399
aI5599
aI7801
aI7925
aI8424
aI9245
aI9295
aI9633
aI10357
aI10461
aI11229
aI11673
aI12135
aI13811
aI14192
aI14523
aI15259
aI15620
aI16208
aI19494
aI20705
aI20819
aI21326
aI21385
aI21496
aI22422
aI22696
aI23459
aI23954
aI24570
asI237
(lp238
I1328
aI1391
aI1477
aI2954
aI3359
aI3963
aI5583
aI5638
aI5705
aI5782
aI5948
aI6782
aI7101
aI8700
aI8812
aI9290
aI9369
aI10249
aI10313
aI13084
aI13211
aI13624
aI13936
aI14408
aI15188
aI15287
aI15409
aI15701
aI16112
aI18021
aI18956
aI19535
aI19702
aI20450
aI21038
aI21531
aI22278
aI23563
asI238
(lp239
I106
aI841
aI2843
aI3292
aI3745
aI3860
aI4292
aI4358
aI4424
aI6314
aI6621
aI7132
aI7236
aI7716
aI7723
aI9649
aI9876
aI10198
aI12514
aI13055
aI13865
aI14882
aI16400
aI16440
aI17540
aI17560
aI18220
aI19873
aI20005
aI20018
aI20189
aI20295
aI21180
aI21277
aI22726
aI23324
aI23705
aI24228
aI24279
aI24534
aI24543
aI24597
aI24670
aI24995
asI239
(lp240
I490
aI528
aI1515
aI1626
aI2707
aI3731
aI3835
aI4167
aI4768
aI8576
aI9723
aI11030
aI11356
aI11798
aI11924
aI14179
aI14624
aI16240
aI17186
aI17289
aI17525
aI18418
aI21510
aI22658
aI23202
aI23228
aI23953
asI240
(lp241
I290
aI548
aI679
aI939
aI1408
aI1537
aI2109
aI2574
aI2637
aI2969
aI3348
aI4127
aI5899
aI6364
aI7129
aI7403
aI7767
aI8747
aI9593
aI9683
aI10197
aI12078
aI12636
aI12732
aI13847
aI16059
aI17017
aI18660
aI18802
aI19317
aI20104
aI20423
aI20665
aI22008
aI22086
aI22174
aI22216
aI23219
aI23664
asI241
(lp242
I851
aI1334
aI1444
aI2935
aI3331
aI3966
aI4010
aI4972
aI6008
aI7441
aI8360
aI8745
aI9072
aI10732
aI10946
aI11529
aI11844
aI12586
aI13404
aI13744
aI14218
aI15073
aI16390
aI16900
aI18334
aI18366
aI18749
aI18769
aI18990
aI19810
aI20028
aI20530
aI20837
aI21275
aI21606
aI24035
asI242
(lp243
I78
aI359
aI888
aI2734
aI2835
aI3028
aI4166
aI4258
aI4523
aI4945
aI5983
aI6014
aI8062
aI8194
aI8457
aI10847
aI12321
aI12392
aI12608
aI13391
aI13523
aI13532
aI14814
aI15213
aI15861
aI16258
aI16901
aI17178
aI17613
aI17728
aI17740
aI18236
aI19253
aI21196
aI21238
aI21493
aI21909
aI22616
aI23268
aI23371
aI24394
aI24559
aI24736
asI243
(lp244
I1
aI220
aI795
aI1045
aI1758
aI1944
aI3631
aI4751
aI5434
aI5694
aI5970
aI6239
aI6754
aI7018
aI7573
aI7759
aI8601
aI8886
aI8959
aI9052
aI9410
aI9473
aI9674
aI9776
aI10754
aI11838
aI12079
aI12356
aI12810
aI14144
aI14431
aI14561
aI14598
aI14843
aI15600
aI15742
aI15942
aI16241
aI17066
aI18033
aI18231
aI19260
aI19426
aI19527
aI20473
aI21215
aI21394
aI22079
aI22695
aI23933
aI24244
aI24933
asI244
(lp245
I68
aI1279
aI1526
aI1864
aI2133
aI2861
aI3081
aI3923
aI3968
aI4394
aI5236
aI6049
aI6066
aI6697
aI6720
aI6811
aI7068
aI7183
aI7227
aI7344
aI9180
aI9312
aI10292
aI10315
aI10623
aI11034
aI12021
aI12111
aI12444
aI12744
aI13021
aI13823
aI13953
aI16285
aI16623
aI16874
aI16926
aI17687
aI17774
aI17883
aI17926
aI17958
aI17977
aI18619
aI18650
aI18773
aI20505
aI20662
aI21791
aI23987
aI24384
asI245
(lp246
I248
aI278
aI354
aI369
aI401
aI772
aI935
aI1395
aI1425
aI2547
aI2613
aI3374
aI4946
aI5111
aI5168
aI5531
aI5596
aI7609
aI7864
aI10035
aI10378
aI11143
aI11257
aI11556
aI11618
aI11636
aI12606
aI13227
aI13698
aI14043
aI14065
aI14578
aI14943
aI15234
aI15402
aI15684
aI16487
aI17179
aI17614
aI17930
aI19162
aI21991
aI22091
aI22472
aI22738
aI24766
asI246
(lp247
I408
aI836
aI1089
aI1400
aI2021
aI2448
aI2546
aI3838
aI4205
aI6399
aI9246
aI9487
aI9852
aI10443
aI10689
aI11289
aI11448
aI11996
aI13521
aI13868
aI13951
aI14514
aI14745
aI14830
aI15237
aI16328
aI17340
aI17743
aI18987
aI19898
aI20362
aI20525
aI20555
aI20593
aI21106
aI21691
aI22943
aI24016
asI247
(lp248
I497
aI1854
aI2407
aI2738
aI3357
aI4024
aI5745
aI5820
aI6567
aI6752
aI7160
aI7245
aI8192
aI8610
aI9100
aI9183
aI9898
aI10873
aI14084
aI15578
aI16081
aI17703
aI18213
aI19802
aI19834
aI19973
aI20390
aI20659
aI21804
asI248
(lp249
I987
aI1468
aI2313
aI2893
aI3047
aI3247
aI3324
aI3720
aI5028
aI5164
aI5576
aI7025
aI8081
aI9247
aI9643
aI11337
aI12110
aI12214
aI13840
aI14092
aI14109
aI14353
aI15070
aI15700
aI15905
aI16431
aI16762
aI16910
aI17457
aI17891
aI18084
aI18743
aI18882
aI19827
aI19945
aI21591
aI21728
aI21802
aI21843
aI22166
aI23663
aI24008
asI249
(lp250
I1200
aI4232
aI4285
aI4345
aI5345
aI5513
aI5546
aI6450
aI7621
aI8554
aI8836
aI11763
aI13751
aI17385
aI18118
aI18645
aI18894
aI20325
aI21351
aI22308
aI22383
aI22396
aI23336
aI24964
aI24972
asI250
(lp251
I639
aI1083
aI2543
aI2663
aI3388
aI5800
aI6156
aI6355
aI8208
aI8335
aI8547
aI9509
aI9735
aI10353
aI11285
aI12733
aI12895
aI13161
aI15021
aI15307
aI15329
aI15883
aI16188
aI16596
aI17644
aI18338
aI18373
aI18482
aI18616
aI20113
aI20666
aI22283
aI22733
aI23147
aI23882
aI24421
asI251
(lp252
I183
aI338
aI732
aI976
aI1178
aI1282
aI1659
aI1835
aI2321
aI2397
aI4612
aI6563
aI7256
aI8321
aI8557
aI8881
aI10572
aI11461
aI11678
aI11778
aI11867
aI12305
aI13700
aI13736
aI14615
aI15280
aI15361
aI16468
aI16770
aI17655
aI17709
aI17732
aI19520
aI19814
aI20036
aI20652
aI21727
aI21815
aI24376
asI252
(lp253
I755
aI2186
aI2224
aI2559
aI3009
aI3188
aI4083
aI6587
aI8339
aI10099
aI11643
aI12573
aI15352
aI15881
aI17193
aI17763
aI17781
aI18132
aI19599
aI20803
aI21322
aI22139
aI22279
aI23050
aI23087
aI23286
aI23385
aI23449
aI23544
aI24011
aI24181
asI253
(lp254
I41
aI313
aI669
aI1232
aI1242
aI2539
aI2659
aI3353
aI3383
aI4272
aI4338
aI4854
aI5180
aI5335
aI6718
aI6900
aI7040
aI7794
aI8174
aI8390
aI8412
aI8444
aI8931
aI10857
aI11770
aI12567
aI12623
aI12964
aI14673
aI15045
aI16172
aI16530
aI17176
aI17429
aI17591
aI19370
aI19454
aI19467
aI19953
aI20230
aI20965
aI21826
aI21874
aI22039
aI22280
aI22916
aI24160
aI24227
aI24391
asI254
(lp255
I1519
aI2395
aI3642
aI5115
aI5355
aI5804
aI5876
aI7486
aI7575
aI8314
aI8932
aI9068
aI9660
aI10132
aI10841
aI10967
aI11063
aI11171
aI11849
aI12592
aI12757
aI12867
aI14167
aI14394
aI15533
aI15582
aI15705
aI16826
aI18111
aI18207
aI18988
aI19071
aI19361
aI20629
aI22473
aI22657
aI24124
aI24577
asI255
(lp256
I33
aI333
aI1054
aI1623
aI1956
aI2722
aI2946
aI4421
aI4608
aI6146
aI6204
aI6840
aI7357
aI7514
aI8118
aI8196
aI8919
aI8976
aI9234
aI9275
aI9907
aI10694
aI11013
aI12071
aI13483
aI13907
aI14478
aI16177
aI16182
aI17315
aI17494
aI17529
aI18141
aI18239
aI18671
aI20488
aI21115
aI23091
aI24096
aI24233
aI24365
aI24539
asI256
(lp257
I478
aI3250
aI3346
aI4165
aI5886
aI6193
aI7029
aI7224
aI7972
aI9066
aI9178
aI10751
aI11190
aI11207
aI11435
aI11791
aI13737
aI13959
aI14241
aI14354
aI15494
aI15836
aI16580
aI20619
aI20887
aI21266
aI21469
aI21813
aI24710
aI24810
asI257
(lp258
I914
aI948
aI1590
aI2733
aI3086
aI3325
aI4604
aI6736
aI8293
aI9308
aI9350
aI9793
aI10253
aI11134
aI12569
aI12868
aI13997
aI14809
aI15056
aI15616
aI15621
aI18679
aI18883
aI19152
aI19203
aI19435
aI20087
aI20880
aI20950
aI20956
aI20977
aI21421
aI21705
aI23755
aI23833
aI24749
asI258
(lp259
I131
aI422
aI702
aI1090
aI1091
aI1631
aI1691
aI2299
aI2810
aI2830
aI5776
aI7308
aI8165
aI8573
aI9047
aI9853
aI10236
aI10667
aI12202
aI12630
aI14162
aI14916
aI16037
aI16508
aI17489
aI17555
aI17829
aI18669
aI18766
aI19035
aI19455
aI19753
aI20319
aI21551
aI22324
aI23329
aI24490
aI24779
asI259
(lp260
I6
aI852
aI1648
aI2742
aI2887
aI3866
aI4509
aI4513
aI5942
aI6499
aI6594
aI6637
aI7436
aI7712
aI7733
aI8308
aI9096
aI9836
aI10041
aI10538
aI10867
aI11148
aI11198
aI11489
aI13750
aI14516
aI14614
aI14947
aI15120
aI15375
aI17228
aI18393
aI19213
aI19380
aI20578
aI20891
aI22006
aI22292
aI22395
aI22592
aI22987
aI23149
aI23997
aI24199
asI260
(lp261
I204
aI527
aI1149
aI1426
aI2112
aI2376
aI2678
aI2945
aI3728
aI4012
aI4014
aI4080
aI4712
aI5519
aI6281
aI7250
aI7568
aI7945
aI8324
aI9424
aI10517
aI10527
aI11158
aI11177
aI13011
aI13377
aI13423
aI14032
aI14319
aI15246
aI15449
aI15591
aI15827
aI15839
aI16192
aI18309
aI18715
aI20022
aI21206
aI21777
aI22207
aI22902
asI261
(lp262
I48
aI2980
aI4312
aI4334
aI5107
aI6684
aI6822
aI7535
aI9128
aI10278
aI10953
aI11476
aI11879
aI11907
aI12603
aI14206
aI15376
aI17194
aI17640
aI18403
aI18918
aI19082
aI20923
aI21671
aI22137
aI22314
aI22668
aI23342
aI23775
aI24366
aI24908
asI262
(lp263
I606
aI3066
aI3655
aI4168
aI7094
aI7540
aI8222
aI8358
aI8561
aI9199
aI9255
aI9536
aI10412
aI10898
aI11115
aI11929
aI12340
aI12644
aI12707
aI13445
aI13481
aI13578
aI14135
aI14244
aI14595
aI15442
aI17211
aI17802
aI18590
aI19294
aI20579
aI20944
aI21549
aI21977
aI21992
aI22150
aI22447
aI23920
aI24092
aI24290
aI24375
asI263
(lp264
I526
aI1696
aI4388
aI5068
aI6765
aI7213
aI7654
aI8850
aI9216
aI9261
aI9532
aI10206
aI10704
aI11918
aI11955
aI12535
aI13848
aI13855
aI14171
aI14436
aI15130
aI15386
aI16106
aI16407
aI16540
aI17045
aI17650
aI17657
aI17673
aI20350
aI20498
aI21372
aI22311
aI22331
aI23180
aI23675
aI24672
asI264
(lp265
I0
aI22
aI672
aI1289
aI1409
aI2777
aI3864
aI3991
aI5256
aI6452
aI6682
aI6882
aI6954
aI7479
aI7884
aI8151
aI8191
aI9141
aI9443
aI9620
aI10063
aI14213
aI14264
aI14668
aI14744
aI15502
aI15864
aI15872
aI16952
aI17333
aI17359
aI17382
aI17790
aI19332
aI19347
aI20305
aI20993
aI21424
aI22227
aI24186
aI24655
aI24664
asI265
(lp266
I738
aI788
aI1433
aI1547
aI3193
aI4632
aI4639
aI5033
aI5293
aI5498
aI6527
aI6581
aI6930
aI7577
aI7833
aI8669
aI8825
aI9832
aI10666
aI11875
aI12200
aI12602
aI13729
aI13784
aI13872
aI14002
aI14261
aI14670
aI15249
aI16467
aI17009
aI17832
aI18729
aI20249
aI20418
aI21126
aI21491
aI22380
aI23829
aI24905
asI266
(lp267
I162
aI242
aI580
aI696
aI740
aI937
aI1324
aI1974
aI2158
aI2187
aI2200
aI2304
aI2625
aI4429
aI4913
aI4917
aI6943
aI7524
aI8126
aI8247
aI8288
aI8797
aI9158
aI9935
aI10088
aI10392
aI11718
aI11977
aI12954
aI13455
aI14211
aI14819
aI15060
aI16638
aI17217
aI17378
aI18612
aI19058
aI19844
aI20043
aI21737
aI22170
aI22342
aI22996
aI23498
aI23818
aI24435
aI24668
aI24855
asI267
(lp268
I1104
aI1398
aI2342
aI2471
aI3516
aI4726
aI7192
aI7671
aI7697
aI8023
aI9035
aI9573
aI9945
aI10476
aI10515
aI11321
aI11548
aI12622
aI12976
aI15042
aI15523
aI15983
aI16150
aI16292
aI16528
aI17459
aI18939
aI19214
aI19999
aI20217
aI21317
aI21501
aI21882
aI22659
aI22669
aI23193
aI23279
aI23442
aI24467
aI24586
asI268
(lp269
I99
aI438
aI894
aI1606
aI1755
aI1757
aI1840
aI2287
aI3832
aI4141
aI4194
aI4242
aI4462
aI6689
aI7202
aI7243
aI7595
aI7644
aI7770
aI8253
aI8270
aI8637
aI9045
aI9330
aI9768
aI9994
aI11561
aI12023
aI12710
aI14886
aI16060
aI16877
aI18044
aI18312
aI18657
aI19016
aI21700
aI24323
asI269
(lp270
I212
aI617
aI1270
aI1278
aI1419
aI2263
aI4473
aI5123
aI7093
aI7130
aI7143
aI7711
aI7776
aI7862
aI8346
aI8877
aI10293
aI11423
aI11760
aI11958
aI12312
aI13424
aI15118
aI15564
aI17049
aI19372
aI20026
aI22655
aI22690
aI22948
aI23177
aI23895
aI23961
asI270
(lp271
I645
aI1466
aI1597
aI2322
aI4638
aI4811
aI4861
aI5297
aI5442
aI6061
aI6360
aI6362
aI6634
aI6824
aI6894
aI7632
aI8235
aI8651
aI8764
aI8957
aI10514
aI10925
aI11346
aI11662
aI12158
aI12738
aI13401
aI14978
aI15778
aI17685
aI18826
aI19462
aI20540
aI20849
aI21067
aI21672
aI21748
aI21860
aI23109
aI24224
aI24795
asI271
(lp272
I1074
aI2101
aI2419
aI2731
aI4619
aI5058
aI5849
aI5887
aI6163
aI6466
aI7036
aI7744
aI7848
aI8900
aI8948
aI9431
aI10002
aI10075
aI11376
aI11543
aI11921
aI12088
aI12459
aI12837
aI13422
aI13925
aI14417
aI14576
aI15044
aI15586
aI16050
aI16329
aI16588
aI16898
aI17969
aI18569
aI20982
aI21081
aI21134
aI22072
aI22255
aI23106
aI23200
aI23792
asI272
(lp273
I324
aI331
aI554
aI865
aI1096
aI1357
aI1405
aI1628
aI1660
aI1787
aI2354
aI3385
aI4178
aI4722
aI4914
aI5063
aI6731
aI6742
aI7204
aI8420
aI8656
aI8768
aI8809
aI9117
aI9253
aI10622
aI10747
aI12301
aI12350
aI12419
aI12463
aI12486
aI13046
aI13681
aI14687
aI15505
aI15530
aI16043
aI16740
aI17209
aI17532
aI17929
aI17992
aI18073
aI18570
aI19083
aI19205
aI19439
aI20417
aI20879
aI20936
aI21719
aI22030
aI22933
aI23382
aI23399
aI23476
aI24901
asI273
(lp274
I52
aI358
aI994
aI1471
aI1636
aI1763
aI1912
aI1940
aI2517
aI2955
aI3055
aI3446
aI4480
aI5896
aI5952
aI6762
aI7562
aI8210
aI8341
aI8741
aI8774
aI9844
aI10040
aI10229
aI10359
aI11243
aI11686
aI11793
aI12395
aI14278
aI14983
aI15121
aI17326
aI17645
aI17739
aI18794
aI19313
aI21470
aI21838
aI22122
aI22869
aI23114
aI24013
aI24120
aI24401
aI24481
aI24722
aI24962
asI274
(lp275
I1470
aI2527
aI2838
aI3364
aI5167
aI6214
aI6677
aI8301
aI9537
aI10600
aI10814
aI11670
aI12121
aI12505
aI13614
aI14275
aI14469
aI15357
aI16202
aI16751
aI16878
aI17013
aI17184
aI17681
aI17686
aI18018
aI18629
aI18761
aI19770
aI19982
aI21417
aI22603
aI22848
aI23499
aI23700
aI24203
asI275
(lp276
I129
aI376
aI1062
aI2233
aI3747
aI3857
aI4590
aI5548
aI7090
aI7211
aI7870
aI8147
aI9020
aI9136
aI9656
aI9926
aI10549
aI11204
aI15004
aI15220
aI15306
aI16073
aI16557
aI16672
aI17364
aI17444
aI17449
aI17941
aI19661
aI19998
aI20216
aI20509
aI20614
aI22528
aI23009
aI23205
asI276
(lp277
I53
aI437
aI2402
aI3464
aI3518
aI3839
aI4212
aI4708
aI4846
aI7342
aI8137
aI8401
aI9555
aI9769
aI9962
aI10794
aI10964
aI11058
aI11389
aI12107
aI12255
aI12329
aI12384
aI12661
aI12833
aI12840
aI13116
aI13248
aI15512
aI15679
aI15681
aI16991
aI19052
aI19292
aI19616
aI19654
aI20197
aI20532
aI20600
aI20677
asI277
(lp278
I389
aI1531
aI2305
aI3119
aI3251
aI3294
aI3768
aI4092
aI4184
aI4300
aI5814
aI6216
aI6836
aI6953
aI7218
aI7337
aI7447
aI9147
aI10342
aI12519
aI12749
aI14395
aI14825
aI16405
aI16995
aI17301
aI18638
aI20655
aI21437
aI21914
aI22906
aI23339
aI23429
aI23643
aI24000
asI278
(lp279
I1006
aI1828
aI2514
aI2785
aI3759
aI3766
aI3852
aI3865
aI4573
aI5340
aI5447
aI7413
aI7663
aI8283
aI8336
aI8720
aI9116
aI9243
aI9271
aI10193
aI10910
aI11310
aI14262
aI15835
aI17492
aI18169
aI18504
aI18639
aI19363
aI19556
aI19908
aI20096
aI22054
aI22328
aI22505
aI22545
aI24176
asI279
(lp280
I157
aI1525
aI2105
aI2952
aI3239
aI4207
aI5911
aI6802
aI7689
aI7808
aI7874
aI8119
aI8685
aI9374
aI9385
aI9639
aI10617
aI11648
aI11992
aI12645
aI13073
aI13501
aI13611
aI13726
aI13798
aI14024
aI14682
aI14948
aI16724
aI17354
aI17566
aI18662
aI19570
aI22035
aI23877
aI23978
aI24712
aI24775
asI280
(lp281
I421
aI594
aI2069
aI4730
aI4877
aI5772
aI6405
aI6620
aI6717
aI6733
aI7010
aI7583
aI7857
aI9021
aI9148
aI9438
aI11062
aI11797
aI12709
aI13815
aI14491
aI14871
aI15648
aI15840
aI17304
aI19097
aI19630
aI19663
aI20262
aI21582
aI21868
aI24447
asI281
(lp282
I1052
aI1371
aI1448
aI2854
aI3861
aI5034
aI5438
aI5571
aI5586
aI5689
aI6492
aI8313
aI10089
aI11400
aI11626
aI12402
aI13943
aI14381
aI15109
aI16204
aI16512
aI16601
aI16736
aI18088
aI18273
aI19067
aI20114
aI22744
aI23870
aI24068
aI24739
asI282
(lp283
I455
aI1187
aI1557
aI2585
aI2709
aI2723
aI6906
aI7386
aI10503
aI11263
aI12639
aI12640
aI13259
aI14019
aI15029
aI15711
aI15771
aI16317
aI16320
aI16774
aI17204
aI18178
aI18424
aI18547
aI20041
aI20282
aI20510
aI20938
aI21028
aI22116
aI22516
aI23560
asI283
(lp284
I1286
aI1601
aI1698
aI2094
aI3021
aI3695
aI3875
aI6769
aI7085
aI8105
aI8536
aI8910
aI9819
aI9887
aI11153
aI11492
aI13448
aI13791
aI14418
aI14834
aI14857
aI15993
aI16446
aI17441
aI18155
aI18437
aI18913
aI20523
aI21460
aI23174
aI23414
aI23955
aI24730
asI284
(lp285
I803
aI804
aI1819
aI1885
aI3062
aI3452
aI4011
aI5009
aI5790
aI6060
aI7020
aI8344
aI8443
aI8560
aI10173
aI10948
aI11653
aI12689
aI12973
aI13231
aI13358
aI15567
aI15697
aI16025
aI16209
aI16881
aI18232
aI18813
aI19154
aI19681
aI20428
aI21644
aI21663
aI21759
aI22623
aI24050
aI24637
aI24755
aI24894
asI285
(lp286
I400
aI801
aI1180
aI1393
aI3317
aI3589
aI3625
aI3673
aI3922
aI4771
aI5065
aI5398
aI5847
aI6340
aI6397
aI6398
aI6914
aI7023
aI7580
aI7829
aI8488
aI8709
aI9786
aI9798
aI9807
aI9821
aI11367
aI11533
aI11595
aI11756
aI12064
aI12440
aI12595
aI12836
aI13267
aI13292
aI13597
aI13760
aI13856
aI14631
aI15150
aI16539
aI17890
aI18200
aI18581
aI18763
aI18801
aI19228
aI21356
aI22756
aI22833
aI23123
aI23230
aI23683
aI23906
aI23958
asI286
(lp287
I3919
aI5825
aI6190
aI9277
aI9351
aI9691
aI10143
aI10590
aI11981
aI12122
aI12161
aI13398
aI14153
aI14406
aI14510
aI14613
aI15178
aI16089
aI18985
aI19038
aI19041
aI19926
aI20123
aI21389
aI21948
aI23509
aI24622
asI287
(lp288
I279
aI872
aI1065
aI1266
aI2258
aI2600
aI3004
aI4807
aI5212
aI5591
aI9036
aI9214
aI9511
aI10226
aI11576
aI12625
aI13554
aI14367
aI15394
aI17012
aI17030
aI17033
aI17221
aI17485
aI18081
aI18349
aI18839
aI18873
aI19962
aI21002
aI21079
aI21142
aI21476
aI22191
aI22428
aI22495
aI23130
aI23639
aI24146
aI24389
aI24949
asI288
(lp289
I2163
aI2201
aI2387
aI3609
aI3850
aI3987
aI4171
aI5030
aI5258
aI5278
aI6402
aI8355
aI9017
aI9672
aI9805
aI9990
aI10655
aI11052
aI11168
aI11488
aI11839
aI12916
aI13858
aI14522
aI14553
aI15239
aI16215
aI16282
aI16388
aI18238
aI19760
aI19889
aI20011
aI20391
aI20522
aI20607
aI22319
aI22521
aI23022
aI23350
aI24470
aI24882
aI24941
asI289
(lp290
I986
aI1447
aI2378
aI2662
aI2849
aI4486
aI4543
aI4822
aI6097
aI6628
aI7450
aI9408
aI9513
aI9920
aI11544
aI13353
aI15602
aI15981
aI16020
aI16391
aI17866
aI18492
aI18693
aI18837
aI20492
aI21136
aI21670
aI21883
aI22265
aI24073
aI24166
asI290
(lp291
I17
aI378
aI557
aI1999
aI2340
aI3126
aI3916
aI4414
aI4466
aI5292
aI5678
aI6255
aI6517
aI6848
aI7367
aI9305
aI10018
aI10107
aI10117
aI10409
aI10516
aI11223
aI11883
aI12409
aI12969
aI13217
aI13767
aI14533
aI15549
aI16894
aI17062
aI17277
aI17375
aI17648
aI17761
aI18847
aI19199
aI19206
aI19368
aI19820
aI19931
aI20424
aI20517
aI20771
aI20932
aI20985
aI21570
aI22353
aI22776
aI23081
aI23235
aI23430
asI291
(lp292
I10
aI1586
aI2837
aI4110
aI5262
aI5353
aI6317
aI6935
aI7248
aI7512
aI8252
aI8650
aI9910
aI10160
aI11046
aI11354
aI11808
aI13792
aI14112
aI15933
aI16862
aI17169
aI17996
aI18022
aI18173
aI19111
aI19179
aI19854
aI21850
aI21917
aI22642
aI22665
aI22808
aI23451
aI24135
asI292
(lp293
I149
aI750
aI1277
aI3056
aI3269
aI5681
aI6385
aI6738
aI7134
aI7176
aI7592
aI7868
aI7890
aI8632
aI9206
aI9909
aI10260
aI10469
aI10475
aI10518
aI10633
aI10756
aI11194
aI11244
aI16228
aI17252
aI18210
aI18848
aI19074
aI20978
aI23752
aI24506
aI24913
asI293
(lp294
I547
aI564
aI618
aI945
aI2049
aI2265
aI2351
aI2767
aI3431
aI3487
aI4113
aI4567
aI4711
aI5634
aI5933
aI6106
aI6649
aI6715
aI7220
aI7334
aI7390
aI7653
aI7718
aI8997
aI9535
aI9865
aI10104
aI10422
aI11306
aI11647
aI11675
aI12051
aI13225
aI13299
aI14022
aI14075
aI15055
aI15358
aI16839
aI16864
aI16932
aI17526
aI18278
aI19564
aI20081
aI20827
aI20966
aI21250
aI22449
aI23905
aI23957
aI24975
asI294
(lp295
I671
aI3534
aI4250
aI4868
aI6157
aI6264
aI7907
aI8564
aI9336
aI9787
aI10372
aI10765
aI10874
aI11922
aI13090
aI14892
aI16473
aI17100
aI18198
aI18723
aI20289
aI20875
aI22388
aI23549
asI295
(lp296
I558
aI575
aI953
aI2281
aI2592
aI2989
aI3235
aI3301
aI3905
aI4244
aI5786
aI6177
aI6640
aI6664
aI7658
aI7703
aI8749
aI9709
aI9767
aI9870
aI11121
aI11362
aI11677
aI13184
aI13928
aI13945
aI14173
aI14593
aI14795
aI15399
aI15797
aI16198
aI16243
aI16754
aI17860
aI18226
aI18374
aI18841
aI19130
aI19221
aI19765
aI20455
aI20725
aI21416
aI21961
aI22264
aI22491
aI22673
aI22766
aI23618
aI24218
asI296
(lp297
I121
aI2775
aI2991
aI3051
aI3180
aI3370
aI3406
aI4552
aI4985
aI5737
aI6538
aI6631
aI6941
aI6962
aI8458
aI9270
aI9795
aI10184
aI11180
aI11403
aI12410
aI13005
aI14547
aI14910
aI18434
aI18938
aI19837
aI19879
aI20245
aI20694
aI20928
aI21294
aI21682
aI23368
aI23535
aI23785
aI24407
aI24437
aI24666
asI297
(lp298
I459
aI486
aI514
aI1612
aI1892
aI2856
aI5424
aI7437
aI8348
aI9479
aI9604
aI10337
aI11919
aI12211
aI12479
aI12583
aI12918
aI13185
aI14049
aI14280
aI15157
aI15550
aI15666
aI15767
aI15791
aI15903
aI16099
aI16785
aI17016
aI17058
aI17271
aI19117
aI19378
aI20395
aI22693
aI23063
aI23064
aI23070
aI23332
aI23680
aI24756
asI298
(lp299
I210
aI462
aI777
aI1047
aI1848
aI3662
aI5657
aI5752
aI6015
aI7063
aI7077
aI7128
aI7681
aI7690
aI7702
aI7942
aI8589
aI10220
aI10489
aI10887
aI11795
aI13400
aI14594
aI15186
aI15689
aI16682
aI17806
aI18254
aI19544
aI19706
aI20032
aI20535
aI20582
aI21355
aI21466
aI21822
aI21831
aI22717
aI23182
aI23259
aI23637
aI24222
asI299
(lp300
I1427
aI2003
aI5443
aI5859
aI6098
aI6221
aI6525
aI7726
aI8539
aI8880
aI10280
aI10440
aI12771
aI13064
aI13256
aI13838
aI16516
aI19129
aI19234
aI21694
aI22539
aI23095
aI23188
aI23654
aI23995
asI300
(lp301
I119
aI1339
aI1570
aI1847
aI1878
aI2061
aI3789
aI3901
aI4050
aI5103
aI5150
aI7384
aI8571
aI8834
aI9940
aI10678
aI10792
aI10913
aI14411
aI16408
aI16847
aI16920
aI17573
aI17924
aI18604
aI19303
aI19316
aI19470
aI19940
aI20125
aI20268
aI20349
aI20366
aI21001
aI21927
aI22303
aI23289
aI23674
aI23831
aI23942
asI301
(lp302
I431
aI2528
aI2975
aI4537
aI6020
aI6639
aI7982
aI8551
aI8707
aI10777
aI11221
aI11558
aI12063
aI12228
aI13026
aI13430
aI13606
aI13678
aI13816
aI13860
aI13878
aI13909
aI13974
aI14145
aI14822
aI15397
aI16458
aI18100
aI18476
aI18668
aI19427
aI19964
aI20969
aI21176
aI21223
aI21674
aI22400
aI23250
aI23343
aI23419
aI24336
asI302
(lp303
I505
aI1213
aI1893
aI2172
aI2325
aI2345
aI2412
aI2464
aI3217
aI3842
aI4595
aI4793
aI6242
aI7567
aI8259
aI8738
aI8807
aI9078
aI9317
aI9395
aI9525
aI10322
aI10868
aI11074
aI11585
aI12234
aI13135
aI13522
aI13636
aI13826
aI14400
aI14568
aI14763
aI15051
aI16777
aI17143
aI17225
aI17242
aI17423
aI17756
aI17875
aI17895
aI17911
aI18221
aI18737
aI18785
aI18910
aI19393
aI19808
aI20007
aI22702
aI22875
aI22959
aI23422
aI24302
asI303
(lp304
I235
aI291
aI1434
aI1705
aI2245
aI2487
aI3757
aI4643
aI4924
aI6599
aI8066
aI8862
aI9552
aI9746
aI10731
aI11494
aI11694
aI12290
aI12607
aI12756
aI12900
aI12945
aI13065
aI14199
aI14231
aI14380
aI14526
aI15555
aI15651
aI16245
aI16660
aI17202
aI18515
aI18694
aI19251
aI20569
aI21520
aI21778
aI21939
aI22047
aI22158
aI22629
aI22634
aI22722
aI23160
aI23252
aI23679
aI24531
aI24643
aI24783
aI24869
asI304
(lp305
I386
aI574
aI1720
aI1898
aI2560
aI3540
aI3615
aI3894
aI3938
aI4558
aI4680
aI5059
aI5816
aI9048
aI9623
aI10311
aI10719
aI11252
aI12538
aI12767
aI13392
aI15260
aI17322
aI17664
aI18354
aI19287
aI19406
aI19687
aI20589
aI22089
aI22465
aI22832
aI22915
aI23172
aI23739
aI23883
aI24041
aI24164
aI24478
asI305
(lp306
I890
aI1679
aI1802
aI2429
aI2875
aI2949
aI4499
aI4676
aI4705
aI4769
aI5072
aI6995
aI7825
aI8574
aI9142
aI9177
aI9930
aI10122
aI10161
aI10510
aI11048
aI11719
aI11786
aI12246
aI12546
aI13452
aI13476
aI14658
aI14955
aI15599
aI16061
aI17493
aI17823
aI18028
aI18685
aI19297
aI19660
aI20524
aI20833
aI21089
aI21167
aI21243
aI21295
aI21604
aI22261
aI22343
aI22850
aI23179
aI23212
aI24248
aI24906
asI306
(lp307
I4370
aI4933
aI5047
aI5170
aI6084
aI7406
aI7810
aI9077
aI9217
aI9650
aI10136
aI10682
aI13351
aI13536
aI15430
aI15671
aI15974
aI16075
aI16261
aI16463
aI17019
aI18419
aI19220
aI19451
aI20876
aI21076
aI22198
aI22730
aI22990
asI307
(lp308
I612
aI651
aI1063
aI1579
aI1920
aI1922
aI2027
aI2729
aI3404
aI4351
aI4649
aI4890
aI5161
aI6133
aI6531
aI6751
aI7584
aI8186
aI9334
aI10684
aI10888
aI11827
aI13179
aI13514
aI15273
aI15278
aI15576
aI15800
aI16848
aI17172
aI18313
aI19174
aI21075
aI21125
aI21518
aI22056
aI22250
aI24225
aI24337
asI308
(lp309
I250
aI786
aI1043
aI2726
aI3372
aI3466
aI3471
aI3846
aI4540
aI4549
aI4568
aI5595
aI5907
aI5965
aI6277
aI8043
aI8069
aI8572
aI9530
aI9800
aI11402
aI11482
aI12471
aI12798
aI12898
aI12999
aI13609
aI13712
aI13836
aI14057
aI14328
aI15214
aI15895
aI16033
aI17094
aI17656
aI18496
aI19262
aI19672
aI20387
aI20427
aI20943
aI21616
aI21824
aI22352
aI22479
aI22741
aI23285
aI23626
aI23838
asI309
(lp310
I198
aI310
aI512
aI584
aI922
aI1084
aI1665
aI2127
aI2331
aI2588
aI2700
aI3438
aI5237
aI5562
aI6172
aI7191
aI9099
aI9160
aI9345
aI10918
aI11593
aI11966
aI12633
aI12923
aI13149
aI13393
aI14378
aI15685
aI16843
aI18298
aI19324
aI20660
aI21636
aI22547
aI22964
aI23354
aI23412
aI23607
aI24608
aI24696
aI24800
aI24940
asI310
(lp311
I516
aI1195
aI1524
aI1784
aI2296
aI2551
aI2739
aI5099
aI5846
aI7348
aI8011
aI9544
aI10544
aI11418
aI12192
aI12339
aI12815
aI13146
aI13916
aI13939
aI14253
aI14951
aI16158
aI16264
aI16429
aI16695
aI17028
aI18425
aI20468
aI21338
aI22387
aI22520
aI23658
aI24875
asI311
(lp312
I427
aI648
aI697
aI901
aI1230
aI1681
aI2863
aI3058
aI3927
aI3951
aI4028
aI4286
aI4461
aI5900
aI6475
aI6913
aI6990
aI7045
aI7087
aI7268
aI7588
aI7600
aI7601
aI8663
aI9076
aI9871
aI10290
aI10860
aI11129
aI12358
aI12811
aI13409
aI13747
aI13912
aI14827
aI15146
aI15605
aI15789
aI15814
aI16026
aI16438
aI17463
aI19805
aI20640
aI20815
aI21578
aI22628
aI23240
aI23247
aI23548
aI23951
aI24103
aI24405
aI24920
asI312
(lp313
I1092
aI1422
aI1473
aI1668
aI2680
aI3202
aI3363
aI4215
aI4986
aI5780
aI6988
aI8276
aI9651
aI10128
aI10499
aI11066
aI11424
aI12883
aI13973
aI14371
aI15111
aI15119
aI15124
aI15547
aI16454
aI17041
aI17292
aI18035
aI18358
aI18832
aI19115
aI19528
aI20297
aI22140
aI22215
aI22700
aI23965
aI24527
asI313
(lp314
I812
aI1307
aI1354
aI4005
aI4343
aI5191
aI5604
aI7642
aI7822
aI8226
aI8864
aI9636
aI10989
aI11113
aI12343
aI13152
aI13599
aI14265
aI14295
aI14475
aI14572
aI15275
aI15390
aI16340
aI16794
aI17461
aI18251
aI18385
aI19884
aI20127
aI21568
aI23337
aI23960
aI24056
aI24676
asI314
(lp315
I387
aI1906
aI3044
aI3138
aI3223
aI3596
aI5404
aI5672
aI6376
aI6557
aI6564
aI7660
aI10390
aI12151
aI13937
aI14102
aI14835
aI15231
aI15469
aI15536
aI15999
aI16753
aI18335
aI19321
aI19601
aI20825
aI21779
aI21832
aI22115
aI23888
asI315
(lp316
I365
aI700
aI873
aI2650
aI3351
aI4470
aI4491
aI4727
aI5243
aI5430
aI6081
aI6102
aI6380
aI7114
aI7289
aI7304
aI8102
aI8826
aI9621
aI9635
aI10834
aI11607
aI12427
aI12920
aI13238
aI13346
aI15665
aI16501
aI16976
aI18488
aI19098
aI20914
aI21118
aI22084
aI22225
aI22596
aI22945
aI23042
aI23452
aI23505
aI23528
aI23543
aI23893
aI24857
aI24873
asI316
(lp317
I1469
aI1559
aI1617
aI2156
aI2500
aI3332
aI3821
aI5327
aI5731
aI6141
aI6454
aI7376
aI8640
aI9566
aI9777
aI10611
aI10908
aI11080
aI11493
aI12318
aI12360
aI13009
aI14160
aI16052
aI17568
aI17791
aI18106
aI19757
aI19819
aI20254
aI20680
aI20984
aI21173
aI21620
aI22059
aI22123
aI23046
aI24822
aI24987
asI317
(lp318
I92
aI2132
aI4872
aI6261
aI6359
aI7438
aI7662
aI7747
aI8814
aI11300
aI12073
aI12672
aI12715
aI12943
aI14934
aI15696
aI16205
aI16507
aI17317
aI17367
aI18416
aI18421
aI19230
aI19493
aI19859
aI20168
aI20252
aI20625
aI21014
aI21456
aI21612
aI21913
aI23762
asI318
(lp319
I686
aI1694
aI1822
aI2072
aI2220
aI3200
aI3677
aI4624
aI4855
aI5394
aI5679
aI5783
aI7633
aI8111
aI9034
aI10832
aI13066
aI13078
aI13366
aI14728
aI14938
aI15205
aI16779
aI17915
aI19716
aI20229
aI20852
aI21425
aI22525
aI23468
aI24223
aI24896
asI319
(lp320
I47
aI193
aI255
aI327
aI789
aI1109
aI3149
aI3499
aI3703
aI5165
aI5559
aI5699
aI5998
aI6071
aI6085
aI6989
aI7539
aI7693
aI8456
aI9240
aI10074
aI10726
aI10828
aI12474
aI12493
aI13465
aI13676
aI14688
aI15459
aI15673
aI15910
aI16549
aI17654
aI18102
aI19501
aI20740
aI21097
aI22041
aI22365
aI22980
aI23072
aI23796
aI23830
aI24294
aI24646
asI320
(lp321
I867
aI1189
aI1236
aI2587
aI3950
aI4088
aI4959
aI5624
aI6570
aI7188
aI8567
aI12236
aI13410
aI15374
aI15438
aI15656
aI16234
aI16293
aI16441
aI16718
aI17398
aI17516
aI18423
aI18866
aI18968
aI19255
aI20105
aI20331
aI20602
aI23021
aI23491
aI24732
aI24927
aI24983
asI321
(lp322
I329
aI624
aI857
aI1309
aI1629
aI2243
aI2654
aI2926
aI3133
aI3714
aI4570
aI5057
aI6266
aI6683
aI7173
aI7670
aI8199
aI8220
aI8463
aI9030
aI9761
aI10695
aI11415
aI12220
aI12438
aI13348
aI13486
aI14483
aI15435
aI15525
aI15580
aI15918
aI16969
aI17546
aI18011
aI18179
aI18395
aI18655
aI20657
aI20765
aI20788
aI21241
aI21677
aI21750
aI21982
aI23074
aI23450
aI23579
aI24130
aI24821
asI322
(lp323
I49
aI258
aI1383
aI2677
aI5511
aI5575
aI8027
aI8759
aI9773
aI11809
aI11833
aI13583
aI13713
aI14086
aI15129
aI16165
aI16584
aI17281
aI21488
aI21543
aI21631
aI23825
aI24757
aI24835
asI323
(lp324
I1355
aI1479
aI1666
aI1921
aI2114
aI2344
aI2943
aI3100
aI3504
aI3896
aI4118
aI4795
aI5021
aI5349
aI5520
aI6842
aI6861
aI7155
aI7408
aI7649
aI8289
aI8334
aI8350
aI8604
aI9202
aI9347
aI10763
aI12412
aI12558
aI12663
aI12768
aI13019
aI13504
aI14266
aI14607
aI14839
aI16426
aI16525
aI16924
aI17388
aI17596
aI17643
aI18479
aI18508
aI20670
aI20772
aI21884
aI22615
aI22678
aI22908
aI23855
aI24682
aI24984
asI324
(lp325
I471
aI1237
aI2545
aI3941
aI4030
aI4101
aI6210
aI7563
aI10494
aI11666
aI12873
aI13439
aI14271
aI14272
aI14863
aI15126
aI16650
aI18109
aI18442
aI18865
aI19400
aI20144
aI21339
aI21565
aI22212
aI22994
aI23678
aI23780
aI23869
aI23898
aI24702
asI325
(lp326
I7
aI134
aI784
aI1033
aI2052
aI3389
aI3478
aI4066
aI4603
aI4953
aI5078
aI5105
aI5395
aI5505
aI6337
aI6482
aI6835
aI6925
aI8061
aI8588
aI8775
aI9204
aI10425
aI12160
aI12371
aI13229
aI15289
aI15766
aI15913
aI17730
aI18553
aI20899
aI21303
aI21595
aI21835
aI21900
aI22361
aI22666
aI23689
aI24379
aI24636
aI24953
asI326
(lp327
I26
aI524
aI3257
aI4282
aI6455
aI9467
aI9812
aI10428
aI10819
aI13102
aI13454
aI13601
aI14285
aI15542
aI15941
aI16385
aI18740
aI18993
aI19024
aI19773
aI19860
aI20038
aI20584
aI24361
aI24633
asI327
(lp328
I1450
aI1900
aI2896
aI4526
aI5117
aI5409
aI5431
aI5961
aI6215
aI9297
aI9611
aI10015
aI10629
aI11097
aI12416
aI12548
aI12680
aI13509
aI13693
aI14200
aI14474
aI15752
aI16527
aI18707
aI19575
aI19645
aI23697
asI328
(lp329
I2266
aI2550
aI5554
aI5663
aI5944
aI6797
aI9176
aI10177
aI10283
aI10909
aI12169
aI12555
aI13771
aI14391
aI16722
aI16977
aI17708
aI18916
aI19269
aI19508
aI19551
aI23432
aI23588
aI24280
aI24461
aI24484
asI329
(lp330
I263
aI1300
aI1824
aI2958
aI3151
aI3712
aI4692
aI7059
aI7821
aI9198
aI9653
aI10453
aI11028
aI11159
aI11397
aI12621
aI12956
aI13165
aI13342
aI14507
aI14792
aI17448
aI17571
aI19463
aI19732
aI20591
aI21716
aI21833
aI24840
aI24935
asI330
(lp331
I446
aI899
aI2083
aI2357
aI2473
aI2860
aI3341
aI4810
aI5333
aI6955
aI7067
aI9370
aI9676
aI9715
aI9739
aI9846
aI9900
aI10870
aI11469
aI12039
aI12201
aI13648
aI15680
aI17600
aI17661
aI18293
aI18578
aI19158
aI19666
aI20099
aI20320
aI20446
aI20480
aI21558
aI21954
aI22691
aI23183
aI23248
aI24357
aI24600
asI331
(lp332
I1087
aI1639
aI1990
aI2276
aI2318
aI2706
aI2899
aI3635
aI5372
aI6142
aI6351
aI6818
aI7194
aI8428
aI10085
aI10179
aI10242
aI10745
aI11217
aI11315
aI11490
aI11813
aI12291
aI12326
aI12341
aI12570
aI13000
aI13557
aI13966
aI13970
aI14117
aI14299
aI14449
aI14505
aI14583
aI14654
aI15511
aI15531
aI15562
aI16852
aI17358
aI17426
aI18384
aI18717
aI18731
aI20330
aI20770
aI20920
aI21369
aI21552
aI21602
aI21783
aI22466
aI22771
aI23194
aI23568
aI23764
aI23850
aI24345
aI24846
asI332
(lp333
I364
aI590
aI664
aI858
aI1118
aI2491
aI2788
aI3326
aI3929
aI5446
aI5501
aI5744
aI6026
aI6103
aI6321
aI6893
aI7156
aI7791
aI8582
aI8917
aI9000
aI9476
aI10213
aI10459
aI10525
aI10567
aI12559
aI12761
aI12886
aI13219
aI13718
aI14413
aI15076
aI15345
aI15510
aI15635
aI16003
aI18020
aI18944
aI19217
aI19261
aI20075
aI20612
aI21528
aI21567
aI21873
aI22322
aI23798
aI24082
asI333
(lp334
I36
aI50
aI722
aI1514
aI1640
aI1871
aI1972
aI3993
aI4243
aI4800
aI5064
aI5401
aI5523
aI5673
aI5702
aI5817
aI6690
aI7657
aI9896
aI9943
aI10057
aI11260
aI11302
aI11305
aI11900
aI11994
aI12400
aI13128
aI13311
aI13365
aI13883
aI14100
aI14172
aI15982
aI16115
aI16888
aI17383
aI17537
aI18139
aI18648
aI19238
aI19584
aI19726
aI19991
aI20162
aI20310
aI22064
aI22589
aI23319
aI23475
aI23665
aI23886
aI23993
asI334
(lp335
I321
aI391
aI676
aI1173
aI1365
aI1699
aI2260
aI2385
aI2829
aI3461
aI4052
aI6213
aI6346
aI6641
aI6934
aI6957
aI7454
aI7668
aI7754
aI8094
aI8184
aI8744
aI8813
aI9668
aI9762
aI9802
aI10016
aI10231
aI10332
aI11383
aI11481
aI11536
aI11547
aI11759
aI11894
aI12010
aI12092
aI12162
aI13732
aI14356
aI14409
aI14603
aI14905
aI14986
aI15634
aI16569
aI16771
aI18068
aI18783
aI19021
aI20917
aI21911
aI22066
aI22366
aI23589
aI23746
aI24627
asI335
(lp336
I54
aI216
aI533
aI2384
aI2439
aI2675
aI2716
aI3261
aI3893
aI3976
aI4736
aI4897
aI5299
aI5514
aI5601
aI6590
aI8046
aI8058
aI8109
aI9028
aI9055
aI9417
aI9686
aI10021
aI11151
aI11551
aI12543
aI13321
aI13593
aI14786
aI15258
aI15761
aI16049
aI16093
aI17223
aI18160
aI18820
aI18857
aI18907
aI19125
aI19445
aI21342
aI21853
aI21859
aI22182
aI22599
aI23301
asI336
(lp337
I104
aI709
aI1504
aI2218
aI3743
aI4966
aI5053
aI5186
aI7664
aI8448
aI8662
aI9027
aI9654
aI10444
aI11465
aI12428
aI12781
aI12800
aI13774
aI13841
aI14064
aI14582
aI15110
aI15240
aI15624
aI17808
aI18295
aI19801
aI20160
aI20769
aI21059
aI21392
aI21405
aI22867
aI23516
aI23784
aI23866
aI24189
asI337
(lp338
I37
aI243
aI1456
aI2179
aI2420
aI2581
aI2914
aI3240
aI3308
aI3877
aI4132
aI6722
aI6830
aI7135
aI7741
aI8912
aI12075
aI12221
aI12420
aI12591
aI12871
aI14223
aI14724
aI15674
aI16080
aI17032
aI17884
aI18008
aI18064
aI18402
aI18586
aI18776
aI19838
aI24108
aI24948
aI24952
asI338
(lp339
I62
aI569
aI950
aI1101
aI1644
aI4379
aI6196
aI6795
aI8181
aI9687
aI10190
aI10333
aI11268
aI11917
aI12619
aI12803
aI13162
aI14918
aI15108
aI16029
aI16706
aI16775
aI16964
aI19396
aI19846
aI22274
aI22514
aI22680
aI23094
aI23789
asI339
(lp340
I563
aI875
aI1472
aI3199
aI3349
aI3531
aI3952
aI4350
aI4845
aI4862
aI4870
aI5130
aI5336
aI6161
aI6495
aI7164
aI8063
aI8515
aI9677
aI9755
aI9854
aI9919
aI10920
aI11218
aI12257
aI12611
aI12678
aI12795
aI12802
aI13133
aI13412
aI14222
aI15048
aI15309
aI15783
aI16326
aI16583
aI16608
aI16756
aI16841
aI17880
aI17887
aI18834
aI18878
aI19019
aI19056
aI19784
aI20744
aI22033
aI22489
aI23635
aI24196
aI24938
asI340
(lp341
I116
aI2066
aI4266
aI6318
aI6519
aI7076
aI7596
aI7867
aI8294
aI9031
aI10713
aI12016
aI12952
aI13269
aI14442
aI14565
aI15326
aI16023
aI20200
aI21683
aI22828
aI24034
asI341
(lp342
I670
aI925
aI2037
aI2349
aI2474
aI2964
aI4794
aI5354
aI5444
aI5730
aI7672
aI8295
aI8361
aI8643
aI8778
aI9098
aI10436
aI11535
aI11812
aI12589
aI12825
aI12971
aI13753
aI14443
aI14637
aI14719
aI15973
aI16017
aI16096
aI16144
aI16459
aI17332
aI17469
aI17965
aI19276
aI19348
aI19734
aI19947
aI19949
aI20109
aI20357
aI20642
aI21105
aI22299
aI23673
aI23737
aI23964
asI342
(lp343
I271
aI579
aI996
aI1410
aI2153
aI2244
aI3087
aI8145
aI12382
aI12445
aI13309
aI13576
aI15167
aI15418
aI15726
aI15754
aI15979
aI16105
aI16214
aI16260
aI17350
aI18367
aI19207
aI19714
aI19719
aI20749
aI21272
aI21432
aI21581
aI23744
asI343
(lp344
I905
aI1105
aI2143
aI2466
aI3106
aI3486
aI4081
aI4246
aI4422
aI4544
aI5251
aI5257
aI5715
aI6011
aI6591
aI6714
aI9237
aI9626
aI10288
aI11292
aI11688
aI12818
aI13115
aI13641
aI13752
aI15887
aI16639
aI17811
aI18522
aI19464
aI19767
aI19856
aI21627
aI21669
aI21701
aI22294
aI23220
aI24127
aI24934
asI344
(lp345
I163
aI1994
aI2391
aI2401
aI2780
aI2881
aI4441
aI4582
aI4980
aI6293
aI6424
aI6471
aI6834
aI6959
aI7255
aI7270
aI7709
aI7753
aI7872
aI8387
aI8413
aI9280
aI9541
aI9838
aI9912
aI10129
aI10902
aI10968
aI11248
aI11380
aI11436
aI11899
aI12889
aI13110
aI13268
aI15192
aI15385
aI17660
aI17729
aI20549
aI22888
aI23151
aI23567
aI24535
aI24879
aI24917
asI345
(lp346
I66
aI146
aI813
aI2339
aI2584
aI2934
aI3423
aI4391
aI4755
aI4765
aI5862
aI6799
aI7047
aI11814
aI13338
aI14227
aI15263
aI17307
aI17578
aI17690
aI18036
aI19484
aI19744
aI20727
aI20888
aI21227
aI21270
aI21942
aI22373
aI22931
asI346
(lp347
I123
aI902
aI1658
aI2582
aI4691
aI4729
aI5280
aI5342
aI7852
aI8431
aI8936
aI9618
aI9745
aI9924
aI11826
aI12044
aI12497
aI12960
aI12965
aI12986
aI14730
aI14789
aI15611
aI16151
aI16428
aI16703
aI17978
aI18247
aI18341
aI18527
aI18976
aI20267
aI21344
aI21529
aI21577
aI21980
aI22632
aI22815
aI22928
aI24698
aI24973
asI347
(lp348
I175
aI928
aI1010
aI1510
aI1803
aI2210
aI3990
aI5380
aI5927
aI6003
aI6130
aI6393
aI6668
aI6702
aI7226
aI7301
aI8338
aI8757
aI8952
aI9184
aI9528
aI10289
aI10597
aI11009
aI11538
aI11891
aI15164
aI15288
aI15377
aI15403
aI16669
aI17856
aI17985
aI18768
aI19181
aI19480
aI19597
aI19678
aI20326
aI21519
aI23603
aI23642
aI23968
aI24315
asI348
(lp349
I168
aI398
aI463
aI1501
aI1530
aI1558
aI1779
aI2841
aI3633
aI3954
aI4128
aI4443
aI4518
aI4965
aI5017
aI5934
aI6155
aI6348
aI8026
aI8449
aI10872
aI11876
aI11960
aI15491
aI15857
aI16745
aI17380
aI18206
aI19211
aI19314
aI19449
aI19596
aI20120
aI21420
aI21877
aI22199
aI23156
aI23420
aI24477
asI349
(lp350
I361
aI2289
aI2368
aI3692
aI3813
aI5003
aI7122
aI7748
aI8452
aI9004
aI9110
aI9149
aI9885
aI11353
aI11378
aI11685
aI12349
aI12449
aI12704
aI15725
aI16010
aI16369
aI17273
aI18573
aI19096
aI20155
aI20658
aI21899
aI22488
aI23566
aI23931
aI24346
aI24487
aI24690
asI350
(lp351
I2212
aI2462
aI3141
aI3538
aI3639
aI6258
aI7878
aI8566
aI9599
aI10069
aI10208
aI11332
aI11519
aI13204
aI13565
aI13813
aI14180
aI15253
aI16279
aI17805
aI17921
aI21706
aI22595
aI23122
asI351
(lp352
I756
aI2119
aI4220
aI5174
aI5569
aI6091
aI6790
aI6986
aI7140
aI7195
aI7324
aI7449
aI8485
aI8692
aI9692
aI10165
aI10327
aI11414
aI11479
aI11573
aI13129
aI13739
aI13773
aI13829
aI13854
aI14304
aI15608
aI19057
aI19582
aI20504
aI21438
aI22082
aI22720
aI23153
aI23359
aI23633
aI23728
aI23815
aI24519
asI352
(lp353
I94
aI200
aI1007
aI1159
aI1532
aI1868
aI2257
aI2868
aI4714
aI5386
aI6982
aI8446
aI10855
aI11174
aI11357
aI11680
aI11794
aI11846
aI12119
aI12380
aI12924
aI13706
aI14066
aI14312
aI17419
aI17477
aI17734
aI18967
aI19240
aI22305
aI23284
aI23559
aI23733
aI24464
aI24974
asI353
(lp354
I152
aI388
aI577
aI1997
aI2377
aI3002
aI3145
aI4416
aI6403
aI6665
aI6691
aI6698
aI7470
aI7553
aI7790
aI7845
aI8734
aI8951
aI9105
aI9238
aI9353
aI9957
aI11502
aI12787
aI13470
aI13779
aI13796
aI13862
aI15955
aI16072
aI16259
aI16905
aI17369
aI17471
aI17834
aI18871
aI19345
aI20537
aI21383
aI21916
aI22583
aI23084
aI24645
aI24881
asI354
(lp355
I1264
aI1589
aI3019
aI3074
aI3444
aI3600
aI3613
aI3783
aI5370
aI5474
aI5953
aI7038
aI7483
aI8782
aI8822
aI9997
aI10201
aI10373
aI10643
aI12314
aI12735
aI13563
aI14007
aI14573
aI15629
aI15908
aI16958
aI17518
aI17773
aI17795
aI17954
aI18189
aI18432
aI18615
aI18903
aI20783
aI21754
aI22194
aI22483
aI22949
aI22973
aI24150
asI355
(lp356
I1381
aI1634
aI3060
aI3222
aI3350
aI4333
aI4713
aI5427
aI5864
aI5929
aI6333
aI6559
aI6748
aI6891
aI8074
aI8363
aI8668
aI9448
aI10548
aI10976
aI13148
aI14769
aI15355
aI15909
aI16968
aI17577
aI18046
aI18107
aI18136
aI18294
aI18323
aI18587
aI19326
aI20513
aI20604
aI23867
asI356
(lp357
I28
aI303
aI799
aI1562
aI1616
aI1676
aI1809
aI3710
aI4581
aI4587
aI4689
aI4843
aI5208
aI7057
aI7104
aI7201
aI7364
aI9363
aI9497
aI10195
aI11552
aI12103
aI13326
aI14156
aI14793
aI15826
aI16092
aI16175
aI16379
aI16482
aI17080
aI17370
aI18531
aI19381
aI19592
aI20649
aI21094
aI21229
aI22295
aI22725
aI23794
aI24758
aI24850
asI357
(lp358
I114
aI337
aI1171
aI1329
aI1465
aI2051
aI2362
aI3498
aI3595
aI3683
aI3796
aI4496
aI4834
aI4949
aI5471
aI5488
aI5738
aI6302
aI6338
aI7251
aI8828
aI9219
aI11127
aI11429
aI11457
aI13042
aI13187
aI13711
aI13742
aI13761
aI14329
aI14676
aI14752
aI15422
aI15456
aI16778
aI17114
aI17402
aI17509
aI17543
aI18548
aI18747
aI19822
aI20210
aI20721
aI21212
aI21430
aI21774
aI22345
aI22687
aI23098
aI23610
aI23981
aI24251
asI358
(lp359
I214
aI522
aI906
aI1132
aI1206
aI1917
aI2126
aI2306
aI2316
aI2409
aI3033
aI3895
aI4630
aI4880
aI5124
aI6515
aI6749
aI6872
aI6873
aI7071
aI7288
aI9827
aI10463
aI11368
aI12076
aI12431
aI13380
aI14389
aI15250
aI15590
aI16048
aI16270
aI16499
aI16576
aI17431
aI17831
aI19084
aI19274
aI19649
aI19735
aI19847
aI19871
aI20134
aI23686
aI23973
aI23984
asI359
(lp360
I647
aI1129
aI1830
aI2800
aI3065
aI3585
aI4614
aI5163
aI6089
aI6241
aI6443
aI7050
aI7877
aI8173
aI8178
aI8493
aI9817
aI11855
aI12038
aI13408
aI14072
aI14974
aI15245
aI15308
aI15687
aI18099
aI18331
aI18448
aI18790
aI19236
aI19694
aI20133
aI20577
aI20635
aI21656
aI23055
aI24246
aI24507
asI360
(lp361
I346
aI811
aI1738
aI1899
aI2032
aI2435
aI3078
aI3401
aI3483
aI3528
aI3676
aI4651
aI5787
aI8197
aI8512
aI8541
aI8742
aI8760
aI9015
aI9249
aI9434
aI9708
aI10889
aI11282
aI11761
aI11776
aI11850
aI11991
aI12170
aI13075
aI14416
aI14608
aI15069
aI15480
aI15709
aI16217
aI17251
aI17434
aI19967
aI20762
aI20831
aI23590
aI23653
aI23802
aI23969
aI24874
aI24918
asI361
(lp362
I113
aI199
aI357
aI2297
aI2776
aI3925
aI4200
aI4565
aI5524
aI6032
aI6201
aI6444
aI6740
aI7673
aI8142
aI8158
aI8520
aI8732
aI8806
aI9407
aI9967
aI10930
aI11640
aI11935
aI12346
aI12759
aI12959
aI13834
aI14842
aI15488
aI15788
aI16386
aI17092
aI17595
aI17638
aI17816
aI21060
aI22370
aI22542
asI362
(lp363
I266
aI348
aI556
aI820
aI1097
aI1158
aI1372
aI1664
aI1805
aI1971
aI3816
aI4823
aI4878
aI6354
aI7979
aI9010
aI9019
aI9698
aI10114
aI10183
aI10955
aI11024
aI11384
aI11394
aI13034
aI13067
aI13220
aI14759
aI14997
aI15560
aI15959
aI16120
aI16334
aI17599
aI18465
aI18714
aI19502
aI19566
aI19951
aI20170
aI20697
aI21030
aI21566
aI21643
aI21699
aI21965
aI22277
aI22454
aI23116
aI23736
aI23938
aI24149
aI24572
aI24937
asI363
(lp364
I1478
aI4035
aI4960
aI6585
aI7456
aI7495
aI8670
aI12376
aI12609
aI12859
aI13155
aI13695
aI14750
aI14944
aI15155
aI17534
aI17842
aI18201
aI18272
aI18991
aI19531
aI21231
aI21492
aI21557
aI21615
aI22770
aI23959
aI24254
aI24500
aI24793
asI364
(lp365
I23
aI699
aI2067
aI2149
aI4281
aI4316
aI6619
aI8851
aI9456
aI9811
aI10191
aI10331
aI10543
aI11210
aI11365
aI11627
aI13759
aI14694
aI17594
aI18542
aI18606
aI19120
aI19731
aI19909
aI20372
aI20437
aI20940
aI21895
aI22020
aI22214
aI22231
aI22251
aI22685
aI22837
aI23041
aI23071
aI23482
asI365
(lp366
I189
aI924
aI1283
aI2864
aI3198
aI3620
aI3833
aI4276
aI5869
aI5902
aI6273
aI9335
aI9414
aI9794
aI10581
aI12357
aI13113
aI13885
aI14003
aI14129
aI14345
aI14959
aI14993
aI15695
aI15916
aI16373
aI16800
aI17151
aI17620
aI18742
aI19025
aI19590
aI19646
aI20531
aI20556
aI22911
aI23318
aI23438
aI24540
aI24583
aI24784
asI366
(lp367
I959
aI997
aI1170
aI1284
aI2056
aI2375
aI2900
aI4257
aI4451
aI5288
aI5765
aI6170
aI6745
aI7028
aI7484
aI7611
aI8076
aI9263
aI10245
aI10473
aI12176
aI13434
aI14296
aI14865
aI15154
aI16102
aI16401
aI16593
aI17095
aI18092
aI18911
aI20499
aI21776
aI23097
asI367
(lp368
I173
aI221
aI720
aI2510
aI4309
aI4598
aI5321
aI5823
aI6017
aI6669
aI8535
aI8550
aI8724
aI8990
aI10116
aI10845
aI11325
aI11387
aI11948
aI11973
aI13670
aI13673
aI13933
aI15466
aI16377
aI17070
aI17377
aI18470
aI19283
aI20064
aI20964
aI21865
aI22010
aI22218
aI22664
aI22927
aI23435
aI23501
aI23685
aI23690
aI24719
asI368
(lp369
I1199
aI2328
aI2852
aI3123
aI3806
aI7354
aI8036
aI9285
aI9710
aI10007
aI11667
aI13378
aI15342
aI16529
aI17195
aI17943
aI17990
aI19026
aI19072
aI19190
aI19930
aI20883
aI22200
aI24089
aI24182
aI24297
asI369
(lp370
I1460
aI1734
aI2076
aI2430
aI2646
aI2902
aI3195
aI4045
aI6162
aI7237
aI7355
aI7750
aI8549
aI9081
aI9186
aI9423
aI10240
aI10441
aI10753
aI10781
aI11035
aI11478
aI12403
aI15956
aI16101
aI16190
aI16618
aI16907
aI17274
aI19039
aI20426
aI21040
aI21153
aI21305
aI22757
aI23065
aI23390
aI23481
aI24605
aI24829
aI24852
asI370
(lp371
I95
aI141
aI903
aI3043
aI3270
aI3610
aI4517
aI5770
aI5856
aI7315
aI8367
aI8579
aI9307
aI9995
aI10078
aI11693
aI12269
aI12770
aI13147
aI14041
aI14482
aI15003
aI15846
aI16451
aI16523
aI18244
aI18315
aI20327
aI20700
aI21252
aI21315
aI21445
aI21950
aI23304
aI23826
aI24412
aI24553
asI371
(lp372
I1009
aI1495
aI2180
aI2765
aI3764
aI3888
aI4319
aI5137
aI5688
aI5794
aI6459
aI6583
aI7491
aI7899
aI9659
aI10061
aI11118
aI11399
aI11946
aI12019
aI13123
aI13446
aI13464
aI13853
aI14330
aI14963
aI15351
aI16399
aI17863
aI18214
aI18724
aI19290
aI20734
aI21341
aI21839
aI21855
aI22594
aI24136
asI372
(lp373
I195
aI719
aI1594
aI2278
aI3342
aI3514
aI4529
aI4542
aI4916
aI5223
aI5612
aI6275
aI6747
aI6899
aI7014
aI8072
aI8221
aI8620
aI8626
aI9208
aI9609
aI9658
aI9744
aI9753
aI11077
aI11676
aI11711
aI12268
aI12579
aI13012
aI13254
aI13947
aI14177
aI15315
aI16376
aI16612
aI16861
aI18304
aI19402
aI19674
aI20042
aI21204
aI21474
aI21821
aI22269
aI22298
aI22826
aI23502
aI23514
aI24032
aI24062
aI24716
aI24893
asI373
(lp374
I485
aI1353
aI1746
aI1890
aI1959
aI2113
aI2173
aI2526
aI3237
aI3253
aI5910
aI6576
aI6877
aI8312
aI8359
aI8915
aI10053
aI10093
aI10144
aI10508
aI10585
aI10609
aI10829
aI11042
aI11203
aI11212
aI11239
aI11304
aI12870
aI14527
aI14685
aI14998
aI15185
aI15388
aI15585
aI15795
aI16038
aI16370
aI17291
aI17501
aI17533
aI17731
aI17984
aI18240
aI18408
aI18670
aI18676
aI19170
aI19291
aI19573
aI19900
aI20404
aI20438
aI21104
aI21281
aI21332
aI21844
aI22075
aI22262
aI22820
aI23492
aI23558
aI24317
aI24505
asI374
(lp375
I105
aI273
aI447
aI2192
aI3803
aI4303
aI4410
aI4993
aI5525
aI5860
aI6134
aI6153
aI6168
aI6356
aI7212
aI7280
aI7295
aI9223
aI9477
aI9966
aI11324
aI11766
aI12232
aI12769
aI13251
aI14078
aI14384
aI14420
aI14831
aI14969
aI15283
aI15569
aI15985
aI17155
aI18388
aI18852
aI19001
aI19064
aI19356
aI20647
aI20790
aI21384
aI21762
aI22424
aI22544
aI22951
aI23376
aI23667
aI23730
aI24936
asI375
(lp376
I1682
aI1808
aI3594
aI4805
aI5428
aI6416
aI6646
aI7368
aI8265
aI8844
aI11081
aI11425
aI11696
aI11968
aI12594
aI12914
aI13674
aI13701
aI14116
aI14390
aI16194
aI16692
aI17137
aI17689
aI17820
aI18177
aI19338
aI20611
aI20828
aI21205
aI21289
aI21659
aI21959
aI22633
aI22714
asI376
(lp377
I392
aI743
aI1153
aI1569
aI1791
aI2506
aI3092
aI3158
aI3420
aI3556
aI7452
aI7704
aI8309
aI8461
aI8939
aI9063
aI9281
aI9341
aI9568
aI9652
aI9839
aI10607
aI10784
aI10906
aI11631
aI11796
aI12167
aI12276
aI13279
aI14013
aI14382
aI14562
aI14606
aI14732
aI15633
aI16057
aI18518
aI18817
aI19143
aI19721
aI19792
aI20317
aI20401
aI21885
aI22647
aI23207
asI377
(lp378
I107
aI2048
aI2206
aI2264
aI2711
aI3390
aI5084
aI5316
aI5381
aI6199
aI7149
aI8127
aI8568
aI8784
aI9084
aI9516
aI9989
aI10211
aI12024
aI12487
aI14056
aI14073
aI15131
aI15900
aI17314
aI19486
aI20063
aI20689
aI21242
aI21987
aI22394
aI22434
aI22681
aI22896
aI23565
aI23628
aI23845
aI23887
aI24078
aI24260
asI378
(lp379
I1139
aI1574
aI1604
aI1849
aI1939
aI2041
aI2794
aI3592
aI3903
aI4078
aI4321
aI4987
aI5169
aI6875
aI9174
aI9413
aI9598
aI10225
aI10577
aI11076
aI11491
aI11514
aI11821
aI12724
aI12841
aI13319
aI13893
aI14055
aI14912
aI16303
aI16308
aI16896
aI20810
aI20843
aI21943
aI22102
aI22224
aI22546
aI23908
aI24819
aI24888
asI379
(lp380
I655
aI746
aI1362
aI2096
aI3460
aI4589
aI5071
aI6948
aI7118
aI7665
aI8100
aI8237
aI8776
aI8847
aI9132
aI9404
aI9492
aI10130
aI10541
aI11861
aI12574
aI12691
aI13212
aI14205
aI14574
aI16229
aI17567
aI17793
aI18246
aI19552
aI19656
aI20191
aI20608
aI21367
aI22460
aI23233
aI24241
asI380
(lp381
I2228
aI2566
aI2858
aI3216
aI4295
aI4725
aI4756
aI4955
aI5142
aI5371
aI7266
aI8277
aI9405
aI10417
aI10587
aI10595
aI11471
aI11886
aI12140
aI13159
aI13787
aI13964
aI14082
aI14364
aI14450
aI14939
aI15199
aI15517
aI16256
aI16663
aI17384
aI17396
aI18546
aI18809
aI19107
aI19273
aI20199
aI20251
aI20616
aI23624
aI24909
asI381
(lp382
I61
aI753
aI915
aI1576
aI1829
aI2859
aI3136
aI3882
aI4056
aI4119
aI4533
aI4907
aI5296
aI7637
aI7706
aI7856
aI8521
aI9486
aI10580
aI10779
aI12116
aI12675
aI13745
aI15676
aI17034
aI17951
aI20452
aI21074
aI21562
aI21921
aI22785
aI23641
aI23857
aI24433
asI382
(lp383
I714
aI731
aI1677
aI1729
aI1827
aI1872
aI2029
aI2262
aI2521
aI4235
aI4706
aI5209
aI5289
aI5735
aI6518
aI8342
aI11343
aI11705
aI12333
aI13403
aI14317
aI14748
aI15693
aI16403
aI16810
aI16869
aI16997
aI16999
aI17083
aI18098
aI19392
aI19634
aI19736
aI21122
aI21364
aI22141
aI22271
aI22415
aI22511
aI22804
aI23348
aI23542
aI23687
asI383
(lp384
I1176
aI1306
aI2525
aI3130
aI3565
aI3996
aI4058
aI5344
aI5478
aI6123
aI8861
aI8958
aI9011
aI9340
aI9858
aI10297
aI10419
aI11800
aI11961
aI12347
aI12995
aI13177
aI14794
aI15024
aI15452
aI15833
aI16422
aI16471
aI18869
aI19298
aI19747
aI21772
aI21998
aI22302
aI22585
aI23416
asI384
(lp385
I599
aI1268
aI1568
aI2259
aI2910
aI3108
aI3285
aI3387
aI3641
aI3942
aI4253
aI4928
aI5020
aI5304
aI5465
aI5834
aI6173
aI6887
aI7361
aI7373
aI8436
aI9050
aI9064
aI10714
aI11208
aI11555
aI11773
aI16289
aI16360
aI17473
aI17737
aI18245
aI18371
aI18861
aI19268
aI19517
aI19667
aI19830
aI20061
aI20308
aI21005
aI21221
aI21408
aI22291
aI23323
aI24138
aI24274
aI24663
asI385
(lp386
I1298
aI1436
aI2542
aI5102
aI5532
aI6335
aI6681
aI7536
aI8302
aI8466
aI9866
aI10172
aI10861
aI11452
aI11824
aI12501
aI13221
aI13246
aI14096
aI14707
aI14761
aI15473
aI16989
aI17115
aI17190
aI17335
aI19022
aI19159
aI19571
aI20130
aI20375
aI21433
aI22590
aI22859
aI23092
aI23625
aI24378
asI386
(lp387
I14
aI657
aI839
aI940
aI1541
aI3204
aI3274
aI3278
aI3621
aI3970
aI4133
aI4435
aI4690
aI4882
aI5188
aI5487
aI6352
aI6804
aI6938
aI6998
aI7299
aI7755
aI7896
aI8286
aI8382
aI9329
aI9810
aI10246
aI10431
aI11032
aI11206
aI11902
aI12194
aI12219
aI12545
aI12564
aI12912
aI13131
aI13284
aI13334
aI13543
aI13766
aI13863
aI15763
aI15891
aI15894
aI16044
aI16045
aI16654
aI16792
aI16834
aI17713
aI18376
aI18565
aI19138
aI19500
aI20024
aI20232
aI20270
aI20271
aI21110
aI21255
aI21296
aI21391
aI21609
aI22234
aI23374
aI23531
aI23821
aI24190
aI24574
aI24689
aI24951
asI387
(lp388
I166
aI1259
aI1534
aI1962
aI4043
aI4291
aI5754
aI5759
aI6605
aI6611
aI6663
aI7443
aI7635
aI7651
aI8139
aI9378
aI9596
aI10167
aI10343
aI10439
aI10890
aI11712
aI12758
aI13104
aI15821
aI16018
aI17858
aI20122
aI20341
aI20752
aI21513
aI21878
aI22032
aI22118
aI23530
aI24714
aI24797
asI388
(lp389
I335
aI1136
aI2128
aI3001
aI3280
aI3761
aI4666
aI5611
aI5801
aI5881
aI6648
aI7515
aI8450
aI8527
aI8973
aI9102
aI9170
aI10744
aI10949
aI11598
aI11692
aI12468
aI12829
aI13203
aI14083
aI14126
aI15551
aI15817
aI16213
aI16858
aI17815
aI18719
aI18934
aI19185
aI19216
aI19628
aI19633
aI19851
aI21412
aI21722
aI21901
aI23977
aI24263
aI24455
aI24510
aI24834
asI389
(lp390
I160
aI374
aI1693
aI1777
aI1979
aI2701
aI5450
aI5508
aI6592
aI6730
aI6771
aI6897
aI7086
aI8924
aI9702
aI10727
aI11805
aI12066
aI12323
aI12894
aI13053
aI13193
aI14245
aI14379
aI16091
aI16417
aI16478
aI17165
aI18025
aI18291
aI18501
aI19538
aI21071
aI21852
aI22755
aI23402
aI24080
aI24395
aI24538
asI390
(lp391
I932
aI1140
aI1704
aI1754
aI1785
aI2154
aI4031
aI4144
aI4439
aI4898
aI7041
aI7861
aI8504
aI9119
aI9401
aI10038
aI10487
aI10771
aI10799
aI11116
aI11379
aI12028
aI12492
aI13349
aI13535
aI13886
aI13979
aI14281
aI15257
aI16134
aI16691
aI16939
aI17682
aI18969
aI19311
aI19352
aI19562
aI20056
aI20238
aI20707
aI20906
aI23100
aI23245
aI23465
asI391
(lp392
I145
aI988
aI1358
aI1735
aI2753
aI2754
aI3003
aI6254
aI6793
aI7306
aI7844
aI8150
aI8723
aI10254
aI10550
aI10665
aI10838
aI11407
aI11445
aI11613
aI13022
aI13373
aI14383
aI14605
aI15457
aI15535
aI16005
aI16565
aI17068
aI17562
aI17720
aI18961
aI20060
aI21057
aI21473
aI21903
aI22406
aI22458
aI23016
aI23773
aI24922
asI392
(lp393
I384
aI1049
aI1413
aI1814
aI1945
aI3110
aI3424
aI3614
aI3856
aI4411
aI5788
aI5909
aI6685
aI7900
aI9542
aI10261
aI11832
aI12970
aI14465
aI14956
aI14973
aI15584
aI17548
aI18034
aI18646
aI19806
aI20425
aI20562
aI20588
aI20714
aI21535
aI22786
aI23146
aI24061
aI24635
aI24955
asI393
(lp394
I197
aI583
aI3064
aI4902
aI5840
aI6268
aI6973
aI7823
aI8592
aI10619
aI12074
aI12456
aI12903
aI14228
aI15255
aI15519
aI15890
aI16733
aI17224
aI17363
aI17605
aI17948
aI21240
aI22013
aI22517
aI22551
aI23912
aI23936
asI394
(lp395
I2522
aI3072
aI3304
aI4086
aI5904
aI7001
aI8211
aI9212
aI9663
aI9883
aI10133
aI10648
aI13006
aI13379
aI13849
aI13921
aI14361
aI14926
aI16700
aI16949
aI17136
aI17226
aI18161
aI18703
aI18725
aI19685
aI20272
aI20832
aI22540
aI22731
aI23249
aI23529
aI23724
aI24396
aI24411
aI24513
aI24753
asI395
(lp396
I2578
aI2615
aI3943
aI5228
aI5906
aI6820
aI7229
aI7323
aI7777
aI9012
aI10593
aI10813
aI10871
aI11181
aI12013
aI13101
aI13765
aI14930
aI15077
aI15200
aI16664
aI16984
aI17008
aI17531
aI18541
aI24027
asI396
(lp397
I230
aI849
aI879
aI1050
aI1172
aI1386
aI1593
aI1932
aI2446
aI3117
aI5090
aI5277
aI5419
aI6387
aI7019
aI7313
aI7434
aI7462
aI8961
aI9390
aI9556
aI9627
aI9911
aI10048
aI10638
aI10770
aI10774
aI11047
aI11656
aI11767
aI12386
aI12671
aI13234
aI14579
aI16731
aI17262
aI17535
aI18941
aI19705
aI20046
aI20126
aI20626
aI21321
aI21426
aI21785
aI21922
aI22612
aI22768
aI22910
aI23014
aI23164
aI23580
aI24684
asI397
(lp398
I72
aI120
aI370
aI381
aI1801
aI2548
aI3017
aI4234
aI4270
aI5585
aI5919
aI6931
aI7257
aI9053
aI9884
aI10009
aI10028
aI10056
aI10546
aI11522
aI13310
aI14288
aI14874
aI15046
aI17102
aI17395
aI18010
aI18595
aI18649
aI18673
aI19029
aI19398
aI19956
aI20055
aI20076
aI20237
aI20485
aI20493
aI20750
aI21237
aI21244
aI21268
aI21526
aI21958
aI22651
aI22855
aI23059
aI23306
aI24562
aI24693
asI398
(lp399
I481
aI1240
aI1692
aI3434
aI4210
aI5040
aI5375
aI5890
aI6395
aI6673
aI6909
aI7070
aI8655
aI10140
aI11225
aI11895
aI12529
aI12537
aI12720
aI13181
aI13273
aI13307
aI13716
aI13786
aI14430
aI14860
aI16286
aI17296
aI17409
aI18211
aI18299
aI19270
aI19725
aI19839
aI20141
aI21597
aI21808
aI22228
aI22953
aI23045
aI23570
aI23750
aI23776
aI24925
asI399
(lp400
I544
aI1070
aI1347
aI1789
aI1891
aI2480
aI3248
aI3561
aI4025
aI4505
aI4865
aI6890
aI7879
aI8731
aI9003
aI9411
aI9539
aI10782
aI10807
aI10921
aI11523
aI12098
aI12264
aI13300
aI13357
aI13395
aI13475
aI13512
aI13991
aI14870
aI14999
aI15054
aI15191
aI15401
aI16515
aI17130
aI17840
aI18594
aI18797
aI19441
aI19835
aI19933
aI20411
aI22436
aI22793
aI22830
aI22895
aI22983
aI24865
asI400
(lp401
I82
aI759
aI907
aI1883
aI2341
aI2416
aI2851
aI3462
aI3724
aI4117
aI4123
aI4607
aI4657
aI4738
aI4857
aI4860
aI5016
aI5538
aI7105
aI7771
aI8556
aI9043
aI9421
aI9689
aI10090
aI10361
aI10552
aI10748
aI11002
aI11562
aI12666
aI12897
aI14248
aI14434
aI14447
aI15236
aI15299
aI15318
aI15722
aI15737
aI16013
aI16445
aI16965
aI17002
aI17157
aI17747
aI18205
aI20152
aI20298
aI21086
aI21618
aI22774
aI23828
aI23903
aI24069
aI24256
aI24669
aI24725
asI401
(lp402
I118
aI1137
aI1369
aI1475
aI1536
aI1860
aI1983
aI2073
aI2399
aI3077
aI3079
aI3203
aI4622
aI5268
aI6433
aI7298
aI9450
aI9558
aI9771
aI9860
aI10159
aI10663
aI12476
aI13263
aI14131
aI14139
aI14823
aI15628
aI15716
aI16066
aI16684
aI16982
aI17128
aI17141
aI17775
aI19212
aI19675
aI19749
aI19828
aI22104
aI23508
aI23629
aI23768
aI24139
aI24436
aI24647
aI24802
asI402
(lp403
I429
aI559
aI2631
aI2638
aI3104
aI3214
aI3530
aI6095
aI6223
aI6739
aI7058
aI7111
aI7474
aI7792
aI9179
aI9719
aI10194
aI10351
aI10846
aI11112
aI11715
aI12887
aI13901
aI14174
aI14985
aI15067
aI17475
aI17896
aI17937
aI18094
aI18105
aI18219
aI20092
aI20180
aI20808
aI20990
aI21163
aI22028
aI22724
aI23314
aI23944
aI23949
aI24408
asI403
(lp404
I2809
aI3506
aI3702
aI4621
aI4789
aI5093
aI5253
aI6243
aI7506
aI7721
aI7910
aI8275
aI10630
aI11420
aI13317
aI13720
aI14720
aI15290
aI15553
aI15597
aI18268
aI19715
aI20031
aI20784
aI21773
aI21801
aI21983
aI23168
aI24423
asI404
(lp405
I843
aI1168
aI1651
aI1761
aI2075
aI3544
aI4216
aI5306
aI5451
aI5918
aI6533
aI6964
aI7634
aI7677
aI9756
aI10498
aI10859
aI10940
aI11385
aI11451
aI11499
aI13355
aI13869
aI14487
aI14493
aI15327
aI16047
aI16870
aI17837
aI18485
aI18535
aI18692
aI18923
aI19631
aI19682
aI19976
aI20575
aI20676
aI20869
aI20973
aI21354
aI22857
aI22965
aI23299
aI24759
asI405
(lp406
I1060
aI1080
aI1115
aI1205
aI1210
aI1333
aI3268
aI3361
aI3602
aI3622
aI3684
aI3707
aI3885
aI4040
aI5819
aI6419
aI6732
aI7701
aI8351
aI8487
aI10407
aI10415
aI11546
aI13069
aI14804
aI16219
aI16547
aI16930
aI19305
aI19367
aI19664
aI20009
aI20079
aI20821
aI20885
aI24065
aI24215
aI24644
aI24658
aI24956
asI406
(lp407
I2150
aI2175
aI2268
aI2406
aI3337
aI4427
aI4737
aI4863
aI5187
aI5339
aI5458
aI7152
aI7547
aI8337
aI9005
aI11604
aI12353
aI12994
aI13559
aI14027
aI15049
aI15140
aI16536
aI16727
aI16759
aI17393
aI17458
aI18009
aI18411
aI19507
aI20634
aI20795
aI20799
aI20848
aI22201
aI22419
aI23511
aI24417
asI407
(lp408
I260
aI2157
aI2467
aI4104
aI4268
aI4602
aI5098
aI5602
aI5972
aI6135
aI6401
aI6907
aI7148
aI7481
aI7887
aI8088
aI8681
aI9562
aI9694
aI10042
aI10091
aI10265
aI10676
aI10708
aI10987
aI11014
aI11695
aI11842
aI12127
aI12489
aI13488
aI13748
aI13804
aI15000
aI15078
aI15513
aI17822
aI17852
aI17931
aI18000
aI18082
aI18483
aI18793
aI19242
aI19320
aI19521
aI19614
aI20360
aI21011
aI21975
aI22095
aI22905
aI24566
asI408
(lp409
I2007
aI2393
aI2619
aI4063
aI5052
aI5361
aI5388
aI5426
aI5802
aI6125
aI6137
aI6757
aI9211
aI9903
aI10326
aI11154
aI11193
aI12212
aI13584
aI14611
aI14866
aI15162
aI15233
aI16024
aI16494
aI17103
aI17170
aI17551
aI18853
aI19003
aI19144
aI20335
aI20753
aI20779
aI21610
aI22154
aI22240
aI22375
aI23189
aI24703
asI409
(lp410
I896
aI4425
aI4847
aI6963
aI7461
aI8032
aI8315
aI9491
aI10778
aI12000
aI13249
aI13460
aI13948
aI15134
aI15499
aI15825
aI15969
aI16014
aI16773
aI16962
aI17108
aI18048
aI18478
aI18828
aI18912
aI19503
aI19799
aI20132
aI21333
aI22210
aI22244
aI23400
aI24512
aI24667
aI24864
asI410
(lp411
I20
aI708
aI904
aI1250
aI1317
aI1991
aI3227
aI3823
aI4122
aI5026
aI5986
aI7171
aI7249
aI7404
aI10394
aI11511
aI11745
aI14026
aI14531
aI14563
aI16462
aI19109
aI19896
aI20835
aI21379
aI22638
aI23462
aI23463
aI23976
asI411
(lp412
I101
aI488
aI884
aI1451
aI2941
aI3523
aI4618
aI5232
aI5397
aI5528
aI6885
aI11189
aI11545
aI13500
aI14667
aI15708
aI16457
aI17247
aI18019
aI19086
aI19993
aI20651
aI20817
aI21129
aI22989
aI23062
aI24463
aI24620
asI412
(lp413
I439
aI1331
aI2272
aI3161
aI3521
aI6167
aI6412
aI7274
aI7516
aI10152
aI10426
aI10957
aI11550
aI11701
aI11758
aI12780
aI12958
aI13350
aI13432
aI13527
aI16338
aI16942
aI17256
aI17647
aI17789
aI18945
aI19328
aI19817
aI20157
aI20302
aI20329
aI21506
aI21902
aI24432
aI24498
asI413
(lp414
I2124
aI2499
aI2736
aI2979
aI3155
aI4458
aI4539
aI6000
aI7098
aI8380
aI8590
aI9187
aI10941
aI11157
aI11247
aI11468
aI12238
aI13697
aI14053
aI15497
aI15870
aI16398
aI17321
aI17437
aI17478
aI18355
aI21098
aI21114
aI22385
aI22713
asI414
(lp415
I103
aI224
aI853
aI1000
aI1503
aI2160
aI3249
aI3782
aI4921
aI5204
aI5808
aI5858
aI6624
aI7751
aI8020
aI8999
aI10540
aI14039
aI15943
aI16015
aI17006
aI17078
aI17715
aI18401
aI18404
aI18890
aI19699
aI19704
aI21194
aI21207
aI22268
aI22912
aI24074
aI24614
aI24859
asI415
(lp416
I247
aI1023
aI1513
aI2197
aI2458
aI4481
aI4677
aI5560
aI5661
aI7647
aI8688
aI8694
aI8947
aI9097
aI10421
aI10818
aI11135
aI11137
aI11901
aI12130
aI13048
aI13600
aI13843
aI15032
aI15824
aI15871
aI17846
aI18462
aI18516
aI18922
aI19492
aI20224
aI20407
aI20436
aI20518
aI21300
aI21337
aI21929
aI22300
aI22325
aI22390
aI22963
aI23469
aI23534
aI23660
aI23871
aI24849
aI24923
asI416
(lp417
I1234
aI2028
aI2077
aI2635
aI3872
aI4154
aI4389
aI4450
aI4954
aI5199
aI5396
aI5454
aI5469
aI6116
aI6506
aI6696
aI6737
aI7685
aI7809
aI8201
aI9114
aI9239
aI9584
aI9679
aI10008
aI10166
aI10182
aI10423
aI10882
aI11434
aI11649
aI11698
aI12118
aI12426
aI12652
aI13437
aI13607
aI13952
aI14674
aI14770
aI14838
aI15271
aI15331
aI16394
aI16998
aI17205
aI17583
aI18015
aI18032
aI19055
aI19225
aI19409
aI19550
aI20316
aI20566
aI20648
aI21862
aI22320
aI22752
aI24312
asI417
(lp418
I396
aI785
aI975
aI1126
aI1191
aI1418
aI1520
aI2421
aI2771
aI3453
aI3492
aI4103
aI4125
aI4296
aI4376
aI4578
aI4853
aI5315
aI5468
aI5764
aI6439
aI7362
aI7365
aI8598
aI9501
aI9641
aI10295
aI11717
aI12482
aI13322
aI13468
aI13656
aI14015
aI14268
aI14423
aI15304
aI15339
aI15939
aI16226
aI17316
aI19444
aI19970
aI20097
aI20165
aI20561
aI22077
aI23073
aI23226
aI23708
aI23809
aI24230
aI24285
asI418
(lp419
I502
aI877
aI1873
aI2251
aI2540
aI3132
aI5792
aI6485
aI7764
aI8031
aI8236
aI8611
aI9087
aI10076
aI10098
aI10435
aI10447
aI10903
aI11779
aI12580
aI12794
aI13406
aI15762
aI16298
aI16789
aI17051
aI18123
aI18125
aI18895
aI19047
aI19182
aI19955
aI20169
aI20565
aI20801
aI21796
aI22203
aI22729
aI23770
aI24380
aI24428
aI24522
aI24877
asI419
(lp420
I76
aI562
aI797
aI1348
aI1642
aI1753
aI3031
aI3912
aI3982
aI4911
aI5127
aI5329
aI5774
aI6074
aI6218
aI10258
aI10801
aI11220
aI11277
aI11587
aI12307
aI12481
aI12775
aI12987
aI13354
aI13417
aI13694
aI14373
aI14609
aI14919
aI15570
aI15644
aI15749
aI16461
aI17282
aI17865
aI19852
aI20339
aI21155
aI21258
aI21789
aI22276
aI22282
aI22553
aI22575
aI23892
aI24327
asI420
(lp421
I493
aI2555
aI3042
aI3510
aI3549
aI6165
aI6461
aI6654
aI7139
aI7786
aI7937
aI8260
aI8297
aI10430
aI11019
aI12917
aI13758
aI14343
aI14519
aI15958
aI18150
aI19642
aI21008
aI21380
aI21427
aI21436
aI22946
aI23731
aI24198
aI24525
aI24900
aI24970
asI421
(lp422
I963
aI1454
aI2170
aI2942
aI3671
aI4390
aI4403
aI4504
aI4841
aI4909
aI4989
aI5060
aI5813
aI6956
aI7182
aI7338
aI7566
aI7909
aI9189
aI9339
aI9387
aI9527
aI9602
aI11155
aI12163
aI12193
aI12467
aI12925
aI14246
aI15254
aI15915
aI16249
aI16274
aI16319
aI16801
aI16897
aI17191
aI17208
aI18077
aI18856
aI19254
aI19272
aI19963
aI20543
aI21168
aI22119
aI22420
aI22459
aI22519
aI24208
aI24385
aI24511
asI422
(lp423
I375
aI1030
aI1553
aI2494
aI3171
aI4426
aI4809
aI5146
aI5356
aI5429
aI5880
aI6232
aI7333
aI9412
aI9915
aI10424
aI11569
aI11665
aI13329
aI13573
aI14225
aI15147
aI15885
aI16305
aI16675
aI17042
aI17077
aI17869
aI17973
aI18110
aI18867
aI18975
aI20836
aI21626
aI22134
aI23104
aI23417
aI23473
asI423
(lp424
I85
aI182
aI1024
aI1474
aI1607
aI2822
aI3718
aI4634
aI4687
aI5407
aI5851
aI7305
aI7881
aI7956
aI8683
aI10865
aI12342
aI12786
aI13079
aI14327
aI14500
aI15646
aI16119
aI17712
aI17813
aI17847
aI18365
aI19030
aI19333
aI19727
aI20290
aI20586
aI21248
aI21454
aI21503
aI22475
aI23310
aI23823
aI23832
aI24827
asI424
(lp425
I1151
aI2229
aI2865
aI3045
aI3115
aI3591
aI3709
aI4057
aI4254
aI4269
aI5466
aI6486
aI9075
aI12477
aI13497
aI14025
aI14446
aI17835
aI17971
aI18611
aI19257
aI20101
aI20747
aI20867
aI21084
aI21177
aI21363
aI22027
aI22243
aI22381
aI23169
aI23269
aI23327
aI23388
aI24044
aI24692
asI425
(lp426
I726
aI791
aI1385
aI1608
aI1703
aI2944
aI3315
aI3439
aI3675
aI4219
aI5573
aI5581
aI5749
aI6656
aI7180
aI7774
aI8758
aI9594
aI11462
aI12433
aI12642
aI12718
aI13039
aI14140
aI14376
aI14618
aI14925
aI15270
aI16967
aI17039
aI18093
aI19374
aI19858
aI20208
aI21259
aI21738
aI23198
asI426
(lp427
I2670
aI4306
aI4646
aI5462
aI5619
aI5799
aI5956
aI6509
aI6852
aI7391
aI8268
aI9171
aI10899
aI11531
aI12148
aI12388
aI12713
aI13835
aI15127
aI15992
aI16711
aI16857
aI17975
aI18128
aI18770
aI18840
aI18963
aI20986
aI22288
aI24306
aI24369
aI24763
asI427
(lp428
I40
aI305
aI318
aI452
aI833
aI2367
aI3541
aI4140
aI4948
aI5324
aI5635
aI5812
aI5922
aI8542
aI9490
aI12478
aI12880
aI13122
aI13942
aI14911
aI15577
aI15755
aI15946
aI17022
aI17106
aI17177
aI17294
aI17542
aI17817
aI19263
aI20202
aI21085
aI21128
aI22135
aI23373
aI24558
asI428
(lp429
I368
aI638
aI1130
aI1793
aI1794
aI2813
aI2836
aI2855
aI4468
aI4974
aI6046
aI6311
aI6651
aI7099
aI7995
aI8051
aI8929
aI10237
aI10658
aI12253
aI12614
aI12638
aI13845
aI14282
aI15160
aI16141
aI16863
aI17716
aI18505
aI18787
aI19034
aI19511
aI20654
aI22076
aI23039
aI23411
aI24560
aI24607
asI429
(lp430
I138
aI454
aI600
aI1022
aI1044
aI1313
aI3693
aI3780
aI4398
aI5988
aI6410
aI7199
aI7291
aI8021
aI8107
aI8354
aI8414
aI9226
aI9419
aI10915
aI12033
aI12311
aI12669
aI12834
aI14564
aI15174
aI15723
aI16466
aI17935
aI18686
aI19299
aI19883
aI20153
aI21607
aI21713
aI22376
aI22543
aI24349
asI430
(lp431
I1046
aI1373
aI1714
aI3825
aI4364
aI4489
aI4655
aI4682
aI4856
aI6031
aI6526
aI6756
aI7097
aI9963
aI10661
aI10943
aI11088
aI11264
aI11351
aI11905
aI13199
aI13250
aI14945
aI15084
aI16275
aI16538
aI16827
aI16963
aI17871
aI18030
aI18305
aI18739
aI20204
aI20921
aI21158
aI21524
aI21765
aI21797
aI22044
aI23142
aI23747
aI24963
asI431
(lp432
I1529
aI2440
aI2761
aI2807
aI2984
aI3118
aI4798
aI4806
aI5771
aI5901
aI6114
aI6310
aI6607
aI6660
aI6902
aI7161
aI8501
aI9302
aI9944
aI9950
aI10533
aI10803
aI11309
aI11645
aI11951
aI12362
aI12511
aI13180
aI13503
aI13734
aI15092
aI16442
aI18311
aI19310
aI19318
aI19811
aI21545
aI22941
aI23025
aI23715
aI24469
asI432
(lp433
I184
aI249
aI957
aI1351
aI1598
aI2606
aI2819
aI3441
aI3751
aI4297
aI5314
aI5568
aI5997
aI7263
aI9873
aI10383
aI10716
aI10939
aI11184
aI11835
aI12791
aI13383
aI13388
aI13919
aI15086
aI15104
aI15222
aI15658
aI15712
aI16966
aI17667
aI17919
aI18067
aI18688
aI18908
aI19005
aI19407
aI21410
aI21572
aI22247
aI23541
aI23554
aI24609
asI433
(lp434
I13
aI60
aI1085
aI1845
aI4636
aI4694
aI5235
aI6033
aI6449
aI8114
aI8392
aI10612
aI10743
aI12174
aI12369
aI12457
aI12766
aI13613
aI14005
aI14249
aI14766
aI15714
aI16181
aI16838
aI16960
aI17443
aI17766
aI18524
aI19743
aI21786
aI22186
aI23962
aI24957
asI434
(lp435
I227
aI1260
aI1428
aI1750
aI2164
aI2338
aI2369
aI2924
aI3207
aI3619
aI3907
aI4858
aI4968
aI5373
aI5566
aI6534
aI6536
aI6609
aI6676
aI6870
aI7089
aI9389
aI9758
aI11182
aI11702
aI11873
aI12722
aI13020
aI13692
aI14012
aI14749
aI15930
aI16496
aI16708
aI17139
aI17767
aI18065
aI18274
aI18447
aI18562
aI18893
aI19106
aI19110
aI19142
aI20253
aI21782
aI22764
aI23991
aI24003
asI435
(lp436
I239
aI272
aI1958
aI2168
aI2529
aI2802
aI5086
aI5617
aI5645
aI5677
aI5954
aI6307
aI6366
aI9581
aI10506
aI11416
aI12304
aI13173
aI14339
aI14725
aI16367
aI16485
aI16490
aI18204
aI18493
aI19304
aI21046
aI21690
aI22860
aI23005
aI23170
aI24201
aI24715
asI436
(lp437
I458
aI1461
aI2811
aI3931
aI4746
aI6209
aI6917
aI7548
aI7773
aI8772
aI8925
aI9875
aI10759
aI11114
aI11216
aI12676
aI13164
aI13493
aI13533
aI13832
aI15492
aI16051
aI17188
aI17269
aI17604
aI17707
aI17844
aI18322
aI18864
aI18898
aI19116
aI19977
aI20421
aI21419
aI23771
aI24193
aI24561
asI437
(lp438
I44
aI196
aI809
aI1265
aI2705
aI2768
aI3184
aI4766
aI7913
aI8007
aI8033
aI9082
aI9241
aI10185
aI10263
aI13413
aI13653
aI14551
aI16288
aI16359
aI16474
aI18116
aI19652
aI19903
aI20021
aI20922
aI20971
aI21707
aI22120
aI22143
aI22580
aI22618
aI22797
asI438
(lp439
I270
aI436
aI2293
aI2327
aI3367
aI3445
aI3603
aI4401
aI4493
aI4671
aI5542
aI6309
aI6808
aI8241
aI10935
aI11205
aI11682
aI12762
aI13093
aI13308
aI13619
aI15804
aI17626
aI18687
aI19386
aI19497
aI19516
aI19906
aI21154
aI21211
asI439
(lp440
I961
aI1359
aI1528
aI1716
aI2019
aI3298
aI3489
aI3599
aI4222
aI4648
aI4922
aI6787
aI7234
aI7918
aI8495
aI9029
aI9264
aI9725
aI10306
aI10377
aI11270
aI11405
aI11602
aI13702
aI14623
aI14765
aI15367
aI15455
aI16012
aI16184
aI16295
aI16875
aI17666
aI17827
aI19028
aI20287
aI20911
aI21171
aI22065
aI22904
aI22934
aI23504
aI23524
aI24271
aI24319
aI24992
asI440
(lp441
I1061
aI1198
aI1663
aI1964
aI3191
aI3435
aI3450
aI3497
aI3536
aI3548
aI3649
aI4373
aI4761
aI5226
aI5305
aI5535
aI5976
aI6035
aI6088
aI6468
aI6675
aI7805
aI9393
aI9700
aI10079
aI10810
aI11898
aI12750
aI14497
aI16265
aI16541
aI16687
aI17711
aI18066
aI18450
aI19334
aI19432
aI19739
aI19872
aI20650
aI21313
aI21371
aI21477
aI22577
aI23271
aI23767
aI24204
aI24273
aI24451
asI441
(lp442
I540
aI1239
aI1397
aI1706
aI1741
aI3360
aI3756
aI4660
aI7126
aI7329
aI7528
aI8106
aI8190
aI8249
aI8856
aI9642
aI9904
aI10479
aI10596
aI10685
aI10914
aI11291
aI12091
aI12251
aI12534
aI12596
aI12693
aI13271
aI13660
aI14840
aI16255
aI17127
aI17173
aI17216
aI17318
aI17576
aI17579
aI17885
aI18497
aI18643
aI18704
aI18936
aI19033
aI19061
aI19258
aI19636
aI20181
aI20777
aI21152
aI22071
aI22248
aI23302
aI23613
aI23999
aI24289
asI442
(lp443
I984
aI1310
aI2118
aI2891
aI4099
aI4221
aI5594
aI5727
aI5937
aI7214
aI8818
aI9254
aI9430
aI9531
aI10786
aI10891
aI12515
aI12849
aI15050
aI15230
aI16004
aI18203
aI19011
aI19267
aI21375
aI21638
aI23133
aI23267
aI23326
aI23600
aI24388
asI443
(lp444
I773
aI913
aI990
aI1323
aI1489
aI1949
aI3965
aI4326
aI5484
aI5497
aI6246
aI7005
aI7559
aI8459
aI8609
aI8686
aI8865
aI11498
aI11615
aI11724
aI12129
aI13382
aI14530
aI15313
aI15575
aI15588
aI16402
aI16432
aI17357
aI18652
aI19522
aI19595
aI20494
aI20913
aI21353
aI21537
aI22506
aI23128
aI23461
aI24143
aI24787
asI444
(lp445
I1441
aI2014
aI3416
aI3878
aI5480
aI5878
aI6504
aI7051
aI9065
aI9759
aI9908
aI9992
aI10788
aI11055
aI12168
aI12530
aI14250
aI15845
aI15963
aI16046
aI16673
aI17104
aI17556
aI18060
aI18633
aI18728
aI19037
aI19094
aI19713
aI19718
aI20225
aI21019
aI22448
asI445
(lp446
I1497
aI2071
aI2664
aI3097
aI3190
aI4434
aI5769
aI6434
aI7674
aI9121
aI9483
aI10145
aI10805
aI12043
aI13882
aI14036
aI14468
aI14586
aI14601
aI14995
aI15019
aI15413
aI17021
aI17445
aI17794
aI18891
aI19164
aI20136
aI21502
aI22124
aI22699
aI23478
aI23846
aI24153
aI24569
aI24907
asI446
(lp447
I75
aI646
aI1462
aI1851
aI2554
aI3687
aI4335
aI4781
aI6300
aI7366
aI7415
aI8362
aI9067
aI9953
aI10060
aI10681
aI11104
aI12272
aI12547
aI12896
aI13125
aI13510
aI14512
aI15344
aI15500
aI15720
aI15921
aI17182
aI17541
aI17961
aI18199
aI18609
aI19015
aI19194
aI20688
aI22587
aI24462
aI24496
aI24501
aI24950
asI447
(lp448
I328
aI1350
aI1874
aI2460
aI2536
aI3020
aI4108
aI4925
aI4934
aI5080
aI6470
aI6476
aI6746
aI7262
aI7471
aI7534
aI7775
aI8606
aI8638
aI9697
aI10084
aI10199
aI11381
aI11646
aI11741
aI13615
aI14439
aI15122
aI15251
aI15472
aI16495
aI16981
aI17517
aI18429
aI18484
aI18618
aI18795
aI19391
aI19612
aI20203
aI21064
aI21348
aI21648
aI21715
aI21817
aI22168
aI22533
aI23311
asI448
(lp449
I57
aI283
aI578
aI1166
aI1621
aI1862
aI2039
aI3994
aI4327
aI5181
aI5718
aI6211
aI6423
aI6428
aI6863
aI7065
aI8330
aI8840
aI9977
aI10325
aI11515
aI11628
aI12089
aI12877
aI13336
aI15353
aI15496
aI15645
aI16652
aI17612
aI17653
aI18628
aI20453
aI21967
aI22016
aI22892
aI23079
aI23650
aI23994
asI449
(lp450
I269
aI730
aI1446
aI1645
aI2431
aI4054
aI4764
aI4827
aI5070
aI6291
aI6530
aI6813
aI6958
aI7174
aI8077
aI8403
aI8411
aI8612
aI9309
aI9869
aI11739
aI11853
aI12861
aI12888
aI13059
aI13659
aI14638
aI16077
aI18850
aI19408
aI19512
aI20800
aI20991
aI21467
aI21994
aI22441
aI23765
asI450
(lp451
I856
aI1296
aI2102
aI2763
aI3026
aI3414
aI4412
aI4559
aI4884
aI8343
aI8533
aI9054
aI9391
aI9889
aI9972
aI10127
aI10207
aI10823
aI10944
aI12282
aI13057
aI13622
aI13876
aI14647
aI14808
aI17131
aI17132
aI19149
aI19942
aI20070
aI20173
aI20304
aI20541
aI21395
aI21554
aI21646
aI22025
aI23308
aI23546
asI451
(lp452
I240
aI1163
aI3183
aI3746
aI4516
aI4698
aI4961
aI5926
aI6951
aI7863
aI8075
aI8783
aI10077
aI10216
aI10358
aI11107
aI11228
aI11566
aI12939
aI13490
aI14964
aI16420
aI16449
aI17331
aI20957
aI21508
aI21695
aI22014
aI22015
aI23185
aI23806
asI452
(lp453
I920
aI1150
aI1384
aI1584
aI1838
aI1924
aI2145
aI2452
aI2620
aI3103
aI3583
aI5872
aI6839
aI8394
aI10693
aI11187
aI11393
aI12785
aI13635
aI14168
aI14476
aI14610
aI14767
aI17243
aI17424
aI19587
aI19600
aI19655
aI19984
aI20275
aI21634
aI21996
aI22362
aI22572
aI22787
aI23085
aI23190
aI24996
asI453
(lp454
I1008
aI2060
aI5412
aI6301
aI8674
aI9826
aI10812
aI13071
aI13585
aI14368
aI15831
aI15893
aI16603
aI16606
aI16797
aI17474
aI17677
aI17917
aI17925
aI17993
aI18225
aI18635
aI20394
aI20558
aI20669
aI20751
aI20856
aI21111
aI21423
aI21523
aI21940
aI21976
aI23734
aI24762
asI454
(lp455
I2089
aI2719
aI2743
aI2867
aI2995
aI6101
aI7409
aI7859
aI8543
aI8960
aI13120
aI13298
aI13484
aI14428
aI14587
aI14655
aI14684
aI14988
aI15139
aI15142
aI15153
aI15405
aI15544
aI16416
aI16831
aI19002
aI19605
aI20228
aI21951
aI22037
aI23176
aI24250
asI455
(lp456
I861
aI1998
aI2847
aI3157
aI3456
aI3559
aI3723
aI5660
aI6206
aI6729
aI7022
aI7498
aI8677
aI8767
aI8773
aI9195
aI9505
aI11120
aI13112
aI14257
aI14585
aI14929
aI15532
aI16054
aI16125
aI16336
aI19089
aI19459
aI19902
aI21000
aI21679
aI23622
aI24094
asI456
(lp457
I1208
aI2275
aI2302
aI2441
aI3113
aI4151
aI4710
aI5666
aI6404
aI7131
aI7293
aI8793
aI9384
aI11308
aI11857
aI12615
aI12946
aI13143
aI13283
aI13374
aI14524
aI15012
aI15286
aI15598
aI16812
aI17508
aI17783
aI17956
aI18264
aI18422
aI21072
aI21090
aI22012
aI22128
aI22329
aI22635
aI22721
aI23152
aI23695
aI24207
aI24593
asI457
(lp458
I973
aI1215
aI1487
aI2204
aI3156
aI4331
aI4446
aI4490
aI5062
aI5588
aI6021
aI6381
aI6514
aI6613
aI6932
aI7154
aI8055
aI8863
aI10049
aI10468
aI11408
aI12435
aI12695
aI12908
aI13620
aI13820
aI15495
aI15928
aI16007
aI16383
aI16514
aI17235
aI17632
aI18218
aI18509
aI18696
aI18760
aI23801
aI24731
asI458
(lp459
I876
aI1443
aI2572
aI2720
aI2808
aI3356
aI3365
aI3537
aI4091
aI4400
aI4952
aI5011
aI5083
aI5273
aI5300
aI5529
aI6472
aI8159
aI8438
aI8885
aI9790
aI10058
aI10438
aI10458
aI11016
aI12368
aI12830
aI12864
aI13462
aI13902
aI14464
aI14678
aI16358
aI16697
aI16720
aI17148
aI17467
aI17755
aI18183
aI18290
aI18352
aI18558
aI19009
aI19231
aI20288
aI20656
aI20739
aI20806
aI21066
aI21532
aI21662
aI21837
aI24404
asI459
(lp460
I181
aI418
aI771
aI825
aI1281
aI1424
aI1823
aI3554
aI3980
aI4562
aI5112
aI5623
aI5960
aI6083
aI7616
aI9332
aI9461
aI9782
aI9987
aI10196
aI11238
aI11279
aI11327
aI11334
aI11564
aI11787
aI11815
aI11822
aI11976
aI14392
aI14429
aI14705
aI16683
aI16818
aI17248
aI17360
aI17446
aI18364
aI18600
aI18953
aI20235
aI20719
aI21525
aI21630
aI22034
aI22048
aI24022
aI24954
asI460
(lp461
I2211
aI3371
aI4142
aI4532
aI4536
aI4988
aI5597
aI6343
aI6783
aI7552
aI8496
aI8963
aI10994
aI11866
aI12581
aI12726
aI13547
aI14435
aI14872
aI15179
aI15810
aI16203
aI18974
aI20183
aI20945
aI22356
aI22780
aI22877
aI22974
aI23795
asI461
(lp462
I63
aI185
aI217
aI2068
aI2549
aI3791
aI4026
aI4512
aI4773
aI5457
aI6150
aI6480
aI8120
aI9107
aI9232
aI9250
aI9512
aI11265
aI11890
aI11913
aI13004
aI13134
aI13642
aI14040
aI14315
aI14850
aI15663
aI17171
aI17222
aI17981
aI19774
aI19874
aI20632
aI22557
aI22667
aI23620
aI24458
aI24884
asI462
(lp463
I465
aI685
aI1214
aI2873
aI3908
aI5547
aI7285
aI7944
aI9526
aI9774
aI10219
aI11374
aI11589
aI12018
aI16481
aI16651
aI19280
aI19529
aI19791
aI19863
aI19913
aI20475
aI21052
aI23811
aI24687
aI24866
asI463
(lp464
I164
aI194
aI473
aI649
aI1197
aI2190
aI2477
aI2699
aI2796
aI5646
aI5742
aI6332
aI10384
aI10613
aI11086
aI11903
aI12773
aI13151
aI13287
aI14240
aI15333
aI16772
aI17175
aI17297
aI17946
aI17964
aI18108
aI18986
aI19482
aI19683
aI20560
aI21247
aI23338
aI24173
aI24439
asI464
(lp465
I3225
aI3429
aI4037
aI4175
aI7328
aI8282
aI8748
aI9607
aI12866
aI13683
aI14071
aI15830
aI16011
aI16169
aI16366
aI16906
aI17495
aI18168
aI19286
aI19499
aI19975
aI20149
aI20440
aI21029
aI21288
aI22384
aI22871
aI23527
aI23591
aI24443
asI465
(lp466
I689
aI1253
aI1338
aI1431
aI1786
aI2789
aI2993
aI3082
aI3847
aI4018
aI4339
aI4556
aI5249
aI5393
aI5572
aI7026
aI7656
aI7729
aI8213
aI8754
aI9685
aI11045
aI11049
aI11638
aI12112
aI12846
aI12978
aI13041
aI13276
aI14115
aI14837
aI15027
aI15440
aI16629
aI17060
aI17300
aI17403
aI17404
aI17801
aI17991
aI18115
aI18571
aI18750
aI18998
aI19680
aI19780
aI20516
aI21095
aI21576
aI21711
aI21792
aI22354
aI22894
aI23158
aI24269
aI24438
asI466
(lp467
I65
aI848
aI1174
aI1618
aI1717
aI1931
aI2400
aI4170
aI4674
aI4849
aI5248
aI6661
aI8418
aI9248
aI9318
aI9517
aI10924
aI11011
aI11713
aI12208
aI12844
aI12919
aI12926
aI13515
aI13905
aI14477
aI14675
aI14846
aI16063
aI17764
aI17947
aI18174
aI19004
aI19994
aI20014
aI20851
aI21080
aI22799
aI23251
aI24168
asI467
(lp468
I55
aI276
aI1099
aI1412
aI2159
aI4375
aI5221
aI5238
aI6357
aI6622
aI6709
aI7666
aI7676
aI7965
aI9041
aI9059
aI9572
aI10004
aI11530
aI12017
aI12223
aI12242
aI12598
aI12847
aI13158
aI13985
aI14188
aI14495
aI15302
aI15657
aI17910
aI19256
aI19650
aI20080
aI20396
aI20624
aI21415
aI21741
aI22558
aI22625
aI24656
asI468
(lp469
I261
aI280
aI1274
aI1896
aI2209
aI2256
aI2285
aI2669
aI3547
aI4228
aI4320
aI5489
aI5711
aI6077
aI6946
aI7589
aI7605
aI7669
aI7838
aI9154
aI9655
aI9712
aI10218
aI10481
aI10904
aI11122
aI11392
aI11938
aI11993
aI12957
aI13218
aI13278
aI13586
aI14176
aI14349
aI14407
aI15115
aI15463
aI15984
aI16100
aI17328
aI17857
aI17989
aI18045
aI19350
aI20067
aI20587
aI21564
aI22970
aI23075
aI23804
aI23884
aI24015
aI24159
asI469
(lp470
I360
aI2746
aI4032
aI4201
aI4476
aI7465
aI7533
aI7638
aI7915
aI8433
aI9428
aI10303
aI11600
aI11617
aI12027
aI14721
aI14803
aI15247
aI16510
aI17366
aI17465
aI17607
aI18844
aI19812
aI19862
aI20383
aI20910
aI21347
aI22068
aI22146
aI22310
aI24362
aI24811
asI470
(lp471
I124
aI393
aI2292
aI2715
aI3046
aI3623
aI3944
aI4502
aI4994
aI7705
aI8198
aI8238
aI9588
aI10103
aI13145
aI14150
aI15066
aI15516
aI15625
aI15631
aI15756
aI15892
aI15960
aI16331
aI16781
aI17158
aI20356
aI21475
aI23415
aI24813
aI24814
asI471
(lp472
I93
aI492
aI1615
aI1798
aI2120
aI2478
aI2928
aI3080
aI3105
aI4129
aI5669
aI5973
aI6080
aI6572
aI7215
aI7523
aI8013
aI8492
aI8962
aI9200
aI10573
aI11139
aI11261
aI12240
aI13440
aI14047
aI14232
aI14347
aI14619
aI14897
aI15242
aI16533
aI16690
aI16698
aI17025
aI17391
aI17468
aI18026
aI19151
aI19434
aI19927
aI20949
aI21352
aI21497
aI21536
aI21583
aI21649
aI22675
aI24128
aI24459
aI24514
asI472
(lp473
I253
aI821
aI1219
aI1297
aI2254
aI3784
aI4098
aI4463
aI5379
aI6807
aI7092
aI7347
aI7457
aI7630
aI7891
aI8733
aI8967
aI9242
aI10271
aI10433
aI11401
aI12712
aI13575
aI14085
aI14734
aI15026
aI15151
aI15406
aI16517
aI16564
aI17150
aI19184
aI19424
aI20419
aI20683
aI23713
aI24683
asI473
(lp474
I128
aI237
aI460
aI1499
aI1564
aI1844
aI1989
aI2355
aI3477
aI3606
aI3667
aI4071
aI4111
aI4613
aI4936
aI5198
aI5938
aI5964
aI6016
aI6029
aI7903
aI7985
aI8193
aI9585
aI11176
aI12188
aI12364
aI13685
aI13743
aI14020
aI14101
aI14132
aI14302
aI14521
aI14534
aI15079
aI15101
aI15782
aI16312
aI16820
aI16851
aI16911
aI17180
aI18348
aI20716
aI20898
aI21234
aI21478
aI23110
aI23410
aI24632
asI474
(lp475
I674
aI844
aI2240
aI2486
aI2607
aI4344
aI6773
aI7893
aI8796
aI9058
aI9519
aI11483
aI12105
aI13579
aI14008
aI14366
aI16912
aI20118
aI20805
aI21658
aI22534
aI23015
aI23662
aI23698
aI24216
aI24341
asI475
(lp476
I417
aI1120
aI1653
aI1888
aI2834
aI2839
aI2923
aI3576
aI4102
aI4731
aI4784
aI5046
aI5156
aI5798
aI6079
aI6252
aI6579
aI6600
aI6753
aI9203
aI10668
aI10822
aI11691
aI13247
aI14726
aI15860
aI16034
aI16979
aI17759
aI19359
aI19588
aI19850
aI20515
aI20644
aI21530
aI22163
aI22554
aI23003
aI23315
aI24133
aI24281
aI24886
asI476
(lp477
I501
aI595
aI2214
aI4887
aI5593
aI6750
aI7732
aI8195
aI8480
aI8522
aI8985
aI9090
aI9394
aI10027
aI10738
aI11441
aI12373
aI12687
aI13333
aI13428
aI14287
aI15601
aI16816
aI16837
aI19068
aI20332
aI20502
aI22760
aI23564
aI23740
aI24171
asI477
(lp478
I27
aI301
aI1857
aI2447
aI2575
aI2621
aI2922
aI3754
aI4366
aI6176
aI6494
aI7377
aI7850
aI8981
aI12031
aI12746
aI14385
aI14387
aI14862
aI15041
aI16644
aI17688
aI17873
aI17950
aI18413
aI19961
aI21446
aI23701
aI24046
aI24610
asI478
(lp479
I491
aI666
aI1322
aI1565
aI2334
aI3425
aI3616
aI5420
aI5763
aI6227
aI6230
aI6329
aI6535
aI7426
aI7544
aI8725
aI8729
aI8735
aI8995
aI9632
aI10535
aI11652
aI12423
aI13783
aI15128
aI15682
aI16479
aI16594
aI17037
aI17231
aI17488
aI17768
aI18216
aI18405
aI18467
aI19183
aI19382
aI22307
aI23878
aI23972
aI24081
asI479
(lp480
I295
aI349
aI1521
aI2484
aI2577
aI3085
aI3801
aI4096
aI5883
aI6701
aI6978
aI8112
aI8356
aI10138
aI11432
aI11780
aI12578
aI12737
aI13214
aI13850
aI13934
aI14773
aI15364
aI15579
aI16176
aI17064
aI17447
aI18378
aI19233
aI19373
aI19910
aI20195
aI20415
aI20882
aI21175
aI21894
aI22773
aI23217
aI23699
aI23810
aI24214
aI24287
aI24475
aI24530
asI480
(lp481
I1672
aI2291
aI3091
aI3124
aI4174
aI4837
aI5477
aI6260
aI6330
aI6577
aI7420
aI8029
aI9168
aI10486
aI10802
aI10951
aI11390
aI11716
aI11920
aI12058
aI13715
aI14195
aI15429
aI16143
aI16342
aI16493
aI16813
aI16821
aI18950
aI19118
aI19265
aI20382
aI20595
aI21044
aI21947
aI22794
aI22914
aI23029
aI24075
aI24449
aI24947
asI481
(lp482
I588
aI918
aI1646
aI2779
aI4186
aI5590
aI6884
aI7008
aI7603
aI7871
aI7946
aI8914
aI9230
aI11454
aI11736
aI12996
aI13658
aI14355
aI14751
aI16559
aI16598
aI16865
aI17313
aI17663
aI17899
aI18059
aI19103
aI19389
aI19390
aI19519
aI20286
aI21330
aI22253
aI22364
aI22485
aI22999
aI23118
aI24876
asI482
(lp483
I684
aI1438
aI2461
aI2595
aI2888
aI3209
aI3259
aI3511
aI3765
aI3964
aI4149
aI5756
aI6465
aI8402
aI8544
aI9252
aI9970
aI10124
aI10158
aI10817
aI10866
aI11296
aI12134
aI12183
aI12258
aI13094
aI13245
aI14051
aI14821
aI15493
aI16079
aI16526
aI18481
aI19423
aI19446
aI20278
aI20798
aI23718
aI23854
aI24492
aI24587
aI24588
aI24657
aI24709
asI483
(lp484
I713
aI1332
aI1643
aI2674
aI3122
aI3375
aI3468
aI3914
aI4038
aI4188
aI4522
aI5201
aI5649
aI6055
aI6369
aI6707
aI7275
aI7316
aI8233
aI9095
aI9600
aI10151
aI10270
aI11892
aI12565
aI14263
aI14365
aI16746
aI17147
aI17293
aI17453
aI17512
aI17826
aI18549
aI19180
aI19506
aI19659
aI19703
aI20811
aI21271
aI22624
aI22627
aI23341
aI23793
asI484
(lp485
I307
aI593
aI642
aI1377
aI2194
aI2433
aI4519
aI4975
aI5690
aI6067
aI6316
aI7803
aI8217
aI9130
aI10269
aI10362
aI12133
aI12473
aI13450
aI13540
aI14119
aI17107
aI17636
aI17639
aI17744
aI17855
aI18196
aI18603
aI19617
aI21370
aI21687
aI22023
aI22578
aI22697
aI22975
aI24018
aI24381
asI485
(lp486
I627
aI1201
aI2708
aI3036
aI4971
aI5313
aI6159
aI7549
aI9209
aI9276
aI9666
aI10017
aI10200
aI10273
aI11737
aI11990
aI12086
aI12306
aI12725
aI12755
aI12885
aI14303
aI15809
aI15867
aI15931
aI16355
aI16409
aI16747
aI17026
aI17500
aI18079
aI18279
aI19487
aI21434
aI21891
aI22024
aI22586
aI24735
asI486
(lp487
I760
aI780
aI1486
aI1973
aI2004
aI3283
aI3654
aI4034
aI4247
aI4413
aI5197
aI5332
aI5363
aI5490
aI6819
aI7318
aI7522
aI7565
aI9480
aI9551
aI10209
aI11404
aI12087
aI12776
aI13479
aI13913
aI14369
aI15450
aI16444
aI19403
aI19609
aI20794
aI21459
aI23471
aI24898
asI487
(lp488
I774
aI1018
aI2058
aI2374
aI2454
aI3407
aI3480
aI5830
aI7341
aI7546
aI7728
aI8587
aI8633
aI8835
aI9088
aI9343
aI9524
aI9799
aI10485
aI10800
aI11610
aI12522
aI12650
aI13191
aI13421
aI13618
aI15543
aI15965
aI17893
aI18292
aI18410
aI18784
aI19623
aI20709
aI20726
aI20858
aI22045
aI22052
aI22468
aI22847
aI23040
aI23616
aI23671
aI23861
asI488
(lp489
I122
aI592
aI798
aI2090
aI2221
aI2996
aI3413
aI5700
aI7919
aI7928
aI7958
aI8605
aI9144
aI9921
aI10705
aI11000
aI11597
aI12090
aI12252
aI13014
aI13169
aI13362
aI15112
aI15922
aI16153
aI16418
aI16552
aI16793
aI16871
aI17349
aI18690
aI19845
aI20955
aI21015
aI22429
aI22849
aI22998
aI23353
aI24175
asI489
(lp490
I764
aI1421
aI2269
aI2740
aI4799
aI6010
aI6550
aI6588
aI6851
aI7372
aI7920
aI8274
aI11064
aI11278
aI11444
aI12865
aI13755
aI13851
aI14163
aI14771
aI15653
aI16283
aI17454
aI18949
aI20379
aI20838
aI21538
aI22763
aI24205
aI24774
aI24854
aI24988
asI490
(lp491
I552
aI587
aI979
aI2589
aI2798
aI3025
aI3597
aI3661
aI5229
aI5810
aI5999
aI6560
aI6985
aI7189
aI7650
aI8042
aI8291
aI8896
aI8943
aI9383
aI11659
aI12037
aI13740
aI14799
aI15020
aI18835
aI19394
aI19907
aI22026
aI22386
aI22789
aI23865
aI24733
asI491
(lp492
I277
aI998
aI1036
aI1177
aI2140
aI2844
aI3255
aI3509
aI4157
aI4645
aI4728
aI4873
aI6325
aI6643
aI7957
aI8817
aI10700
aI10776
aI10831
aI13741
aI14559
aI16714
aI19869
aI19899
aI20078
aI20512
aI20557
aI20759
aI22985
aI24255
aI24817
asI492
(lp493
I2915
aI2930
aI3590
aI3656
aI4355
aI5139
aI5378
aI5729
aI6280
aI8144
aI8555
aI8684
aI9042
aI9991
aI10454
aI10519
aI10602
aI10721
aI10985
aI12980
aI13339
aI13471
aI13769
aI13976
aI14718
aI14935
aI15383
aI15686
aI15889
aI16235
aI16950
aI17499
aI18559
aI19804
aI20454
aI20667
aI21230
aI23431
aI24688
asI493
(lp494
I320
aI1364
aI3378
aI4252
aI4353
aI4963
aI5121
aI5777
aI5975
aI7459
aI7851
aI8708
aI9173
aI9301
aI9849
aI10352
aI11003
aI11164
aI11723
aI11783
aI11836
aI12421
aI13969
aI15874
aI15990
aI17371
aI17745
aI18195
aI18267
aI18734
aI18781
aI19491
aI20918
aI21814
aI21981
aI24595
asI494
(lp495
I98
aI137
aI1247
aI2270
aI3256
aI3883
aI4173
aI4503
aI5219
aI5940
aI6313
aI6549
aI7048
aI8101
aI8386
aI9287
aI9561
aI10310
aI12026
aI12743
aI13592
aI13806
aI14202
aI14629
aI14937
aI15083
aI15758
aI18368
aI18920
aI19841
aI20951
aI21702
aI22795
aI22813
aI23282
asI495
(lp496
I705
aI1535
aI2010
aI2348
aI2479
aI2524
aI2538
aI2618
aI4198
aI4357
aI4541
aI4762
aI5159
aI7072
aI7793
aI7976
aI8451
aI8666
aI9313
aI10304
aI11106
aI11191
aI11537
aI12046
aI13433
aI14062
aI14820
aI15034
aI15487
aI15746
aI16016
aI16126
aI16307
aI16347
aI16783
aI17125
aI17417
aI17665
aI17959
aI17963
aI18241
aI18307
aI19488
aI20053
aI22063
aI22423
aI22566
aI23208
aI23405
aI23717
asI496
(lp497
I236
aI1506
aI1774
aI3646
aI3694
aI4229
aI5110
aI5192
aI6586
aI7185
aI9193
aI9518
aI9547
aI10170
aI10808
aI12415
aI12701
aI14755
aI15424
aI15471
aI16546
aI18316
aI18706
aI19395
aI19589
aI19648
aI20710
aI20892
aI21069
aI21842
aI21999
aI22379
aI22427
aI23157
aI23573
aI24077
aI24111
asI497
(lp498
I921
aI1505
aI2065
aI2889
aI3068
aI3172
aI4951
aI5271
aI5551
aI6136
aI6800
aI8595
aI8696
aI9619
aI11340
aI11475
aI11697
aI11771
aI12001
aI12552
aI13049
aI13344
aI14290
aI14903
aI14970
aI15484
aI15784
aI16083
aI17850
aI18152
aI18453
aI18819
aI19173
aI19279
aI20045
aI20995
aI21276
aI22526
aI23769
aI24147
asI498
(lp499
I654
aI2481
aI4255
aI4888
aI4915
aI6169
aI7468
aI7727
aI8079
aI8374
aI8381
aI11026
aI11085
aI11630
aI11820
aI11989
aI12070
aI12141
aI12532
aI13013
aI14653
aI14671
aI15062
aI15470
aI17841
aI18187
aI19461
aI20280
aI20980
aI20998
aI21953
aI23437
aI24192
asI499
(lp500
I2063
aI2373
aI2728
aI3277
aI3381
aI4261
aI4385
aI7184
aI7604
aI7680
aI7939
aI10761
aI11474
aI11768
aI11859
aI11982
aI12224
aI12685
aI13617
aI14033
aI14427
aI15149
aI15204
aI15476
aI16744
aI16885
aI17649
aI18979
aI20175
aI20384
aI20484
aI20583
aI20853
aI21661
aI21880
aI22332
aI24700
asI500
(lp501
I205
aI1079
aI1870
aI3099
aI3678
aI5544
aI6602
aI7082
aI7987
aI8786
aI8977
aI9495
aI9591
aI10772
aI11426
aI11830
aI13294
aI13724
aI18167
aI18798
aI19027
aI19840
aI21486
aI22880
aI24134
asI501
(lp502
I231
aI297
aI457
aI729
aI814
aI1155
aI1337
aI2332
aI3229
aI4202
aI4314
aI4418
aI4588
aI5357
aI5472
aI6041
aI6493
aI6821
aI6858
aI7177
aI9044
aI9631
aI11054
aI11689
aI11785
aI12647
aI12854
aI13456
aI14306
aI15613
aI15750
aI15911
aI15977
aI16159
aI16627
aI16806
aI17159
aI17258
aI19010
aI19226
aI19619
aI19670
aI20281
aI20581
aI21051
aI21139
aI21141
aI21946
aI22676
aI23682
aI24129
asI502
(lp503
I770
aI854
aI1464
aI1571
aI2797
aI2845
aI2905
aI2939
aI3244
aI5695
aI5713
aI5875
aI6078
aI6182
aI6331
aI6382
aI6939
aI7167
aI7866
aI7952
aI7978
aI9529
aI9978
aI10134
aI11138
aI11150
aI11473
aI11504
aI11512
aI12249
aI14294
aI14828
aI14847
aI15803
aI17345
aI18984
aI20796
aI21233
aI21657
aI23242
aI24360
aI24604
asI503
(lp504
I159
aI294
aI631
aI783
aI1029
aI1500
aI1834
aI2372
aI2685
aI4163
aI5440
aI5839
aI8935
aI10755
aI11612
aI11788
aI11944
aI12145
aI12317
aI13980
aI14058
aI14453
aI14683
aI14714
aI14931
aI15071
aI16314
aI16685
aI16985
aI17220
aI19250
aI19447
aI19555
aI20627
aI21113
aI22562
aI22579
aI22619
aI22791
aI24556
asI504
(lp505
I892
aI1343
aI1919
aI2556
aI2565
aI2686
aI3010
aI4158
aI4524
aI4631
aI5348
aI7109
aI7569
aI7924
aI8037
aI8373
aI8805
aI8972
aI9716
aI10030
aI10256
aI10346
aI10391
aI10450
aI11361
aI12155
aI12891
aI12905
aI13327
aI13764
aI13990
aI14581
aI15320
aI15330
aI15395
aI16200
aI16723
aI17167
aI17168
aI17325
aI17949
aI18017
aI18215
aI18330
aI18637
aI18897
aI19360
aI19540
aI19541
aI20720
aI22440
aI22538
aI22782
aI22966
aI23493
aI23940
aI24104
aI24545
asI505
(lp506
I1680
aI1825
aI2869
aI3252
aI4007
aI4059
aI4384
aI4438
aI4967
aI5908
aI6270
aI6575
aI6655
aI6713
aI7032
aI7667
aI7912
aI8409
aI9974
aI10087
aI10250
aI12938
aI14186
aI14652
aI14873
aI15678
aI15961
aI16850
aI17261
aI17510
aI17514
aI19073
aI19738
aI20294
aI20380
aI20812
aI20900
aI21542
aI22674
aI23351
aI24245
aI24771
aI24904
asI506
(lp507
I56
aI553
aI1543
aI1728
aI3187
aI3408
aI6554
aI6919
aI7064
aI7521
aI7722
aI8824
aI9778
aI11017
aI11156
aI11215
aI12273
aI12370
aI12819
aI13531
aI13657
aI14981
aI15632
aI15741
aI15745
aI16486
aI16921
aI17572
aI20400
aI20793
aI21116
aI23068
aI23406
aI23817
aI23952
asI507
(lp508
I225
aI246
aI371
aI614
aI947
aI969
aI1122
aI2492
aI2603
aI2687
aI2913
aI3306
aI3411
aI4284
aI5106
aI5512
aI5806
aI6075
aI6290
aI6451
aI6779
aI7042
aI8946
aI9534
aI9706
aI10119
aI10858
aI12136
aI12218
aI12576
aI12698
aI12961
aI13140
aI13478
aI13589
aI14091
aI14444
aI14620
aI15458
aI16042
aI16223
aI17914
aI18014
aI18506
aI19141
aI19554
aI19561
aI19990
aI20520
aI20846
aI21594
aI22742
aI23539
aI24322
aI24924
asI508
(lp509
I268
aI601
aI733
aI1014
aI2174
aI2668
aI3604
aI4049
aI4271
aI4313
aI5704
aI6874
aI7332
aI8133
aI8140
aI8879
aI9135
aI9843
aI11259
aI11997
aI12411
aI12561
aI13491
aI14722
aI14832
aI15559
aI16699
aI16886
aI16994
aI17420
aI19594
aI20068
aI20775
aI21253
aI21311
aI22157
aI22425
aI22900
aI24243
aI24324
asI509
(lp510
I845
aI1969
aI2475
aI6108
aI7714
aI8417
aI9946
aI10673
aI11087
aI11513
aI12455
aI12556
aI13025
aI13210
aI13560
aI15103
aI15498
aI15878
aI15980
aI16702
aI16854
aI17023
aI17908
aI18091
aI18126
aI18398
aI18605
aI19122
aI20159
aI20211
aI20961
aI20963
aI21753
aI22031
aI23086
aI23197
aI23213
aI23970
aI24095
aI24638
aI24734
aI24833
asI510
(lp511
I919
aI930
aI2573
aI2605
aI4885
aI4903
aI6589
aI8263
aI8676
aI8711
aI8804
aI9713
aI10840
aI10849
aI12261
aI12612
aI13126
aI13141
aI13649
aI14544
aI18317
aI18965
aI19606
aI19974
aI19995
aI20309
aI20312
aI21083
aI22662
aI23448
asI511
(lp512
I586
aI628
aI1124
aI1340
aI1861
aI2379
aI2532
aI2727
aI3135
aI3679
aI3809
aI4183
aI4478
aI4791
aI4830
aI5719
aI5837
aI6295
aI6829
aI6871
aI7374
aI8405
aI9328
aI9437
aI10397
aI12806
aI12879
aI14471
aI15427
aI15730
aI16389
aI17536
aI19285
aI20435
aI20596
aI20870
aI23941
aI24387
aI24494
aI24804
aI24998
asI512
(lp513
I539
aI603
aI1110
aI1635
aI2901
aI3910
aI4020
aI4029
aI5534
aI9837
aI9895
aI9905
aI10255
aI10302
aI10365
aI10905
aI12025
aI12949
aI13186
aI13655
aI13879
aI13895
aI13983
aI14664
aI15950
aI16180
aI16657
aI17738
aI18013
aI18302
aI20322
aI22885
aI22971
aI23447
aI24097
aI24976
asI513
(lp514
I1179
aI2203
aI2311
aI2359
aI3040
aI3396
aI4095
aI4308
aI4328
aI4479
aI4546
aI4707
aI4977
aI5422
aI5452
aI8860
aI10110
aI12527
aI12568
aI14627
aI14810
aI15481
aI15807
aI18061
aI19416
aI20239
aI20946
aI21026
aI21130
aI21213
aI22602
aI23232
aI23428
aI24266
asI514
(lp515
I58
aI367
aI1415
aI1637
aI2018
aI2310
aI2381
aI2894
aI3231
aI3969
aI5870
aI7505
aI8479
aI8713
aI9080
aI10036
aI10895
aI12263
aI12950
aI14456
aI14596
aI15172
aI16424
aI16802
aI17368
aI17597
aI17683
aI17722
aI19769
aI19794
aI19795
aI20874
aI21127
aI21228
aI22608
aI24424
asI515
(lp516
I520
aI534
aI3500
aI4153
aI4442
aI4617
aI5341
aI5470
aI6367
aI7858
aI7943
aI8333
aI8984
aI10789
aI10791
aI11288
aI12637
aI13605
aI14031
aI14859
aI14893
aI16728
aI16833
aI16957
aI17394
aI18217
aI18396
aI19099
aI19176
aI19330
aI19710
aI20218
aI20408
aI21575
aI22242
aI23297
aI23749
aI24020
aI24782
asI516
(lp517
I3578
aI4185
aI6207
aI7785
aI9282
aI10083
aI14088
aI14473
aI14727
aI16294
aI16686
aI17309
aI17848
aI18627
aI18656
aI18843
aI22822
aI22835
aI24307
aI24491
asI517
(lp518
I366
aI633
aI1905
aI1938
aI2198
aI2799
aI3322
aI3399
aI3668
aI4436
aI4600
aI6761
aI8157
aI8323
aI8468
aI8714
aI9392
aI9662
aI9954
aI10212
aI10511
aI13498
aI14489
aI14588
aI14856
aI16191
aI16765
aI17232
aI18927
aI19969
aI21404
aI21429
aI21664
aI21680
aI22270
aI22358
aI22363
aI22792
aI22806
aI23538
aI24007
aI24745
asI518
(lp519
I2035
aI2280
aI2404
aI3995
aI4003
aI4647
aI5366
aI5392
aI6866
aI7272
aI7622
aI8462
aI9576
aI9721
aI9938
aI10235
aI10294
aI11458
aI12080
aI12839
aI13206
aI14877
aI15224
aI15899
aI16221
aI17470
aI18579
aI18620
aI18632
aI19296
aI20034
aI20490
aI20527
aI20861
aI23067
aI23082
aI24585
asI519
(lp520
I289
aI308
aI1739
aI1867
aI2336
aI2594
aI3849
aI5210
aI8304
aI8407
aI9372
aI9560
aI9738
aI10171
aI10339
aI11293
aI11620
aI12337
aI14445
aI14538
aI14790
aI15847
aI16160
aI17239
aI17342
aI18222
aI20008
aI20012
aI20636
aI21003
aI21675
aI21829
aI22937
aI23561
aI23946
aI24121
aI24382
aI24624
asI520
(lp521
I482
aI621
aI1455
aI2189
aI2755
aI2817
aI2937
aI4360
aI4610
aI4611
aI4693
aI4995
aI5005
aI5148
aI6249
aI6319
aI7102
aI7487
aI7766
aI7922
aI8171
aI8408
aI8652
aI8883
aI9575
aI9956
aI9985
aI10013
aI10214
aI10348
aI11144
aI12338
aI12850
aI13663
aI14958
aI17538
aI17704
aI18276
aI18499
aI18640
aI20373
aI21031
aI22105
aI22421
aI23173
aI23742
aI24187
asI521
(lp522
I2092
aI2672
aI3762
aI5833
aI6076
aI7510
aI7902
aI9292
aI9711
aI10620
aI10894
aI11594
aI11700
aI11749
aI11772
aI12005
aI12050
aI12313
aI13918
aI13926
aI13955
aI14849
aI15248
aI18810
aI20431
aI21328
aI23526
aI23835
aI24785
asI522
(lp523
I325
aI1112
aI2009
aI5417
aI7834
aI9140
aI9265
aI9303
aI9722
aI10826
aI11580
aI12823
aI12848
aI15604
aI15785
aI16953
aI17635
aI17697
aI17997
aI18689
aI18699
aI19053
aI19733
aI20030
aI20897
aI21984
aI22284
aI22467
aI22938
aI24694
aI24781
asI523
(lp524
I2078
aI2267
aI3243
aI3837
aI3871
aI7617
aI8540
aI9040
aI10723
aI11584
aI12790
aI13807
aI14600
aI14739
aI14807
aI14833
aI15208
aI17671
aI17735
aI18182
aI18751
aI19156
aI19438
aI20451
aI23229
aI23486
asI524
(lp525
I2884
aI3753
aI4500
aI4759
aI4958
aI5013
aI5141
aI6030
aI6388
aI6686
aI7731
aI8182
aI8209
aI10291
aI10427
aI10893
aI11720
aI12279
aI12316
aI12553
aI14087
aI14358
aI14552
aI15072
aI15099
aI15325
aI16447
aI16556
aI17785
aI17825
aI18284
aI18791
aI18823
aI19388
aI20002
aI20399
aI20486
aI20526
aI20764
aI20786
aI20958
aI22004
aI22882
aI23051
aI24752
asI525
(lp526
I424
aI571
aI2633
aI2688
aI2786
aI2986
aI3098
aI3841
aI4724
aI4904
aI5337
aI5618
aI7492
aI8067
aI8780
aI9506
aI10135
aI10900
aI12628
aI13335
aI13699
aI13875
aI17149
aI17776
aI18675
aI19168
aI19336
aI19458
aI19712
aI21596
aI21993
aI22249
aI22711
aI23333
aI23646
asI526
(lp527
I192
aI296
aI1508
aI1988
aI3395
aI3448
aI3491
aI3648
aI3848
aI4324
aI5087
aI5214
aI5358
aI5600
aI5674
aI6013
aI6057
aI6512
aI6719
aI7740
aI7802
aI8089
aI8310
aI8429
aI10907
aI11250
aI11442
aI12399
aI13596
aI14089
aI14121
aI14124
aI14146
aI15366
aI15537
aI16758
aI17071
aI17862
aI17953
aI17983
aI19387
aI19422
aI19539
aI19759
aI20039
aI20274
aI21418
aI21647
aI23836
aI24249
asI527
(lp528
I169
aI1071
aI2312
aI3593
aI4304
aI4483
aI4703
aI6479
aI7585
aI7623
aI7745
aI7827
aI9868
aI10696
aI11317
aI11388
aI11639
aI12036
aI12154
aI12213
aI12237
aI15196
aI16380
aI18089
aI18490
aI19178
aI20010
aI20884
aI22111
aI22767
aI24546
asI528
(lp529
I3859
aI3997
aI5670
aI5959
aI6039
aI6288
aI6726
aI7031
aI8212
aI8833
aI8926
aI10542
aI10916
aI11183
aI12763
aI13337
aI13920
aI13987
aI14479
aI14539
aI15669
aI15975
aI16455
aI16532
aI18446
aI18713
aI20108
aI21637
aI21668
aI22407
aI23394
aI24116
aI24399
aI24685
asI529
(lp530
I703
aI992
aI1687
aI2169
aI2274
aI2747
aI2781
aI3328
aI3400
aI7743
aI10047
aI10174
aI10470
aI12056
aI12443
aI12793
aI14701
aI14802
aI15875
aI16705
aI17197
aI18318
aI20756
aI21210
aI22238
aI22518
aI22682
aI23443
aI23460
aI23803
aI24351
aI24573
aI24673
asI530
(lp531
I510
aI576
aI3520
aI6478
aI6791
aI8726
aI8756
aI8893
aI9554
aI10488
aI10701
aI11366
aI11375
aI11447
aI11734
aI11777
aI11852
aI12391
aI13506
aI14513
aI18661
aI18697
aI18782
aI21310
aI21665
aI21766
aI22155
aI22679
aI23139
asI531
(lp532
I830
aI3245
aI3776
aI3799
aI3985
aI4471
aI4668
aI5282
aI6961
aI7543
aI7780
aI8214
aI8345
aI8868
aI9792
aI11807
aI11872
aI12765
aI13696
aI13922
aI14743
aI18970
aI19892
aI20151
aI21088
aI21162
aI21522
aI22503
aI24040
aI24209
asI532
(lp533
I500
aI1088
aI2178
aI2315
aI2365
aI3704
aI3926
aI4745
aI5234
aI5574
aI5852
aI6869
aI7015
aI7193
aI7781
aI7977
aI9788
aI11851
aI11983
aI15158
aI18804
aI19532
aI19730
aI19793
aI20371
aI20653
aI22509
aI22924
aI23024
asI533
(lp534
I1387
aI1832
aI2064
aI2828
aI3070
aI4213
aI4298
aI4926
aI5018
aI5263
aI7292
aI7336
aI8437
aI9667
aI9754
aI10274
aI12616
aI12727
aI13371
aI13519
aI15177
aI15193
aI16404
aI16435
aI18383
aI18550
aI18557
aI19059
aI19353
aI19572
aI21293
aI21896
aI22246
aI22335
aI22563
asI534
(lp535
I353
aI435
aI537
aI887
aI1057
aI1654
aI3669
aI3822
aI5129
aI6460
aI6859
aI7570
aI7710
aI8628
aI9460
aI10224
aI10627
aI10876
aI12217
aI12692
aI13023
aI13095
aI13728
aI14419
aI15148
aI15636
aI16321
aI16521
aI17084
aI17246
aI18288
aI18721
aI18996
aI20020
aI23881
aI24651
asI535
(lp536
I1318
aI1423
aI2537
aI2695
aI3975
aI5723
aI6009
aI6090
aI6716
aI7625
aI9122
aI10783
aI11660
aI12363
aI12892
aI12941
aI13196
aI15030
aI15171
aI16464
aI20311
aI20673
aI21107
aI22185
aI22648
aI22881
aI23576
asI536
(lp537
I4956
aI6373
aI7158
aI8454
aI8988
aI9582
aI11186
aI12779
aI12899
aI13082
aI16600
aI18055
aI18379
aI19075
aI19366
aI20027
aI20094
aI20413
aI22727
aI23154
aI23237
aI23540
aI24615
asI537
(lp538
I946
aI1507
aI1614
aI2671
aI2818
aI2912
aI4008
aI4195
aI5042
aI6662
aI8393
aI8854
aI9210
aI9425
aI9454
aI10664
aI11056
aI15009
aI15587
aI18708
aI18767
aI21541
aI23037
asI538
(lp539
I176
aI259
aI1749
aI1887
aI2046
aI2277
aI2398
aI3083
aI3295
aI4315
aI4381
aI4528
aI5343
aI6144
aI6847
aI8280
aI8318
aI8352
aI8406
aI9360
aI9510
aI10210
aI10879
aI11161
aI11586
aI11845
aI11970
aI12361
aI13107
aI13623
aI14090
aI14210
aI14438
aI15301
aI15929
aI16233
aI16513
aI16550
aI16655
aI16737
aI16787
aI17353
aI18981
aI19796
aI19868
aI20563
aI20695
aI21235
aI21441
aI22637
aI23023
aI23357
aI23545
aI23945
asI539
(lp540
I2940
aI2976
aI3437
aI3652
aI5603
aI6615
aI7779
aI8218
aI8639
aI9507
aI10418
aI11735
aI12102
aI12694
aI13274
aI13652
aI14097
aI14717
aI14776
aI15434
aI15877
aI16414
aI17749
aI19343
aI20439
aI21183
aI21187
aI21484
aI21827
aI21857
aI22239
aI22286
aI22550
aI22614
aI22747
aI22824
aI23824
aI24471
aI24563
aI24991
asI540
(lp541
I74
aI561
aI951
aI972
aI1573
aI1581
aI2162
aI2225
aI3266
aI3552
aI4348
aI4472
aI5203
aI5630
aI6623
aI7883
aI7966
aI8068
aI8307
aI8790
aI8798
aI8928
aI9630
aI12366
aI13595
aI15163
aI16284
aI16419
aI16453
aI16679
aI17407
aI18822
aI19489
aI19894
aI19985
aI20146
aI20303
aI20895
aI21485
asI541
(lp542
I1390
aI1494
aI1995
aI2805
aI3192
aI3475
aI3519
aI3744
aI4997
aI5905
aI6844
aI6924
aI6974
aI7197
aI7264
aI7482
aI8060
aI8164
aI8897
aI8918
aI9164
aI9267
aI10233
aI10452
aI11752
aI12207
aI12657
aI13381
aI13785
aI13989
aI14060
aI15349
aI16483
aI16617
aI16879
aI17972
aI20687
aI21224
aI21640
aI22920
aI22955
aI23258
aI23659
aI24005
aI24325
asI542
(lp543
I1147
aI1567
aI1737
aI3713
aI4835
aI5683
aI6160
aI6724
aI8661
aI9913
aI10500
aI10563
aI12405
aI12739
aI15184
aI15238
aI15672
aI17146
aI17762
aI19195
aI20291
aI20718
aI21214
aI22977
aI23457
aI24131
aI24265
aI24520
asI543
(lp544
I958
aI985
aI1942
aI2366
aI2978
aI3234
aI3939
aI4701
aI5473
aI6323
aI6327
aI6430
aI7267
aI7428
aI7629
aI8223
aI9131
aI9344
aI9586
aI10125
aI10972
aI12287
aI12549
aI13480
aI14781
aI15319
aI15356
aI16254
aI17003
aI17337
aI18951
aI19932
aI21768
aI22019
aI22181
aI22613
aI23192
aI23930
aI24012
aI24723
asI544
(lp545
I292
aI3918
aI4828
aI5185
aI5252
aI7815
aI7889
aI8600
aI8971
aI9842
aI10106
aI11044
aI11860
aI13551
aI15229
aI17234
aI17864
aI18528
aI18536
aI19568
aI20083
aI21323
aI22106
aI22899
aI22919
aI23113
aI23584
aI23937
aI24019
asI545
(lp546
I623
aI1285
aI4226
aI6706
aI6784
aI6905
aI7322
aI8187
aI8503
aI8895
aI11358
aI11517
aI11542
aI13080
aI13289
aI13828
aI15461
aI16872
aI17040
aI18544
aI18989
aI21190
aI22129
aI22872
aI22979
aI23605
aI24144
aI24188
asI546
(lp547
I1027
aI1222
aI2571
aI4664
aI4973
aI5286
aI5775
aI6734
aI8991
aI9231
aI9418
aI9879
aI10267
aI11412
aI12049
aI13035
aI13037
aI14621
aI14806
aI14861
aI15426
aI16610
aI16619
aI17861
aI18296
aI18372
aI18563
aI18952
aI19748
aI20234
aI20296
aI21222
aI21978
aI22490
aI22569
aI24516
asI547
(lp548
I2138
aI2142
aI2182
aI4181
aI4520
aI5231
aI5475
aI5558
aI6112
aI7839
aI7992
aI8465
aI8841
aI9337
aI10012
aI10052
aI10086
aI10635
aI12940
aI14279
aI18343
aI19420
aI19525
aI19989
aI21137
aI21845
aI22704
aI23019
aI23586
aI24167
asI548
(lp549
I1799
aI2360
aI2612
aI3672
aI4467
aI4601
aI4683
aI5703
aI6838
aI6922
aI8262
aI8777
aI8849
aI9185
aI9427
aI11188
aI12175
aI13571
aI14157
aI14457
aI17238
aI18360
aI18380
aI18427
aI18589
aI19698
aI19886
aI21050
aI21198
aI22144
aI22377
aI22378
aI22571
aI23134
aI23655
aI24537
asI549
(lp550
I81
aI1435
aI1678
aI2059
aI2236
aI3271
aI3790
aI3933
aI3974
aI4317
aI4930
aI6501
aI6541
aI7079
aI7424
aI8264
aI9032
aI9590
aI9678
aI10379
aI10998
aI11254
aI12876
aI14251
aI14454
aI14461
aI14741
aI14754
aI15574
aI15801
aI16008
aI16070
aI16242
aI18078
aI18096
aI18314
aI19611
aI20179
aI20219
aI20489
aI21022
aI23335
aI24221
aI24350
aI24801
aI24815
asI550
(lp551
I519
aI1185
aI1869
aI2307
aI2666
aI2773
aI2961
aI3558
aI3624
aI3795
aI4763
aI5284
aI6508
aI7169
aI8505
aI8703
aI9225
aI9931
aI10319
aI11870
aI11945
aI13030
aI13356
aI14269
aI14710
aI15556
aI17089
aI18124
aI18644
aI18796
aI18943
aI19377
aI19644
aI19897
aI21889
aI22169
aI22221
aI22972
aI23206
aI24109
asI551
(lp552
I161
aI186
aI288
aI315
aI728
aI2410
aI2862
aI4089
aI4143
aI5632
aI5892
aI6171
aI6282
aI6445
aI8179
aI8225
aI8383
aI8695
aI8920
aI9205
aI9288
aI10096
aI10363
aI10958
aI11092
aI11623
aI12106
aI12372
aI12593
aI13301
aI13638
aI14737
aI14788
aI14906
aI14908
aI15853
aI15998
aI16082
aI16616
aI17724
aI17830
aI18591
aI18592
aI18982
aI20571
aI21078
aI21368
aI21934
aI23013
aI23778
aI23909
aI24140
asI552
(lp553
I749
aI1977
aI2425
aI2825
aI4732
aI5012
aI5158
aI7012
aI7027
aI8998
aI9126
aI10284
aI11690
aI12007
aI13562
aI13654
aI13889
aI15087
aI15389
aI15734
aI16071
aI16769
aI16990
aI17245
aI17464
aI17622
aI17942
aI18716
aI20065
aI20621
aI20901
aI22344
aI22371
aI22401
aI23159
aI23379
aI24048
aI24091
aI24197
asI553
(lp554
I619
aI1196
aI4372
aI6040
aI8169
aI8751
aI9750
aI11065
aI11510
aI12684
aI14229
aI15102
aI16032
aI16167
aI18119
aI18325
aI18469
aI19229
aI19430
aI19651
aI20145
aI22753
aI23533
aI23876
aI24300
aI24541
aI24969
asI554
(lp555
I1165
aI1311
aI1745
aI4449
aI5307
aI6203
aI6551
aI7796
aI7964
aI8956
aI9073
aI9256
aI10162
aI10933
aI11831
aI12139
aI12283
aI12814
aI13457
aI13463
aI14575
aI15780
aI17196
aI17585
aI18058
aI19070
aI19688
aI22180
aI22405
aI22876
aI23148
aI24409
asI555
(lp556
I585
aI1073
aI2609
aI3063
aI3314
aI3763
aI4263
aI4672
aI4678
aI4734
aI4833
aI4883
aI5701
aI6183
aI6604
aI7330
aI7739
aI8385
aI10252
aI10368
aI11235
aI11817
aI12144
aI12504
aI13060
aI13098
aI13183
aI13598
aI13890
aI13949
aI14488
aI14735
aI15058
aI15332
aI16269
aI16725
aI17699
aI18625
aI18858
aI19160
aI21642
aI21856
aI21872
aI24792
asI556
(lp557
I837
aI960
aI1325
aI1560
aI1929
aI3573
aI3977
aI4825
aI5104
aI5779
aI6107
aI7564
aI7959
aI9251
aI9622
aI11027
aI11591
aI12906
aI13385
aI13591
aI16811
aI17093
aI18560
aI19816
aI22597
aI23407
aI23907
asI557
(lp558
I153
aI404
aI1588
aI1820
aI2122
aI2411
aI2624
aI2985
aI4044
aI4642
aI4778
aI4848
aI5172
aI5924
aI6296
aI6888
aI7933
aI8635
aI8965
aI10276
aI10762
aI11240
aI12147
aI12688
aI13814
aI14011
aI14660
aI14758
aI15740
aI18097
aI19580
aI20264
aI20460
aI20529
aI21181
aI23034
aI23648
asI558
(lp559
I665
aI667
aI846
aI1712
aI2043
aI2279
aI2925
aI2959
aI3433
aI3794
aI4553
aI5436
aI8753
aI9359
aI9597
aI10215
aI10583
aI12812
aI12982
aI14398
aI14898
aI15279
aI15465
aI15718
aI15953
aI16087
aI16113
aI16161
aI16860
aI18350
aI19442
aI19914
aI20809
aI21361
aI21555
aI23135
aI23479
aI24185
asI559
(lp560
I109
aI604
aI1527
aI1773
aI3760
aI4293
aI4367
aI4679
aI4792
aI5536
aI5974
aI6490
aI6710
aI7034
aI7124
aI7736
aI7824
aI7841
aI8052
aI8272
aI8615
aI8908
aI9545
aI9816
aI10217
aI10877
aI11201
aI12247
aI12437
aI12734
aI13442
aI13972
aI14616
aI15474
aI18052
aI18598
aI20590
aI21579
aI23120
aI23506
aI23536
aI23582
aI23891
aI24691
aI24858
asI560
(lp561
I466
aI567
aI1727
aI2136
aI2693
aI3027
aI4109
aI4396
aI5608
aI6248
aI6889
aI9172
aI9638
aI10896
aI11621
aI11750
aI12503
aI13216
aI14402
aI14989
aI15627
aI17244
aI17733
aI18194
aI18407
aI22560
aI23076
aI23577
aI23661
aI24649
aI24911
asI561
(lp562
I110
aI1004
aI1100
aI4382
aI5195
aI5733
aI6043
aI6259
aI7789
aI8911
aI10730
aI11069
aI11495
aI12123
aI12354
aI12754
aI15215
aI15414
aI16768
aI16986
aI18080
aI18876
aI18904
aI19881
aI20222
aI20818
aI21629
aI22663
aI22777
aI23632
aI24488
aI24659
asI562
(lp563
I2601
aI2850
aI4365
aI4592
aI5122
aI5526
aI6481
aI6856
aI7652
aI8525
aI10095
aI11041
aI12584
aI14125
aI14344
aI16332
aI17079
aI17373
aI17584
aI18412
aI18610
aI19136
aI19186
aI19476
aI19692
aI20321
aI22438
aI22482
aI22493
aI23210
aI23720
aI24606
aI24754
asI563
(lp564
I139
aI213
aI1041
aI1459
aI2432
aI2520
aI3627
aI4431
aI4803
aI4829
aI7007
aI7078
aI7200
aI9001
aI9416
aI9684
aI9747
aI10712
aI10983
aI11950
aI12563
aI12772
aI13324
aI14209
aI14410
aI14555
aI15554
aI15615
aI15897
aI17397
aI18426
aI18877
aI19048
aI19278
aI21092
aI21962
aI22159
aI24343
aI24502
aI24568
aI24872
asI564
(lp565
I174
aI206
aI944
aI970
aI1788
aI2459
aI2690
aI2766
aI4719
aI5515
aI5644
aI5778
aI6132
aI6322
aI6723
aI8009
aI8065
aI9151
aI9436
aI10591
aI10717
aI11338
aI12034
aI13345
aI13861
aI14386
aI14711
aI15743
aI17421
aI17928
aI19543
aI19574
aI20348
aI20369
aI20445
aI20890
aI20905
aI20997
aI22535
aI23384
aI24497
asI565
(lp566
I154
aI274
aI718
aI1031
aI4283
aI5760
aI5894
aI5979
aI7407
aI7897
aI8509
aI8697
aI11149
aI13205
aI15206
aI15382
aI16239
aI16567
aI17129
aI17230
aI18049
aI18400
aI18456
aI18999
aI19787
aI20098
aI21926
aI22001
aI22196
aI24630
asI566
(lp567
I637
aI1113
aI1207
aI2219
aI3022
aI3422
aI3767
aI4788
aI5075
aI5095
aI6546
aI8528
aI9796
aI11099
aI11972
aI14292
aI14496
aI15133
aI16220
aI16475
aI18523
aI18842
aI19196
aI19918
aI20363
aI20924
aI21062
aI21729
aI22591
aI23287
aI23377
aI23392
aI23782
aI24231
asI567
(lp568
I4
aI1042
aI1186
aI1388
aI1554
aI2623
aI2713
aI4506
aI5118
aI5190
aI5267
aI5895
aI6635
aI6744
aI7181
aI8705
aI8906
aI9221
aI9515
aI9878
aI9984
aI10824
aI11007
aI11084
aI11863
aI13108
aI14635
aI16116
aI16786
aI18392
aI18457
aI18588
aI18978
aI19189
aI19905
aI20813
aI21164
aI21318
aI21893
aI24004
asI568
(lp569
I151
aI281
aI616
aI842
aI866
aI1055
aI1957
aI2033
aI2443
aI2692
aI3221
aI3732
aI4152
aI4361
aI4867
aI5043
aI5615
aI7806
aI8284
aI8903
aI9502
aI10142
aI10647
aI11192
aI11341
aI12683
aI12774
aI12884
aI12915
aI13031
aI13633
aI14698
aI16211
aI16281
aI16842
aI16904
aI17753
aI18083
aI18269
aI18684
aI19008
aI19076
aI19411
aI19621
aI19971
aI20142
aI22336
aI23816
aI24184
aI24489
asI569
(lp570
I496
aI955
aI1697
aI1721
aI5943
aI5980
aI6045
aI6580
aI7073
aI7422
aI8152
aI10097
aI10842
aI10864
aI11848
aI11858
aI13010
aI13689
aI14331
aI15170
aI15774
aI17203
aI17319
aI17408
aI17611
aI18117
aI18197
aI19017
aI20174
aI20244
aI20872
aI22853
aI23307
aI23352
aI23950
aI24053
aI24106
aI24142
aI24870
asI570
(lp571
I86
aI445
aI1429
aI2319
aI3708
aI3737
aI4217
aI5206
aI5416
aI7006
aI7525
aI8245
aI8922
aI9157
aI9610
aI9703
aI10150
aI10187
aI10512
aI10931
aI10936
aI11068
aI11391
aI11635
aI12227
aI12498
aI13516
aI13590
aI13687
aI14220
aI14297
aI14848
aI15317
aI15713
aI18131
aI18863
aI19939
aI20206
aI21043
aI21362
aI21378
aI21453
aI21481
aI21767
aI22897
aI24234
aI24427
asI571
(lp572
I747
aI1267
aI2208
aI2380
aI3442
aI3681
aI3862
aI4404
aI4408
aI4983
aI5461
aI5753
aI6117
aI6532
aI6927
aI7394
aI8205
aI8514
aI8581
aI8658
aI9426
aI9474
aI9902
aI10769
aI11070
aI11755
aI13054
aI13668
aI13818
aI14884
aI14936
aI14949
aI15565
aI17031
aI18113
aI18977
aI19020
aI19223
aI20791
aI21299
aI21920
aI22334
aI22939
aI24039
aI24701
asI572
(lp573
I282
aI694
aI1374
aI2171
aI2793
aI3173
aI3891
aI4307
aI5382
aI6129
aI6810
aI7278
aI8586
aI8892
aI8969
aI10434
aI10768
aI10797
aI11633
aI12101
aI14120
aI14467
aI14663
aI14669
aI15125
aI16748
aI16808
aI17705
aI17750
aI18056
aI19007
aI19542
aI19591
aI19671
aI19676
aI20767
aI21487
aI21660
aI21919
aI22038
aI22309
aI22409
aI22705
aI23078
aI23203
aI23727
aI24180
asI573
(lp574
I477
aI980
aI1812
aI2450
aI3006
aI3393
aI4305
aI4991
aI5128
aI5145
aI7594
aI7817
aI7986
aI8156
aI9123
aI9482
aI10180
aI10286
aI10483
aI10851
aI11067
aI11422
aI11467
aI13235
aI13794
aI13799
aI15145
aI15948
aI17011
aI17616
aI17962
aI17967
aI18143
aI18230
aI18386
aI18774
aI19043
aI19417
aI19557
aI19880
aI20115
aI21232
aI21345
aI21952
aI22818
aI22834
aI23672
aI24292
aI24914
aI24944
asI574
(lp575
I1908
aI2644
aI3380
aI3568
aI3904
aI4085
aI5189
aI6289
aI7116
aI9494
aI10102
aI10604
aI10725
aI11664
aI12152
aI12299
aI12747
aI13047
aI13241
aI13330
aI14680
aI15425
aI15882
aI16130
aI16707
aI17442
aI17792
aI18678
aI19602
aI20112
aI20615
aI22883
aI23166
aI23477
aI23844
aI24508
aI24776
asI575
(lp576
I73
aI693
aI1335
aI1933
aI2878
aI3800
aI4437
aI4576
aI6979
aI7178
aI7396
aI8548
aI9115
aI9406
aI10928
aI12159
aI12164
aI12243
aI13414
aI16287
aI17278
aI17575
aI18511
aI19208
aI19966
aI21286
aI22709
aI22805
aI23649
aI23791
asI576
(lp577
I302
aI467
aI1382
aI1886
aI2088
aI2846
aI3415
aI3798
aI3971
aI4237
aI4935
aI6553
aI7466
aI8873
aI10189
aI10349
aI10401
aI10457
aI10545
aI10557
aI10657
aI11524
aI12651
aI12809
aI14216
aI14422
aI14904
aI15937
aI16104
aI17096
aI19088
aI19443
aI22051
aI22055
aI22368
aI22639
aI23387
aI23489
aI23702
aI24697
asI577
(lp578
I415
aI484
aI609
aI1605
aI1731
aI3557
aI4121
aI5215
aI5831
aI6279
aI6496
aI7620
aI8183
aI8532
aI8629
aI9314
aI9331
aI9603
aI9736
aI10067
aI10560
aI11460
aI11486
aI12327
aI12562
aI12862
aI17183
aI17719
aI18665
aI20702
aI20778
aI21966
aI22555
aI22802
aI22841
aI24499
asI578
(lp579
I287
aI414
aI506
aI1190
aI1261
aI2512
aI3186
aI4346
aI4900
aI5175
aI5762
aI5981
aI7144
aI7303
aI7439
aI8397
aI9763
aI10153
aI10400
aI11008
aI11926
aI12032
aI12281
aI12430
aI13548
aI16595
aI16884
aI16946
aI17726
aI17818
aI18250
aI18538
aI18983
aI19284
aI20701
aI20903
aI21073
aI21314
aI22053
aI22254
aI23863
aI24063
aI24359
aI24526
asI579
(lp580
I43
aI1020
aI1578
aI1967
aI5915
aI6420
aI7661
aI7835
aI8001
aI8129
aI8978
aI10484
aI10795
aI12035
aI12241
aI12293
aI12387
aI13087
aI13738
aI13871
aI14699
aI14775
aI15132
aI15176
aI15297
aI16817
aI16951
aI17482
aI17539
aI18789
aI20276
aI20279
aI20345
aI20894
aI21406
aI21811
aI21849
aI22863
aI22942
aI23404
aI23454
aI23595
asI580
(lp581
I688
aI1743
aI5024
aI5245
aI5410
aI6119
aI8585
aI9398
aI10739
aI11744
aI12992
aI14984
aI15057
aI16693
aI17630
aI18072
aI18529
aI19146
aI19201
aI20696
aI21041
aI21249
aI22187
aI22707
aI23363
aI23879
aI23974
asI581
(lp582
I1143
aI1378
aI2317
aI3039
aI3125
aI5319
aI6823
aI8005
aI10029
aI10176
aI10321
aI11131
aI12600
aI12635
aI12665
aI12730
aI12740
aI12967
aI13172
aI13312
aI13415
aI13628
aI14325
aI14535
aI14975
aI15310
aI16381
aI19095
aI20107
aI20220
aI21544
aI21590
aI21848
aI23668
aI24847
asI582
(lp583
I582
aI2217
aI3166
aI3730
aI4150
aI5279
aI7283
aI7392
aI10482
aI11119
aI11430
aI12988
aI14661
aI15715
aI17284
aI17462
aI18710
aI19281
aI20830
aI23096
aI23532
asI583
(lp584
I347
aI954
aI2710
aI3386
aI3659
aI3778
aI4189
aI4214
aI4322
aI5049
aI5173
aI5283
aI5582
aI5996
aI7066
aI7948
aI8071
aI8097
aI8690
aI9741
aI11372
aI11927
aI12138
aI13561
aI13684
aI14098
aI14659
aI14764
aI14797
aI15907
aI16074
aI16187
aI16750
aI17101
aI17218
aI17348
aI17479
aI17804
aI17960
aI18181
aI18753
aI19778
aI19938
aI20628
aI22922
aI23238
aI24468
asI584
(lp585
I625
aI829
aI1226
aI2453
aI2485
aI2610
aI4001
aI4515
aI4585
aI5096
aI5610
aI5873
aI6124
aI7713
aI7936
aI7990
aI9229
aI9605
aI9728
aI10259
aI10455
aI10830
aI12216
aI12509
aI12736
aI12801
aI15363
aI17372
aI17399
aI18709
aI18764
aI20023
aI20052
aI21039
aI21717
aI21757
aI21854
aI22145
aI22576
aI22762
aI24283
aI24442
aI24768
asI585
(lp586
I1363
aI1492
aI2386
aI2756
aI3153
aI4082
aI4514
aI4939
aI5218
aI5476
aI6386
aI7259
aI8117
aI8189
aI8497
aI8526
aI8857
aI9608
aI9714
aI9726
aI9751
aI10624
aI12460
aI13376
aI13827
aI15417
aI16480
aI18722
aI19023
aI19121
aI19365
aI19460
aI20392
aI21037
aI21262
aI22000
aI22085
aI22901
aI23996
aI24968
asI586
(lp587
I475
aI1059
aI2227
aI2303
aI3143
aI4302
aI4419
aI5506
aI5750
aI6828
aI7297
aI8657
aI10601
aI11731
aI11818
aI12187
aI12434
aI12745
aI12907
aI16302
aI16914
aI17290
aI19864
aI20259
aI21284
aI22103
aI22432
aI24252
aI24431
asI587
(lp588
I311
aI5347
aI5448
aI5592
aI5613
aI5796
aI6050
aI6921
aI8389
aI9311
aI9833
aI10569
aI11775
aI11804
aI11877
aI12271
aI12472
aI12536
aI14351
aI14933
aI14979
aI16148
aI16643
aI16844
aI17669
aI17874
aI17907
aI18134
aI18517
aI19227
aI19756
aI21956
aI22005
aI22222
asI588
(lp589
I8
aI507
aI1040
aI1710
aI2104
aI2657
aI3736
aI3834
aI4126
aI4177
aI4547
aI4757
aI5642
aI5803
aI6253
aI8080
aI8993
aI9033
aI9864
aI10045
aI11413
aI14255
aI14414
aI14982
aI15261
aI18441
aI18830
aI20916
aI20981
aI23143
aI23581
aI24038
aI24313
asI589
(lp590
I18
aI5014
aI6053
aI6426
aI6883
aI7783
aI8008
aI9268
aI11581
aI11884
aI12104
aI12109
aI13202
aI13680
aI14178
aI14352
aI14689
aI14692
aI15094
aI15095
aI15478
aI15735
aI16656
aI17336
aI17974
aI18921
aI19188
aI19912
aI20947
aI21287
aI21366
aI21918
aI22208
aI23004
asI590
(lp591
I815
aI1818
aI2648
aI3804
aI3805
aI3840
aI4777
aI4824
aI5004
aI5269
aI5308
aI5500
aI6131
aI9325
aI9373
aI9780
aI10055
aI10820
aI10973
aI11590
aI14941
aI15727
aI16076
aI16135
aI16344
aI16798
aI18259
aI18263
aI18514
aI19709
aI19826
aI19888
aI20559
aI20761
aI20988
aI23033
aI23231
aI23322
aI24916
asI591
(lp592
I2185
aI2271
aI4896
aI4981
aI5496
aI6358
aI6650
aI7378
aI7967
aI8435
aI8937
aI9009
aI9459
aI10995
aI11472
aI12030
aI12461
aI12542
aI14161
aI14501
aI14591
aI16729
aI17227
aI18698
aI18972
aI19604
aI20128
aI21132
aI21166
aI21245
aI21712
aI21847
aI22504
aI23703
aI24342
aI24504
asI592
(lp593
I508
aI549
aI834
aI1315
aI1518
aI3016
aI3397
aI4566
aI4633
aI5493
aI5564
aI6831
aI7518
aI8949
aI9137
aI9897
aI10697
aI11253
aI11601
aI11925
aI12061
aI12985
aI13892
aI16311
aI16891
aI17214
aI17839
aI20745
aI22838
aI22887
aI23808
aI24880
asI593
(lp594
I897
aI1575
aI2213
aI2451
aI5850
aI5855
aI6195
aI6680
aI7153
aI8148
aI8162
aI9379
aI10389
aI10881
aI10959
aI10993
aI12807
aI13171
aI13708
aI13830
aI14712
aI14858
aI16276
aI16575
aI17303
aI17898
aI18510
aI20313
aI20378
aI21834
aI22502
aI24060
aI24807
asI594
(lp595
I96
aI410
aI469
aI494
aI1231
aI1619
aI1776
aI3427
aI3930
aI3957
aI3967
aI4075
aI4135
aI4820
aI5281
aI5821
aI6184
aI6320
aI6578
aI7080
aI7532
aI8901
aI9061
aI9696
aI10815
aI10854
aI11571
aI12020
aI12942
aI13190
aI14460
aI16301
aI16809
aI17700
aI18900
aI21021
aI21388
aI21654
aI21710
aI22078
aI22097
aI23012
aI23763
aI24037
aI24867
asI595
(lp596
I89
aI179
aI350
aI399
aI787
aI1349
aI1376
aI1632
aI1650
aI2495
aI3612
aI3788
aI4772
aI5567
aI8203
aI8303
aI8715
aI9333
aI9388
aI9959
aI9981
aI10186
aI10243
aI10586
aI10954
aI11274
aI11959
aI12059
aI13008
aI13910
aI14360
aI15035
aI15227
aI15293
aI15557
aI16218
aI16396
aI16666
aI16882
aI18593
aI18831
aI19045
aI19171
aI19577
aI19823
aI20346
aI21004
aI21007
aI21091
aI21319
aI22087
aI24212
aI24418
asI596
(lp597
I1432
aI2087
aI3035
aI3286
aI3338
aI4047
aI4554
aI5015
aI7969
aI8371
aI8477
aI9441
aI10247
aI10251
aI10551
aI10986
aI11769
aI12764
aI14560
aI15710
aI16128
aI17160
aI17250
aI17387
aI17901
aI19349
aI19917
aI20040
aI21209
aI21708
aI21746
aI22109
aI22149
aI22950
aI23496
aI23593
aI24509
asI597
(lp598
I409
aI1032
aI1133
aI1290
aI1934
aI4721
aI4918
aI5039
aI6287
aI6544
aI7935
aI9730
aI10308
aI10445
aI12835
aI13052
aI13223
aI14459
aI14738
aI15296
aI15655
aI16067
aI16667
aI17259
aI17881
aI18397
aI19137
aI19679
aI19946
aI20992
aI21035
aI21061
aI23483
aI23670
aI23761
aI24744
aI24942
asI598
(lp599
I1361
aI1394
aI3379
aI4288
aI5552
aI8489
aI8869
aI9446
aI10068
aI10355
aI10531
aI10645
aI10766
aI11256
aI11582
aI13290
aI13340
aI13539
aI13567
aI13873
aI13962
aI14437
aI14768
aI16472
aI16732
aI16868
aI18498
aI19776
aI21399
aI21963
aI22297
aI23186
aI23260
aI23943
aI24052
aI24772
asI599
(lp600
I97
aI1321
aI1411
aI1496
aI1937
aI3467
aI3488
aI4511
aI4901
aI6225
aI6384
aI6645
aI6796
aI7778
aI8319
aI10192
aI11650
aI11784
aI12042
aI13526
aI14106
aI14127
aI14646
aI15396
aI16138
aI17305
aI17618
aI17777
aI17786
aI20622
aI24303
aI24928
asI600
(lp601
I148
aI156
aI568
aI1216
aI1252
aI1620
aI1927
aI2098
aI2932
aI5205
aI6217
aI6768
aI7137
aI8234
aI8983
aI9933
aI10901
aI10942
aI11333
aI12890
aI13323
aI13472
aI14649
aI15228
aI15437
aI16365
aI17117
aI17306
aI18101
aI20464
aI20743
aI20933
aI21588
aI22062
aI22339
aI22748
aI23161
aI23434
aI23614
aI23638
aI24812
asI601
(lp602
I29
aI155
aI394
aI1375
aI2155
aI2177
aI2632
aI3384
aI4060
aI4233
aI4704
aI5318
aI6413
aI6980
aI7435
aI7640
aI7787
aI8095
aI8502
aI8770
aI9564
aI9785
aI11051
aI11974
aI13018
aI14201
aI14405
aI15340
aI15421
aI17312
aI19308
aI21103
aI21169
aI22369
aI22392
aI24347
aI24871
aI24997
asI602
(lp603
I3
aI352
aI989
aI1804
aI1982
aI3206
aI5537
aI6520
aI8986
aI10981
aI11202
aI11806
aI11871
aI12055
aI12585
aI13253
aI13775
aI14480
aI15991
aI16162
aI16411
aI16929
aI17631
aI17988
aI19876
aI20193
aI22443
aI23370
aI24985
asI603
(lp604
I16
aI77
aI203
aI218
aI912
aI2871
aI5351
aI6251
aI7401
aI8791
aI10344
aI11060
aI11233
aI11671
aI11964
aI12062
aI12513
aI12716
aI13043
aI14108
aI14194
aI14996
aI15719
aI17072
aI17212
aI17882
aI18959
aI20240
aI20496
aI22426
aI23221
aI23393
aI24114
aI24236
aI24485
aI24550
asI604
(lp605
I1476
aI2770
aI2883
aI3449
aI3564
aI3611
aI3638
aI3889
aI5032
aI6474
aI6853
aI6903
aI7233
aI7590
aI7599
aI8108
aI8829
aI8923
aI9074
aI9089
aI9376
aI9447
aI11133
aI11209
aI11509
aI11774
aI12649
aI13555
aI13782
aI14509
aI14845
aI15144
aI16114
aI16412
aI16554
aI16917
aI16973
aI17279
aI19696
aI21494
aI21621
aI21635
aI22477
aI23852
aI23894
aI24157
aI24661
asI605
(lp606
I1262
aI2017
aI3307
aI3587
aI4688
aI7241
aI8078
aI10244
aI10369
aI10451
aI10886
aI11125
aI13709
aI14254
aI14401
aI15335
aI16755
aI17374
aI17522
aI18329
aI18915
aI19289
aI20564
aI21349
aI21516
aI21973
aI22162
aI22260
aI22313
aI22532
aI22636
aI22661
aI23901
asI606
(lp607
I1064
aI2933
aI3014
aI4359
aI5247
aI5861
aI6396
aI7430
aI7811
aI8583
aI9922
aI9986
aI11219
aI11619
aI11642
aI12708
aI12922
aI13127
aI13288
aI13717
aI15114
aI15322
aI16855
aI17044
aI17053
aI17833
aI18234
aI21282
aI22113
aI23119
aI23594
asI607
(lp608
I977
aI2253
aI2544
aI2608
aI4488
aI5527
aI6205
aI6456
aI6545
aI6760
aI7840
aI8134
aI10101
aI10869
aI10961
aI11091
aI12441
aI12789
aI14212
aI14286
aI14309
aI15294
aI17099
aI17787
aI17905
aI18339
aI18370
aI18971
aI20207
aI21033
aI21820
aI21930
aI22567
aI23270
aI23313
aI23521
aI23913
asI608
(lp609
I211
aI1627
aI2110
aI3409
aI3735
aI3886
aI3946
aI4169
aI6552
aI7738
aI8425
aI9071
aI10148
aI10268
aI12648
aI13208
aI14554
aI14695
aI15647
aI16866
aI17980
aI18158
aI18754
aI19379
aI19410
aI19870
aI20507
aI20804
aI21863
aI22588
aI23178
aI23719
aI23910
aI23925
aI24619
aI24989
asI609
(lp610
I419
aI1015
aI1220
aI3706
aI4023
aI8491
aI8494
aI8955
aI9455
aI9882
aI13119
aI15113
aI15529
aI16356
aI16591
aI20457
aI21358
aI22527
aI22918
aI23215
aI23681
aI23926
aI24721
asI610
(lp611
I345
aI941
aI1440
aI1903
aI2139
aI2749
aI5317
aI7284
aI8054
aI8347
aI8467
aI8890
aI9023
aI10323
aI10466
aI10521
aI10878
aI12944
aI13513
aI14950
aI16084
aI16704
aI17999
aI20184
aI20300
aI20497
aI20881
aI20902
aI22812
aI24790
aI24931
aI24999
asI611
(lp612
I351
aI956
aI2005
aI2750
aI3502
aI4510
aI7286
aI7627
aI12045
aI12446
aI12753
aI14143
aI14348
aI14697
aI14787
aI15266
aI15400
aI15518
aI15619
aI16694
aI17229
aI17736
aI18375
aI18664
aI19248
aI19471
aI19505
aI22153
aI23195
aI24161
aI24860
asI612
(lp613
I1075
aI2772
aI2997
aI3653
aI3940
aI5706
aI5957
aI6488
aI7989
aI8113
aI8299
aI10691
aI10757
aI12617
aI12820
aI12948
aI14233
aI14440
aI14498
aI14679
aI16522
aI19325
aI19800
aI21414
aI21548
aI22301
aI22993
aI23020
aI23216
aI23751
aI24761
aI24965
asI613
(lp614
I187
aI1157
aI1792
aI3696
aI5423
aI5995
aI6448
aI6610
aI8132
aI8940
aI9823
aI10109
aI10660
aI11446
aI11466
aI11782
aI12132
aI12177
aI13175
aI13341
aI14885
aI16374
aI17240
aI18166
aI18444
aI18466
aI21451
aI21800
aI21915
aI24429
asI614
(lp615
I863
aI1212
aI1401
aI1708
aI3555
aI8030
aI9224
aI10123
aI11015
aI11021
aI12539
aI13091
aI13387
aI13610
aI14372
aI14665
aI17629
aI18075
aI18163
aI19401
aI19627
aI19836
aI20137
aI21563
aI22125
aI22462
aI23239
aI23408
asI615
(lp616
I776
aI828
aI1463
aI2591
aI3632
aI4970
aI5006
aI5211
aI5758
aI7411
aI7641
aI7894
aI7901
aI8597
aI8737
aI10070
aI10411
aI11145
aI11896
aI11906
aI12697
aI12975
aI14463
aI15241
aI15675
aI15858
aI16763
aI16996
aI17302
aI17486
aI18050
aI18435
aI21108
aI21306
aI22333
aI23018
aI23089
aI24806
asI616
(lp617
I982
aI1125
aI1142
aI1392
aI2129
aI4717
aI4920
aI5687
aI5829
aI5982
aI6886
aI7207
aI7252
aI8175
aI8537
aI8787
aI8944
aI9670
aI9824
aI10318
aI10385
aI11079
aI12298
aI13325
aI14149
aI15040
aI15850
aI16103
aI16310
aI16333
aI17268
aI18746
aI19916
aI20069
aI21220
aI22559
aI23243
aI23562
aI24939
asI617
(lp618
I430
aI608
aI859
aI1251
aI1269
aI1656
aI2038
aI2895
aI4156
aI4501
aI4702
aI5968
aI8332
aI8569
aI8594
aI9717
aI10478
aI11001
aI11231
aI11258
aI11553
aI12126
aI12294
aI13776
aI13960
aI14214
aI17365
aI18007
aI24826
aI24831
asI618
(lp619
I343
aI390
aI1275
aI1305
aI1910
aI2356
aI3410
aI3701
aI3948
aI7002
aI7646
aI7906
aI9367
aI10406
aI10520
aI10718
aI11169
aI11222
aI11299
aI11347
aI12902
aI13556
aI14113
aI15548
aI16717
aI17036
aI18340
aI18727
aI19232
aI19569
aI20033
aI20050
aI20213
aI20301
aI22290
aI22689
aI23117
aI23256
aI23445
aI23790
aI24191
aI24259
asI619
(lp620
I710
aI1709
aI2191
aI3524
aI3814
aI4223
aI4627
aI6817
aI7100
aI7138
aI8552
aI10844
aI11128
aI11463
aI12166
aI12521
aI13746
aI14017
aI14992
aI15268
aI15793
aI16836
aI18572
aI19635
aI19653
aI20057
aI20091
aI20257
aI21336
aI22009
aI22355
aI23181
aI23305
aI23472
aI23612
aI23915
aI24183
asI620
(lp621
I383
aI3937
aI5651
aI6121
aI6809
aI7686
aI9366
aI10811
aI11273
aI12146
aI13050
aI14844
aI15284
aI15354
aI16465
aI16503
aI16520
aI16804
aI18932
aI19741
aI19843
aI22531
aI23356
aI23615
aI24318
aI24320
asI621
(lp622
I450
aI1116
aI1345
aI1406
aI1533
aI1715
aI2714
aI3302
aI3432
aI3752
aI3772
aI3854
aI5411
aI5658
aI6374
aI6659
aI6950
aI8469
aI8887
aI9629
aI9634
aI9813
aI10059
aI10414
aI12245
aI13157
aI13436
aI13630
aI13675
aI14307
aI14800
aI15031
aI15226
aI15262
aI15368
aI15728
aI16484
aI18085
aI19069
aI20389
aI20609
aI21151
aI21376
aI21471
aI23346
aI24282
aI24839
asI622
(lp623
I682
aI1257
aI1367
aI1780
aI1797
aI2968
aI3844
aI3984
aI4696
aI5179
aI5732
aI5793
aI5845
aI7504
aI7908
aI8388
aI9113
aI9453
aI9485
aI11142
aI12256
aI12822
aI13608
aI14142
aI14636
aI15089
aI15416
aI15670
aI15776
aI16163
aI16238
aI16927
aI17090
aI17113
aI18602
aI18788
aI19331
aI19560
aI20430
aI22176
aI22273
aI23262
asI623
(lp624
I668
aI838
aI1037
aI1134
aI2012
aI2682
aI2987
aI3454
aI3572
aI4572
aI4866
aI6880
aI7360
aI7423
aI7683
aI7885
aI8232
aI8702
aI9682
aI11267
aI11525
aI12777
aI18347
aI18624
aI19483
aI22992
aI23691
aI23939
asI624
(lp625
I523
aI2323
aI2806
aI4318
aI5885
aI6778
aI7125
aI8056
aI8740
aI10496
aI12352
aI12963
aI13286
aI13396
aI13444
aI14152
aI14238
aI15503
aI17770
aI18306
aI18337
aI19607
aI19658
aI20019
aI24466
aI24794
aI24809
asI625
(lp626
I147
aI167
aI1488
aI2911
aI3276
aI3529
aI5001
aI5152
aI5912
aI6670
aI10736
aI10740
aI11952
aI13061
aI15210
aI15464
aI15526
aI15945
aI16928
aI16941
aI17507
aI17879
aI18356
aI18940
aI19077
aI20025
aI20263
aI20854
aI22398
aI22537
aI22865
aI24102
aI24706
aI24958
asI626
(lp627
I810
aI993
aI1019
aI1131
aI1695
aI2023
aI3181
aI3815
aI4675
aI6521
aI8024
aI8290
aI8712
aI8916
aI9464
aI11297
aI12422
aI12937
aI13265
aI14006
aI15097
aI16098
aI16271
aI16730
aI18406
aI19937
aI20729
aI22367
aI22524
aI22565
aI23288
aI23553
aI23617
aI23726
aI24444
asI627
(lp628
I1762
aI2193
aI2463
aI2531
aI2684
aI3236
aI3323
aI3582
aI6692
aI7888
aI7950
aI8243
aI8584
aI8902
aI9451
aI9462
aI9533
aI10169
aI11727
aI12300
aI12827
aI13242
aI13482
aI13517
aI14181
aI15093
aI15350
aI15372
aI15739
aI15962
aI17496
aI18464
aI18474
aI18942
aI19244
aI20117
aI21758
aI22049
aI22745
aI23488
aI23552
aI23666
aI24339
aI24457
aI24892
asI628
(lp629
I1603
aI1752
aI1909
aI2418
aI2424
aI3793
aI3936
aI4786
aI5061
aI6175
aI6516
aI7311
aI7586
aI7836
aI9899
aI10026
aI11330
aI12156
aI12824
aI12932
aI13074
aI13870
aI14396
aI15988
aI16856
aI17588
aI19124
aI19481
aI19911
aI21034
aI21411
aI22092
aI22126
aI22256
aI22716
aI22909
asI629
(lp630
I2503
aI4273
aI4430
aI4957
aI5311
aI5652
aI6972
aI7550
aI7608
aI8104
aI8830
aI9227
aI9386
aI9740
aI9890
aI11272
aI13508
aI13846
aI14038
aI14455
aI15252
aI15989
aI16137
aI16491
aI16570
aI18326
aI19172
aI19944
aI21403
aI22226
aI22861
aI23137
aI23358
aI23439
aI23500
aI23609
aI24098
aI24247
aI24261
aI24524
aI24743
aI24746
asI630
(lp631
I342
aI565
aI752
aI1077
aI1719
aI3220
aI3571
aI4161
aI4667
aI4982
aI6062
aI6390
aI6447
aI6942
aI7607
aI7934
aI8762
aI9381
aI10382
aI11286
aI11396
aI12210
aI13494
aI13793
aI14333
aI17288
aI17838
aI18005
aI18130
aI18599
aI18677
aI18880
aI19429
aI20448
aI22132
aI22606
aI23453
aI23631
aI23745
aI24332
asI631
(lp632
I680
aI2181
aI3458
aI3949
aI5250
aI6672
aI6766
aI7320
aI7527
aI7762
aI8326
aI9299
aI9468
aI10081
aI10157
aI10565
aI10670
aI11211
aI11565
aI11940
aI12464
aI13313
aI13528
aI13650
aI13995
aI14709
aI14909
aI16041
aI17598
aI17821
aI19032
aI19548
aI20533
aI20623
aI22183
aI22275
aI23902
asI632
(lp633
I545
aI3505
aI3915
aI4236
aI5556
aI7145
aI7269
aI7917
aI8087
aI8239
aI9194
aI9880
aI10396
aI10938
aI11039
aI11234
aI12302
aI12670
aI12719
aI13166
aI13451
aI14170
aI14252
aI14868
aI15607
aI15732
aI16636
aI18726
aI19066
aI19785
aI21189
aI22043
aI22107
aI22476
aI23047
aI23677
aI24982
asI633
(lp634
I566
aI754
aI2676
aI2921
aI2950
aI3152
aI5925
aI6505
aI7146
aI7240
aI7300
aI8123
aI8607
aI8763
aI10037
aI10387
aI10614
aI11503
aI11874
aI12054
aI12315
aI13097
aI14397
aI14890
aI16574
aI16828
aI17456
aI17625
aI18003
aI18468
aI18814
aI20550
aI23716
aI23992
aI24738
asI634
(lp635
I314
aI971
aI2146
aI2422
aI2721
aI3722
aI4662
aI5903
aI6105
aI6334
aI6498
aI7084
aI7582
aI8483
aI9320
aI9704
aI9932
aI11108
aI11147
aI11170
aI11674
aI12345
aI13083
aI13898
aI14577
aI14965
aI15015
aI15829
aI16021
aI17098
aI17502
aI20738
aI21735
aI21784
aI22330
aI23571
aI24861
asI635
(lp636
I117
aI936
aI1276
aI2470
aI3605
aI3820
aI4036
aI4597
aI6186
aI7060
aI7571
aI9693
aI10491
aI12284
aI12355
aI12658
aI13359
aI13577
aI13778
aI14256
aI14273
aI15477
aI15485
aI16585
aI16922
aI17057
aI17581
aI18255
aI18580
aI18807
aI18879
aI18958
aI19140
aI19833
aI19980
aI20085
aI20393
aI21254
aI21457
aI22184
aI24002
aI24621
asI636
(lp637
I170
aI660
aI763
aI1935
aI1960
aI2872
aI3481
aI3660
aI3978
aI4716
aI8022
aI11160
aI11506
aI13117
aI13233
aI13896
aI14004
aI15341
aI15944
aI16784
aI17162
aI17270
aI18090
aI18534
aI18881
aI20006
aI20374
aI21096
aI24229
asI637
(lp638
I209
aI1271
aI3088
aI4569
aI4626
aI5403
aI5692
aI5893
aI6099
aI7307
aI7472
aI8136
aI8630
aI9022
aI10399
aI10526
aI10749
aI10927
aI11438
aI11661
aI11969
aI12289
aI13710
aI13994
aI16348
aI16392
aI17413
aI17484
aI17603
aI17952
aI18184
aI18260
aI18845
aI19453
aI21179
aI21605
aI21696
aI21957
aI22923
aI22952
aI23760
aI23777
aI23781
aI23822
aI23917
aI24088
aI24584
aI24720
asI638
(lp639
I891
aI2288
aI3282
aI4164
aI4606
aI5147
aI5384
aI5482
aI5691
aI5768
aI5888
aI7331
aI7531
aI7576
aI7624
aI8170
aI8739
aI9006
aI9380
aI9440
aI9892
aI11096
aI11988
aI13170
aI13198
aI13495
aI15957
aI17069
aI18614
aI19044
aI19119
aI19615
aI19781
aI21193
aI22036
aI23401
aI23743
aI24055
asI639
(lp640
I529
aI2135
aI3233
aI3362
aI3688
aI4090
aI4114
aI4658
aI4741
aI5625
aI6096
aI6122
aI6484
aI8989
aI9939
aI10568
aI14183
aI15002
aI15614
aI15876
aI16632
aI16835
aI17828
aI18430
aI18954
aI19925
aI20138
aI21573
aI22497
aI24843
asI640
(lp641
I11
aI286
aI870
aI933
aI1152
aI1610
aI1725
aI2216
aI2426
aI2908
aI2956
aI3037
aI3716
aI4330
aI4723
aI6100
aI6984
aI7610
aI8659
aI9830
aI10474
aI10672
aI11271
aI11746
aI11999
aI12259
aI13831
aI14103
aI14558
aI14961
aI15692
aI16195
aI16923
aI18227
aI18874
aI19327
aI19563
aI20029
aI20190
aI20967
aI22796
aI22843
aI23293
aI23369
aI23797
asI641
(lp642
I402
aI449
aI1202
aI2938
aI3107
aI3451
aI4051
aI4097
aI4107
aI4137
aI5309
aI5874
aI8216
aI8278
aI9601
aI9983
aI10137
aI11417
aI13239
aI15509
aI16500
aI16578
aI16825
aI17029
aI17135
aI17416
aI17854
aI18955
aI19669
aI20979
aI21264
aI22281
aI22478
aI23057
aI23652
as.