ccopy_reg
_reconstructor
p0
(cnetworkx.graph
Graph
p1
c__builtin__
object
p2
Ntp3
Rp4
(dp5
S'adj'
p6
(dp7
I0
(dp8
I1
NsI20
NssI1
(dp9
I0
NsI2
NsI20
NsI21
NssI2
(dp10
I1
NsI3
NsI21
NsI22
NssI3
(dp11
I2
NsI4
NsI22
NsI23
NssI4
(dp12
I24
NsI3
NsI5
NsI23
NssI5
(dp13
I24
NsI25
NsI4
NsI6
NssI6
(dp14
I25
NsI26
NsI5
NsI7
NssI7
(dp15
I8
NsI26
NsI27
NsI6
NssI8
(dp16
I9
NsI27
NsI28
NsI7
NssI9
(dp17
I8
NsI10
NsI28
NsI29
NssI10
(dp18
I9
NsI11
NsI29
NsI30
NssI11
(dp19
I10
NsI12
NsI30
NsI31
NssI12
(dp20
I32
NsI11
NsI13
NsI31
NssI13
(dp21
I32
NsI33
NsI12
NsI14
NssI14
(dp22
I33
NsI34
NsI13
NsI15
NssI15
(dp23
I16
NsI34
NsI35
NsI14
NssI16
(dp24
I17
NsI35
NsI36
NsI15
NssI17
(dp25
I16
NsI18
NsI36
NsI37
NssI18
(dp26
I17
NsI19
NsI37
NsI38
NssI19
(dp27
I18
NsI38
NsI39
NssI20
(dp28
I0
NsI1
NsI41
NsI21
NsI40
NssI21
(dp29
I1
NsI2
NsI41
NsI42
NsI20
NsI22
NssI22
(dp30
I2
NsI3
NsI42
NsI43
NsI21
NsI23
NssI23
(dp31
I3
NsI4
NsI43
NsI44
NsI22
NsI24
NssI24
(dp32
I4
NsI5
NsI44
NsI45
NsI23
NsI25
NssI25
(dp33
I5
NsI6
NsI45
NsI46
NsI24
NsI26
NssI26
(dp34
I6
NsI7
NsI46
NsI47
NsI25
NsI27
NssI27
(dp35
I7
NsI8
NsI47
NsI48
NsI26
NsI28
NssI28
(dp36
I8
NsI9
NsI48
NsI49
NsI27
NsI29
NssI29
(dp37
I9
NsI10
NsI49
NsI50
NsI28
NsI30
NssI30
(dp38
I10
NsI11
NsI50
NsI51
NsI29
NsI31
NssI31
(dp39
I32
NsI11
NsI12
NsI51
NsI52
NsI30
NssI32
(dp40
I33
NsI12
NsI13
NsI52
NsI53
NsI31
NssI33
(dp41
I32
NsI34
NsI13
NsI14
NsI53
NsI54
NssI34
(dp42
I33
NsI35
NsI14
NsI15
NsI54
NsI55
NssI35
(dp43
I34
NsI36
NsI15
NsI16
NsI55
NsI56
NssI36
(dp44
I35
NsI37
NsI16
NsI17
NsI56
NsI57
NssI37
(dp45
I36
NsI38
NsI17
NsI18
NsI57
NsI58
NssI38
(dp46
I37
NsI39
NsI18
NsI19
NsI58
NsI59
NssI39
(dp47
I59
NsI19
NsI38
NssI40
(dp48
I41
NsI20
NsI60
NssI41
(dp49
I40
NsI42
NsI20
NsI21
NsI60
NsI61
NssI42
(dp50
I41
NsI43
NsI21
NsI22
NsI61
NsI62
NssI43
(dp51
I42
NsI44
NsI22
NsI23
NsI62
NsI63
NssI44
(dp52
I64
NsI43
NsI45
NsI23
NsI24
NsI63
NssI45
(dp53
I64
NsI65
NsI44
NsI46
NsI24
NsI25
NssI46
(dp54
I65
NsI66
NsI45
NsI47
NsI25
NsI26
NssI47
(dp55
I66
NsI67
NsI46
NsI48
NsI26
NsI27
NssI48
(dp56
I67
NsI68
NsI47
NsI49
NsI27
NsI28
NssI49
(dp57
I68
NsI69
NsI48
NsI50
NsI28
NsI29
NssI50
(dp58
I69
NsI70
NsI49
NsI51
NsI29
NsI30
NssI51
(dp59
I70
NsI71
NsI50
NsI52
NsI30
NsI31
NssI52
(dp60
I32
NsI71
NsI72
NsI51
NsI53
NsI31
NssI53
(dp61
I32
NsI33
NsI72
NsI73
NsI52
NsI54
NssI54
(dp62
I33
NsI34
NsI73
NsI74
NsI53
NsI55
NssI55
(dp63
I34
NsI35
NsI74
NsI75
NsI54
NsI56
NssI56
(dp64
I35
NsI36
NsI75
NsI76
NsI55
NsI57
NssI57
(dp65
I36
NsI37
NsI76
NsI77
NsI56
NsI58
NssI58
(dp66
I37
NsI38
NsI77
NsI78
NsI57
NsI59
NssI59
(dp67
I58
NsI79
NsI78
NsI38
NsI39
NssI60
(dp68
I40
NsI41
NsI61
NsI80
NsI81
NssI61
(dp69
I41
NsI42
NsI81
NsI82
NsI60
NsI62
NssI62
(dp70
I42
NsI43
NsI82
NsI83
NsI61
NsI63
NssI63
(dp71
I64
NsI43
NsI44
NsI83
NsI84
NsI62
NssI64
(dp72
I65
NsI44
NsI45
NsI84
NsI85
NsI63
NssI65
(dp73
I64
NsI66
NsI45
NsI46
NsI85
NsI86
NssI66
(dp74
I65
NsI67
NsI46
NsI47
NsI86
NsI87
NssI67
(dp75
I66
NsI68
NsI47
NsI48
NsI87
NsI88
NssI68
(dp76
I67
NsI69
NsI48
NsI49
NsI88
NsI89
NssI69
(dp77
I68
NsI70
NsI49
NsI50
NsI89
NsI90
NssI70
(dp78
I69
NsI71
NsI50
NsI51
NsI90
NsI91
NssI71
(dp79
I70
NsI72
NsI51
NsI52
NsI91
NsI92
NssI72
(dp80
I71
NsI73
NsI52
NsI53
NsI92
NsI93
NssI73
(dp81
I72
NsI74
NsI53
NsI54
NsI93
NsI94
NssI74
(dp82
I73
NsI75
NsI54
NsI55
NsI94
NsI95
NssI75
(dp83
I96
NsI74
NsI76
NsI55
NsI56
NsI95
NssI76
(dp84
I96
NsI97
NsI75
NsI77
NsI56
NsI57
NssI77
(dp85
I97
NsI98
NsI76
NsI78
NsI57
NsI58
NssI78
(dp86
I98
NsI99
NsI77
NsI79
NsI58
NsI59
NssI79
(dp87
I99
NsI59
NsI78
NssI80
(dp88
I81
NsI60
NsI100
NssI81
(dp89
I100
NsI101
NsI80
NsI82
NsI60
NsI61
NssI82
(dp90
I101
NsI102
NsI81
NsI83
NsI61
NsI62
NssI83
(dp91
I102
NsI103
NsI82
NsI84
NsI62
NsI63
NssI84
(dp92
I64
NsI103
NsI104
NsI83
NsI85
NsI63
NssI85
(dp93
I64
NsI65
NsI104
NsI105
NsI84
NsI86
NssI86
(dp94
I65
NsI66
NsI105
NsI106
NsI85
NsI87
NssI87
(dp95
I66
NsI67
NsI106
NsI107
NsI86
NsI88
NssI88
(dp96
I67
NsI68
NsI107
NsI108
NsI87
NsI89
NssI89
(dp97
I68
NsI69
NsI108
NsI109
NsI88
NsI90
NssI90
(dp98
I69
NsI70
NsI109
NsI110
NsI89
NsI91
NssI91
(dp99
I70
NsI71
NsI110
NsI111
NsI90
NsI92
NssI92
(dp100
I71
NsI72
NsI111
NsI112
NsI91
NsI93
NssI93
(dp101
I72
NsI73
NsI112
NsI113
NsI92
NsI94
NssI94
(dp102
I73
NsI74
NsI113
NsI114
NsI93
NsI95
NssI95
(dp103
I96
NsI74
NsI75
NsI114
NsI115
NsI94
NssI96
(dp104
I97
NsI75
NsI76
NsI115
NsI116
NsI95
NssI97
(dp105
I96
NsI98
NsI76
NsI77
NsI116
NsI117
NssI98
(dp106
I97
NsI99
NsI77
NsI78
NsI117
NsI118
NssI99
(dp107
I98
NsI119
NsI118
NsI78
NsI79
NssI100
(dp108
I80
NsI81
NsI101
NsI120
NsI121
NssI101
(dp109
I100
NsI102
NsI81
NsI82
NsI121
NsI122
NssI102
(dp110
I101
NsI103
NsI82
NsI83
NsI122
NsI123
NssI103
(dp111
I102
NsI104
NsI83
NsI84
NsI123
NsI124
NssI104
(dp112
I103
NsI105
NsI84
NsI85
NsI124
NsI125
NssI105
(dp113
I104
NsI106
NsI85
NsI86
NsI125
NsI126
NssI106
(dp114
I105
NsI107
NsI86
NsI87
NsI126
NsI127
NssI107
(dp115
I128
NsI106
NsI108
NsI87
NsI88
NsI127
NssI108
(dp116
I128
NsI129
NsI107
NsI109
NsI88
NsI89
NssI109
(dp117
I129
NsI130
NsI108
NsI110
NsI89
NsI90
NssI110
(dp118
I130
NsI131
NsI109
NsI111
NsI90
NsI91
NssI111
(dp119
I131
NsI132
NsI110
NsI112
NsI91
NsI92
NssI112
(dp120
I132
NsI133
NsI111
NsI113
NsI92
NsI93
NssI113
(dp121
I133
NsI134
NsI112
NsI114
NsI93
NsI94
NssI114
(dp122
I134
NsI135
NsI113
NsI115
NsI94
NsI95
NssI115
(dp123
I96
NsI135
NsI136
NsI114
NsI116
NsI95
NssI116
(dp124
I96
NsI97
NsI136
NsI137
NsI115
NsI117
NssI117
(dp125
I97
NsI98
NsI137
NsI138
NsI116
NsI118
NssI118
(dp126
I98
NsI99
NsI138
NsI139
NsI117
NsI119
NssI119
(dp127
I99
NsI139
NsI118
NssI120
(dp128
I121
NsI140
NsI100
NssI121
(dp129
I100
NsI101
NsI140
NsI141
NsI120
NsI122
NssI122
(dp130
I101
NsI102
NsI141
NsI142
NsI121
NsI123
NssI123
(dp131
I102
NsI103
NsI142
NsI143
NsI122
NsI124
NssI124
(dp132
I103
NsI104
NsI143
NsI144
NsI123
NsI125
NssI125
(dp133
I104
NsI105
NsI144
NsI145
NsI124
NsI126
NssI126
(dp134
I105
NsI106
NsI145
NsI146
NsI125
NsI127
NssI127
(dp135
I128
NsI106
NsI107
NsI146
NsI147
NsI126
NssI128
(dp136
I129
NsI107
NsI108
NsI147
NsI148
NsI127
NssI129
(dp137
I128
NsI130
NsI108
NsI109
NsI148
NsI149
NssI130
(dp138
I129
NsI131
NsI109
NsI110
NsI149
NsI150
NssI131
(dp139
I130
NsI132
NsI110
NsI111
NsI150
NsI151
NssI132
(dp140
I131
NsI133
NsI111
NsI112
NsI151
NsI152
NssI133
(dp141
I132
NsI134
NsI112
NsI113
NsI152
NsI153
NssI134
(dp142
I133
NsI135
NsI113
NsI114
NsI153
NsI154
NssI135
(dp143
I134
NsI136
NsI114
NsI115
NsI154
NsI155
NssI136
(dp144
I135
NsI137
NsI115
NsI116
NsI155
NsI156
NssI137
(dp145
I136
NsI138
NsI116
NsI117
NsI156
NsI157
NssI138
(dp146
I137
NsI139
NsI117
NsI118
NsI157
NsI158
NssI139
(dp147
I138
NsI159
NsI158
NsI118
NsI119
NssI140
(dp148
I120
NsI121
NsI160
NsI141
NsI161
NssI141
(dp149
I161
NsI162
NsI140
NsI142
NsI121
NsI122
NssI142
(dp150
I162
NsI163
NsI141
NsI143
NsI122
NsI123
NssI143
(dp151
I163
NsI164
NsI142
NsI144
NsI123
NsI124
NssI144
(dp152
I164
NsI165
NsI143
NsI145
NsI124
NsI125
NssI145
(dp153
I165
NsI166
NsI144
NsI146
NsI125
NsI126
NssI146
(dp154
I166
NsI167
NsI145
NsI147
NsI126
NsI127
NssI147
(dp155
I128
NsI167
NsI168
NsI146
NsI148
NsI127
NssI148
(dp156
I128
NsI129
NsI168
NsI169
NsI147
NsI149
NssI149
(dp157
I129
NsI130
NsI169
NsI170
NsI148
NsI150
NssI150
(dp158
I130
NsI131
NsI170
NsI171
NsI149
NsI151
NssI151
(dp159
I131
NsI132
NsI171
NsI172
NsI150
NsI152
NssI152
(dp160
I132
NsI133
NsI172
NsI173
NsI151
NsI153
NssI153
(dp161
I133
NsI134
NsI173
NsI174
NsI152
NsI154
NssI154
(dp162
I134
NsI135
NsI174
NsI175
NsI153
NsI155
NssI155
(dp163
I135
NsI136
NsI175
NsI176
NsI154
NsI156
NssI156
(dp164
I136
NsI137
NsI176
NsI177
NsI155
NsI157
NssI157
(dp165
I137
NsI138
NsI177
NsI178
NsI156
NsI158
NssI158
(dp166
I138
NsI139
NsI178
NsI179
NsI157
NsI159
NssI159
(dp167
I139
NsI179
NsI158
NssI160
(dp168
I161
NsI180
NsI140
NssI161
(dp169
I160
NsI162
NsI140
NsI141
NsI180
NsI181
NssI162
(dp170
I161
NsI163
NsI141
NsI142
NsI181
NsI182
NssI163
(dp171
I162
NsI164
NsI142
NsI143
NsI182
NsI183
NssI164
(dp172
I163
NsI165
NsI143
NsI144
NsI183
NsI184
NssI165
(dp173
I164
NsI166
NsI144
NsI145
NsI184
NsI185
NssI166
(dp174
I165
NsI167
NsI145
NsI146
NsI185
NsI186
NssI167
(dp175
I166
NsI168
NsI146
NsI147
NsI186
NsI187
NssI168
(dp176
I167
NsI169
NsI147
NsI148
NsI187
NsI188
NssI169
(dp177
I168
NsI170
NsI148
NsI149
NsI188
NsI189
NssI170
(dp178
I169
NsI171
NsI149
NsI150
NsI189
NsI190
NssI171
(dp179
I170
NsI172
NsI150
NsI151
NsI190
NsI191
NssI172
(dp180
I192
NsI171
NsI173
NsI151
NsI152
NsI191
NssI173
(dp181
I192
NsI193
NsI172
NsI174
NsI152
NsI153
NssI174
(dp182
I193
NsI194
NsI173
NsI175
NsI153
NsI154
NssI175
(dp183
I194
NsI195
NsI174
NsI176
NsI154
NsI155
NssI176
(dp184
I195
NsI196
NsI175
NsI177
NsI155
NsI156
NssI177
(dp185
I196
NsI197
NsI176
NsI178
NsI156
NsI157
NssI178
(dp186
I197
NsI198
NsI177
NsI179
NsI157
NsI158
NssI179
(dp187
I178
NsI199
NsI198
NsI158
NsI159
NssI180
(dp188
I160
NsI161
NsI200
NsI181
NsI201
NssI181
(dp189
I161
NsI162
NsI201
NsI202
NsI180
NsI182
NssI182
(dp190
I162
NsI163
NsI202
NsI203
NsI181
NsI183
NssI183
(dp191
I163
NsI164
NsI203
NsI204
NsI182
NsI184
NssI184
(dp192
I164
NsI165
NsI204
NsI205
NsI183
NsI185
NssI185
(dp193
I165
NsI166
NsI205
NsI206
NsI184
NsI186
NssI186
(dp194
I166
NsI167
NsI206
NsI207
NsI185
NsI187
NssI187
(dp195
I167
NsI168
NsI207
NsI208
NsI186
NsI188
NssI188
(dp196
I168
NsI169
NsI208
NsI209
NsI187
NsI189
NssI189
(dp197
I169
NsI170
NsI209
NsI210
NsI188
NsI190
NssI190
(dp198
I170
NsI171
NsI210
NsI211
NsI189
NsI191
NssI191
(dp199
I192
NsI171
NsI172
NsI211
NsI212
NsI190
NssI192
(dp200
I193
NsI172
NsI173
NsI212
NsI213
NsI191
NssI193
(dp201
I192
NsI194
NsI173
NsI174
NsI213
NsI214
NssI194
(dp202
I193
NsI195
NsI174
NsI175
NsI214
NsI215
NssI195
(dp203
I194
NsI196
NsI175
NsI176
NsI215
NsI216
NssI196
(dp204
I195
NsI197
NsI176
NsI177
NsI216
NsI217
NssI197
(dp205
I196
NsI198
NsI177
NsI178
NsI217
NsI218
NssI198
(dp206
I197
NsI199
NsI178
NsI179
NsI218
NsI219
NssI199
(dp207
I179
NsI198
NsI219
NssI200
(dp208
I201
NsI180
NsI220
NssI201
(dp209
I200
NsI202
NsI180
NsI181
NsI220
NsI221
NssI202
(dp210
I201
NsI203
NsI181
NsI182
NsI221
NsI222
NssI203
(dp211
I202
NsI204
NsI182
NsI183
NsI222
NsI223
NssI204
(dp212
I224
NsI203
NsI205
NsI183
NsI184
NsI223
NssI205
(dp213
I224
NsI225
NsI204
NsI206
NsI184
NsI185
NssI206
(dp214
I225
NsI226
NsI205
NsI207
NsI185
NsI186
NssI207
(dp215
I226
NsI227
NsI206
NsI208
NsI186
NsI187
NssI208
(dp216
I227
NsI228
NsI207
NsI209
NsI187
NsI188
NssI209
(dp217
I228
NsI229
NsI208
NsI210
NsI188
NsI189
NssI210
(dp218
I229
NsI230
NsI209
NsI211
NsI189
NsI190
NssI211
(dp219
I230
NsI231
NsI210
NsI212
NsI190
NsI191
NssI212
(dp220
I192
NsI231
NsI232
NsI211
NsI213
NsI191
NssI213
(dp221
I192
NsI193
NsI232
NsI233
NsI212
NsI214
NssI214
(dp222
I193
NsI194
NsI233
NsI234
NsI213
NsI215
NssI215
(dp223
I194
NsI195
NsI234
NsI235
NsI214
NsI216
NssI216
(dp224
I195
NsI196
NsI235
NsI236
NsI215
NsI217
NssI217
(dp225
I196
NsI197
NsI236
NsI237
NsI216
NsI218
NssI218
(dp226
I197
NsI198
NsI237
NsI238
NsI217
NsI219
NssI219
(dp227
I218
NsI239
NsI238
NsI198
NsI199
NssI220
(dp228
I200
NsI201
NsI240
NsI221
NsI241
NssI221
(dp229
I201
NsI202
NsI241
NsI242
NsI220
NsI222
NssI222
(dp230
I202
NsI203
NsI242
NsI243
NsI221
NsI223
NssI223
(dp231
I224
NsI203
NsI204
NsI243
NsI244
NsI222
NssI224
(dp232
I225
NsI204
NsI205
NsI244
NsI245
NsI223
NssI225
(dp233
I224
NsI226
NsI205
NsI206
NsI245
NsI246
NssI226
(dp234
I225
NsI227
NsI206
NsI207
NsI246
NsI247
NssI227
(dp235
I226
NsI228
NsI207
NsI208
NsI247
NsI248
NssI228
(dp236
I227
NsI229
NsI208
NsI209
NsI248
NsI249
NssI229
(dp237
I228
NsI230
NsI209
NsI210
NsI249
NsI250
NssI230
(dp238
I229
NsI231
NsI210
NsI211
NsI250
NsI251
NssI231
(dp239
I230
NsI232
NsI211
NsI212
NsI251
NsI252
NssI232
(dp240
I231
NsI233
NsI212
NsI213
NsI252
NsI253
NssI233
(dp241
I232
NsI234
NsI213
NsI214
NsI253
NsI254
NssI234
(dp242
I233
NsI235
NsI214
NsI215
NsI254
NsI255
NssI235
(dp243
I256
NsI234
NsI236
NsI215
NsI216
NsI255
NssI236
(dp244
I256
NsI257
NsI235
NsI237
NsI216
NsI217
NssI237
(dp245
I257
NsI258
NsI236
NsI238
NsI217
NsI218
NssI238
(dp246
I258
NsI259
NsI237
NsI239
NsI218
NsI219
NssI239
(dp247
I259
NsI219
NsI238
NssI240
(dp248
I241
NsI220
NsI260
NssI241
(dp249
I260
NsI261
NsI240
NsI242
NsI220
NsI221
NssI242
(dp250
I261
NsI262
NsI241
NsI243
NsI221
NsI222
NssI243
(dp251
I262
NsI263
NsI242
NsI244
NsI222
NsI223
NssI244
(dp252
I224
NsI263
NsI264
NsI243
NsI245
NsI223
NssI245
(dp253
I224
NsI225
NsI264
NsI265
NsI244
NsI246
NssI246
(dp254
I225
NsI226
NsI265
NsI266
NsI245
NsI247
NssI247
(dp255
I226
NsI227
NsI266
NsI267
NsI246
NsI248
NssI248
(dp256
I227
NsI228
NsI267
NsI268
NsI247
NsI249
NssI249
(dp257
I228
NsI229
NsI268
NsI269
NsI248
NsI250
NssI250
(dp258
I229
NsI230
NsI269
NsI270
NsI249
NsI251
NssI251
(dp259
I230
NsI231
NsI270
NsI271
NsI250
NsI252
NssI252
(dp260
I231
NsI232
NsI271
NsI272
NsI251
NsI253
NssI253
(dp261
I232
NsI233
NsI272
NsI273
NsI252
NsI254
NssI254
(dp262
I233
NsI234
NsI273
NsI274
NsI253
NsI255
NssI255
(dp263
I256
NsI234
NsI235
NsI274
NsI275
NsI254
NssI256
(dp264
I257
NsI235
NsI236
NsI275
NsI276
NsI255
NssI257
(dp265
I256
NsI258
NsI236
NsI237
NsI276
NsI277
NssI258
(dp266
I257
NsI259
NsI237
NsI238
NsI277
NsI278
NssI259
(dp267
I258
NsI279
NsI278
NsI238
NsI239
NssI260
(dp268
I240
NsI241
NsI261
NsI280
NsI281
NssI261
(dp269
I260
NsI262
NsI241
NsI242
NsI281
NsI282
NssI262
(dp270
I261
NsI263
NsI242
NsI243
NsI282
NsI283
NssI263
(dp271
I262
NsI264
NsI243
NsI244
NsI283
NsI284
NssI264
(dp272
I263
NsI265
NsI244
NsI245
NsI284
NsI285
NssI265
(dp273
I264
NsI266
NsI245
NsI246
NsI285
NsI286
NssI266
(dp274
I265
NsI267
NsI246
NsI247
NsI286
NsI287
NssI267
(dp275
I288
NsI266
NsI268
NsI247
NsI248
NsI287
NssI268
(dp276
I288
NsI289
NsI267
NsI269
NsI248
NsI249
NssI269
(dp277
I289
NsI290
NsI268
NsI270
NsI249
NsI250
NssI270
(dp278
I290
NsI291
NsI269
NsI271
NsI250
NsI251
NssI271
(dp279
I291
NsI292
NsI270
NsI272
NsI251
NsI252
NssI272
(dp280
I292
NsI293
NsI271
NsI273
NsI252
NsI253
NssI273
(dp281
I293
NsI294
NsI272
NsI274
NsI253
NsI254
NssI274
(dp282
I294
NsI295
NsI273
NsI275
NsI254
NsI255
NssI275
(dp283
I256
NsI295
NsI296
NsI274
NsI276
NsI255
NssI276
(dp284
I256
NsI257
NsI296
NsI297
NsI275
NsI277
NssI277
(dp285
I257
NsI258
NsI297
NsI298
NsI276
NsI278
NssI278
(dp286
I258
NsI259
NsI298
NsI299
NsI277
NsI279
NssI279
(dp287
I299
NsI259
NsI278
NssI280
(dp288
I281
NsI260
NsI300
NssI281
(dp289
I260
NsI261
NsI300
NsI301
NsI280
NsI282
NssI282
(dp290
I261
NsI262
NsI301
NsI302
NsI281
NsI283
NssI283
(dp291
I262
NsI263
NsI302
NsI303
NsI282
NsI284
NssI284
(dp292
I263
NsI264
NsI303
NsI304
NsI283
NsI285
NssI285
(dp293
I264
NsI265
NsI304
NsI305
NsI284
NsI286
NssI286
(dp294
I265
NsI266
NsI305
NsI306
NsI285
NsI287
NssI287
(dp295
I288
NsI266
NsI267
NsI306
NsI307
NsI286
NssI288
(dp296
I289
NsI267
NsI268
NsI307
NsI308
NsI287
NssI289
(dp297
I288
NsI290
NsI268
NsI269
NsI308
NsI309
NssI290
(dp298
I289
NsI291
NsI269
NsI270
NsI309
NsI310
NssI291
(dp299
I290
NsI292
NsI270
NsI271
NsI310
NsI311
NssI292
(dp300
I291
NsI293
NsI271
NsI272
NsI311
NsI312
NssI293
(dp301
I292
NsI294
NsI272
NsI273
NsI312
NsI313
NssI294
(dp302
I293
NsI295
NsI273
NsI274
NsI313
NsI314
NssI295
(dp303
I294
NsI296
NsI274
NsI275
NsI314
NsI315
NssI296
(dp304
I295
NsI297
NsI275
NsI276
NsI315
NsI316
NssI297
(dp305
I296
NsI298
NsI276
NsI277
NsI316
NsI317
NssI298
(dp306
I297
NsI299
NsI277
NsI278
NsI317
NsI318
NssI299
(dp307
I298
NsI319
NsI318
NsI278
NsI279
NssI300
(dp308
I280
NsI281
NsI301
NsI320
NsI321
NssI301
(dp309
I321
NsI322
NsI300
NsI302
NsI281
NsI282
NssI302
(dp310
I322
NsI323
NsI301
NsI303
NsI282
NsI283
NssI303
(dp311
I323
NsI324
NsI302
NsI304
NsI283
NsI284
NssI304
(dp312
I324
NsI325
NsI303
NsI305
NsI284
NsI285
NssI305
(dp313
I325
NsI326
NsI304
NsI306
NsI285
NsI286
NssI306
(dp314
I326
NsI327
NsI305
NsI307
NsI286
NsI287
NssI307
(dp315
I288
NsI327
NsI328
NsI306
NsI308
NsI287
NssI308
(dp316
I288
NsI289
NsI328
NsI329
NsI307
NsI309
NssI309
(dp317
I289
NsI290
NsI329
NsI330
NsI308
NsI310
NssI310
(dp318
I290
NsI291
NsI330
NsI331
NsI309
NsI311
NssI311
(dp319
I291
NsI292
NsI331
NsI332
NsI310
NsI312
NssI312
(dp320
I292
NsI293
NsI332
NsI333
NsI311
NsI313
NssI313
(dp321
I293
NsI294
NsI333
NsI334
NsI312
NsI314
NssI314
(dp322
I294
NsI295
NsI334
NsI335
NsI313
NsI315
NssI315
(dp323
I295
NsI296
NsI335
NsI336
NsI314
NsI316
NssI316
(dp324
I296
NsI297
NsI336
NsI337
NsI315
NsI317
NssI317
(dp325
I297
NsI298
NsI337
NsI338
NsI316
NsI318
NssI318
(dp326
I298
NsI299
NsI338
NsI339
NsI317
NsI319
NssI319
(dp327
I339
NsI299
NsI318
NssI320
(dp328
I340
NsI321
NsI300
NssI321
(dp329
I320
NsI322
NsI300
NsI301
NsI340
NsI341
NssI322
(dp330
I321
NsI323
NsI301
NsI302
NsI341
NsI342
NssI323
(dp331
I322
NsI324
NsI302
NsI303
NsI342
NsI343
NssI324
(dp332
I323
NsI325
NsI303
NsI304
NsI343
NsI344
NssI325
(dp333
I324
NsI326
NsI304
NsI305
NsI344
NsI345
NssI326
(dp334
I325
NsI327
NsI305
NsI306
NsI345
NsI346
NssI327
(dp335
I326
NsI328
NsI306
NsI307
NsI346
NsI347
NssI328
(dp336
I327
NsI329
NsI307
NsI308
NsI347
NsI348
NssI329
(dp337
I328
NsI330
NsI308
NsI309
NsI348
NsI349
NssI330
(dp338
I329
NsI331
NsI309
NsI310
NsI349
NsI350
NssI331
(dp339
I330
NsI332
NsI310
NsI311
NsI350
NsI351
NssI332
(dp340
I352
NsI331
NsI333
NsI311
NsI312
NsI351
NssI333
(dp341
I352
NsI353
NsI332
NsI334
NsI312
NsI313
NssI334
(dp342
I353
NsI354
NsI333
NsI335
NsI313
NsI314
NssI335
(dp343
I354
NsI355
NsI334
NsI336
NsI314
NsI315
NssI336
(dp344
I355
NsI356
NsI335
NsI337
NsI315
NsI316
NssI337
(dp345
I356
NsI357
NsI336
NsI338
NsI316
NsI317
NssI338
(dp346
I357
NsI358
NsI337
NsI339
NsI317
NsI318
NssI339
(dp347
I338
NsI359
NsI358
NsI318
NsI319
NssI340
(dp348
I320
NsI321
NsI341
NsI360
NsI361
NssI341
(dp349
I321
NsI322
NsI361
NsI362
NsI340
NsI342
NssI342
(dp350
I322
NsI323
NsI362
NsI363
NsI341
NsI343
NssI343
(dp351
I323
NsI324
NsI363
NsI364
NsI342
NsI344
NssI344
(dp352
I324
NsI325
NsI364
NsI365
NsI343
NsI345
NssI345
(dp353
I325
NsI326
NsI365
NsI366
NsI344
NsI346
NssI346
(dp354
I326
NsI327
NsI366
NsI367
NsI345
NsI347
NssI347
(dp355
I327
NsI328
NsI367
NsI368
NsI346
NsI348
NssI348
(dp356
I328
NsI329
NsI368
NsI369
NsI347
NsI349
NssI349
(dp357
I329
NsI330
NsI369
NsI370
NsI348
NsI350
NssI350
(dp358
I330
NsI331
NsI370
NsI371
NsI349
NsI351
NssI351
(dp359
I352
NsI331
NsI332
NsI371
NsI372
NsI350
NssI352
(dp360
I353
NsI332
NsI333
NsI372
NsI373
NsI351
NssI353
(dp361
I352
NsI354
NsI333
NsI334
NsI373
NsI374
NssI354
(dp362
I353
NsI355
NsI334
NsI335
NsI374
NsI375
NssI355
(dp363
I354
NsI356
NsI335
NsI336
NsI375
NsI376
NssI356
(dp364
I355
NsI357
NsI336
NsI337
NsI376
NsI377
NssI357
(dp365
I356
NsI358
NsI337
NsI338
NsI377
NsI378
NssI358
(dp366
I357
NsI359
NsI338
NsI339
NsI378
NsI379
NssI359
(dp367
I379
NsI339
NsI358
NssI360
(dp368
I361
NsI340
NsI380
NssI361
(dp369
I360
NsI362
NsI340
NsI341
NsI380
NsI381
NssI362
(dp370
I361
NsI363
NsI341
NsI342
NsI381
NsI382
NssI363
(dp371
I362
NsI364
NsI342
NsI343
NsI382
NsI383
NssI364
(dp372
I384
NsI363
NsI365
NsI343
NsI344
NsI383
NssI365
(dp373
I384
NsI385
NsI364
NsI366
NsI344
NsI345
NssI366
(dp374
I385
NsI386
NsI365
NsI367
NsI345
NsI346
NssI367
(dp375
I386
NsI387
NsI366
NsI368
NsI346
NsI347
NssI368
(dp376
I387
NsI388
NsI367
NsI369
NsI347
NsI348
NssI369
(dp377
I388
NsI389
NsI368
NsI370
NsI348
NsI349
NssI370
(dp378
I389
NsI390
NsI369
NsI371
NsI349
NsI350
NssI371
(dp379
I390
NsI391
NsI370
NsI372
NsI350
NsI351
NssI372
(dp380
I352
NsI391
NsI392
NsI371
NsI373
NsI351
NssI373
(dp381
I352
NsI353
NsI392
NsI393
NsI372
NsI374
NssI374
(dp382
I353
NsI354
NsI393
NsI394
NsI373
NsI375
NssI375
(dp383
I354
NsI355
NsI394
NsI395
NsI374
NsI376
NssI376
(dp384
I355
NsI356
NsI395
NsI396
NsI375
NsI377
NssI377
(dp385
I356
NsI357
NsI396
NsI397
NsI376
NsI378
NssI378
(dp386
I357
NsI358
NsI397
NsI398
NsI377
NsI379
NssI379
(dp387
I378
NsI399
NsI398
NsI358
NsI359
NssI380
(dp388
I360
NsI361
NsI381
NssI381
(dp389
I361
NsI362
NsI380
NsI382
NssI382
(dp390
I362
NsI363
NsI381
NsI383
NssI383
(dp391
I384
NsI363
NsI364
NsI382
NssI384
(dp392
I385
NsI364
NsI365
NsI383
NssI385
(dp393
I384
NsI386
NsI365
NsI366
NssI386
(dp394
I385
NsI387
NsI366
NsI367
NssI387
(dp395
I368
NsI386
NsI388
NsI367
NssI388
(dp396
I368
NsI369
NsI387
NsI389
NssI389
(dp397
I369
NsI370
NsI388
NsI390
NssI390
(dp398
I370
NsI371
NsI389
NsI391
NssI391
(dp399
I392
NsI371
NsI372
NsI390
NssI392
(dp400
I393
NsI372
NsI373
NsI391
NssI393
(dp401
I392
NsI394
NsI373
NsI374
NssI394
(dp402
I393
NsI395
NsI374
NsI375
NssI395
(dp403
I376
NsI394
NsI396
NsI375
NssI396
(dp404
I376
NsI377
NsI395
NsI397
NssI397
(dp405
I377
NsI378
NsI396
NsI398
NssI398
(dp406
I378
NsI379
NsI397
NsI399
NssI399
(dp407
I379
NsI398
NsssS'name'
p408
S''
p409
sb.