(dp0
cnumpy.core.multiarray
scalar
p1
(cnumpy
dtype
p2
(S'i4'
p3
I0
I1
tp4
Rp5
(I3
S'>'
p6
NNNI-1
I-1
I0
tp7
bS'\x00\x00\x00\x00'
p8
tp9
Rp10
(lp11
I6571
aI7654
aI14397
aI16223
aI16957
aI16991
aI19557
asg1
(g5
S'\x00\x00\x00\x01'
p12
tp13
Rp14
(lp15
I653
aI2179
aI2597
aI2754
aI3208
aI3435
aI4478
aI6146
aI7248
aI8101
aI8433
aI8901
aI9066
aI9106
aI9561
aI10010
aI10321
aI10709
aI11958
aI12826
aI13461
aI13726
aI14268
aI14346
aI15146
aI18668
aI18880
aI19230
aI19343
aI19384
aI20609
aI20611
aI20899
asg1
(g5
S'\x00\x00\x00\x02'
p16
tp17
Rp18
(lp19
I874
aI1588
aI1820
aI2238
aI3220
aI3503
aI3955
aI4592
aI5061
aI6956
aI6969
aI7392
aI7815
aI7867
aI7922
aI8128
aI9347
aI9387
aI10621
aI11953
aI12581
aI12588
aI13353
aI13498
aI13759
aI14284
aI14594
aI15647
aI15695
aI15733
aI15813
aI16584
aI16730
aI17414
aI17532
aI18305
aI19263
aI19903
aI20834
aI20923
asg1
(g5
S'\x00\x00\x00\x03'
p20
tp21
Rp22
(lp23
I752
aI1250
aI1458
aI1908
aI2290
aI2790
aI3297
aI5686
aI5797
aI5934
aI6182
aI6329
aI6431
aI6466
aI6584
aI7219
aI7682
aI9396
aI9683
aI10480
aI10867
aI11876
aI11990
aI12633
aI12809
aI12813
aI12968
aI13796
aI14895
aI15591
aI15602
aI16333
aI16796
aI16855
aI17018
aI17236
aI17313
aI18323
aI19003
aI19721
aI20129
aI20153
aI20512
aI20665
aI20704
aI20904
asg1
(g5
S'\x00\x00\x00\x04'
p24
tp25
Rp26
(lp27
I330
aI386
aI412
aI682
aI854
aI1190
aI1812
aI1863
aI1981
aI2200
aI2726
aI3069
aI3971
aI4464
aI4997
aI5016
aI5086
aI5646
aI6088
aI7025
aI7055
aI7571
aI7761
aI8145
aI8473
aI9337
aI9762
aI9916
aI10163
aI10237
aI10826
aI11230
aI12184
aI12229
aI12315
aI12928
aI12998
aI13890
aI14523
aI15835
aI16195
aI16456
aI16459
aI16657
aI16952
aI17210
aI17329
aI17352
aI17458
aI17649
aI18594
aI19093
aI19127
aI19595
aI19671
aI19909
aI20187
aI20926
asg1
(g5
S'\x00\x00\x00\x05'
p28
tp29
Rp30
(lp31
I506
aI1810
aI2810
aI3161
aI5617
aI7054
aI18961
aI20304
asg1
(g5
S'\x00\x00\x00\x06'
p32
tp33
Rp34
(lp35
I5178
aI8585
aI10000
aI12777
aI14192
aI16208
aI19237
asg1
(g5
S'\x00\x00\x00\x07'
p36
tp37
Rp38
(lp39
I705
aI1041
aI1484
aI1500
aI2031
aI2262
aI2599
aI2927
aI4322
aI4545
aI4925
aI5452
aI6494
aI6577
aI6652
aI6785
aI6827
aI7289
aI7368
aI7739
aI8147
aI8613
aI8776
aI9236
aI9290
aI9318
aI9536
aI9956
aI10018
aI10184
aI10187
aI10332
aI10540
aI10726
aI10865
aI11072
aI11857
aI13486
aI13910
aI14474
aI14683
aI14896
aI15044
aI15548
aI15772
aI15873
aI16149
aI16179
aI16270
aI16610
aI16707
aI18291
aI18774
aI18905
aI18994
aI19254
aI19406
aI19810
aI20077
aI20668
asg1
(g5
S'\x00\x00\x00\x08'
p40
tp41
Rp42
(lp43
I348
aI2026
aI2038
aI2485
aI2796
aI3211
aI3527
aI3600
aI4034
aI4119
aI4152
aI4993
aI6050
aI6175
aI6427
aI6724
aI7501
aI7690
aI8096
aI8679
aI8745
aI9929
aI10219
aI10677
aI12381
aI12897
aI13048
aI13565
aI14064
aI15195
aI15818
aI17194
aI17406
aI17469
aI17488
aI17733
aI18300
aI18315
aI20054
asg1
(g5
S'\x00\x00\x00\t'
p44
tp45
Rp46
(lp47
I182
aI557
aI1811
aI2048
aI2572
aI3098
aI4190
aI4262
aI5029
aI7037
aI7139
aI8612
aI10505
aI11532
aI14240
aI14632
aI15499
aI16813
aI20063
aI20316
aI20367
aI20398
asg1
(g5
S'\x00\x00\x00\n'
p48
tp49
Rp50
(lp51
I448
aI1329
aI1454
aI1485
aI1543
aI3105
aI3596
aI3723
aI3776
aI4572
aI5190
aI5768
aI6082
aI6651
aI7023
aI8081
aI10071
aI10149
aI10437
aI11004
aI12046
aI12438
aI13154
aI13388
aI13689
aI15576
aI15787
aI16791
aI16830
aI17526
aI17811
aI18338
aI19141
aI20061
aI20719
asg1
(g5
S'\x00\x00\x00\x0b'
p52
tp53
Rp54
(lp55
I387
aI665
aI1047
aI1061
aI2524
aI2845
aI4093
aI4447
aI5002
aI5191
aI6437
aI7244
aI8365
aI8576
aI8619
aI8716
aI9968
aI15912
aI16133
aI16419
aI16616
aI17784
aI17873
aI17911
aI18564
aI18812
aI18864
aI18984
aI18988
aI19430
asg1
(g5
S'\x00\x00\x00\x0c'
p56
tp57
Rp58
(lp59
I1709
aI2169
aI2308
aI2665
aI2731
aI3569
aI4220
aI4389
aI4475
aI6176
aI6591
aI6948
aI7250
aI7684
aI8796
aI10670
aI13501
aI13936
aI14133
aI16434
aI17139
aI18007
aI19146
aI20352
asg1
(g5
S'\x00\x00\x00\r'
p60
tp61
Rp62
(lp63
I580
aI1528
aI3846
aI5185
aI5515
aI5968
aI6013
aI6501
aI7336
aI8347
aI9330
aI9997
aI10961
aI11970
aI13086
aI14674
aI16038
aI16124
aI16330
aI18024
aI18925
aI20380
asg1
(g5
S'\x00\x00\x00\x0e'
p64
tp65
Rp66
(lp67
I7309
aI9249
aI9598
aI10853
aI12625
aI13521
aI13897
aI14098
aI15557
aI20059
asg1
(g5
S'\x00\x00\x00\x0f'
p68
tp69
Rp70
(lp71
I1494
aI2403
aI4058
aI5123
aI5459
aI5582
aI5651
aI6480
aI6767
aI7274
aI7297
aI8186
aI8445
aI8590
aI8855
aI9329
aI9514
aI9729
aI10101
aI12002
aI12107
aI12204
aI12472
aI12730
aI12994
aI13074
aI13267
aI13284
aI13879
aI14126
aI14514
aI14628
aI15251
aI15414
aI15739
aI15919
aI15972
aI16078
aI16966
aI16993
aI17012
aI17707
aI18591
aI19548
aI20382
aI20922
asg1
(g5
S'\x00\x00\x00\x10'
p72
tp73
Rp74
(lp75
I189
aI418
aI611
aI847
aI1093
aI1741
aI1853
aI2216
aI3844
aI3994
aI4151
aI4360
aI4420
aI4818
aI4847
aI4995
aI5698
aI5817
aI5839
aI5869
aI7107
aI7137
aI7226
aI7255
aI7798
aI8177
aI8501
aI8532
aI8719
aI9029
aI9071
aI9131
aI9293
aI9350
aI10386
aI10681
aI10941
aI11001
aI11096
aI11117
aI11309
aI11480
aI11860
aI12203
aI12355
aI13444
aI13878
aI14026
aI17106
aI17460
aI18937
aI19550
aI19599
aI19653
aI19842
aI20370
aI20552
aI20604
aI20655
aI20772
aI21054
asg1
(g5
S'\x00\x00\x00\x11'
p76
tp77
Rp78
(lp79
I2848
aI3291
aI4928
aI6311
aI6730
aI7527
aI7559
aI9939
aI10282
aI14356
aI14569
aI15508
aI16024
aI16679
aI19579
aI19719
asg1
(g5
S'\x00\x00\x00\x12'
p80
tp81
Rp82
(lp83
I101
aI252
aI960
aI1019
aI1492
aI1727
aI1970
aI2209
aI2355
aI2382
aI2795
aI3146
aI4674
aI5246
aI5503
aI5688
aI6181
aI6469
aI7077
aI7327
aI7373
aI8800
aI8894
aI9210
aI9435
aI10193
aI10501
aI11143
aI11266
aI11540
aI11564
aI12747
aI12782
aI13222
aI13792
aI13827
aI14211
aI14276
aI14386
aI14505
aI14727
aI15223
aI15463
aI16108
aI16827
aI16828
aI17416
aI18176
aI18473
aI18554
aI18582
aI19119
aI19642
aI20399
aI20790
aI20809
asg1
(g5
S'\x00\x00\x00\x13'
p84
tp85
Rp86
(lp87
I326
aI712
aI2007
aI3540
aI4329
aI4582
aI4768
aI9855
aI12023
aI12068
aI12842
aI13143
aI14315
aI15918
aI16604
aI17079
aI17111
aI18532
aI19094
aI19124
aI19314
asg1
(g5
S'\x00\x00\x00\x14'
p88
tp89
Rp90
(lp91
I741
aI1223
aI1929
aI2375
aI2443
aI2733
aI2777
aI3139
aI3941
aI4853
aI5361
aI5465
aI5492
aI5570
aI6319
aI6337
aI6665
aI6745
aI7127
aI8075
aI9128
aI9150
aI9479
aI9645
aI9669
aI9787
aI10414
aI10420
aI10465
aI10563
aI11332
aI11333
aI11417
aI12146
aI12409
aI12823
aI13159
aI14878
aI15928
aI15968
aI16592
aI16661
aI16783
aI17744
aI18091
aI18152
aI19027
aI19174
aI19876
aI19941
aI20835
asg1
(g5
S'\x00\x00\x00\x15'
p92
tp93
Rp94
(lp95
I1856
aI4787
aI5013
aI8821
aI9914
aI11589
aI12235
aI12885
aI13718
aI14158
aI16196
aI18097
aI18750
asg1
(g5
S'\x00\x00\x00\x16'
p96
tp97
Rp98
(lp99
I147
aI264
aI601
aI823
aI959
aI1311
aI1567
aI1809
aI1839
aI2125
aI2408
aI2445
aI2635
aI3272
aI3472
aI3756
aI5195
aI6239
aI6740
aI7294
aI7874
aI8239
aI8448
aI9648
aI10115
aI10296
aI10599
aI10635
aI10830
aI11218
aI11719
aI12029
aI12264
aI12560
aI12736
aI13237
aI13270
aI13300
aI13722
aI15045
aI15070
aI15238
aI15423
aI15890
aI16104
aI16304
aI16763
aI16895
aI18432
aI18981
aI19126
aI19199
aI19791
aI20037
aI20585
aI20792
asg1
(g5
S'\x00\x00\x00\x17'
p100
tp101
Rp102
(lp103
I71
aI1392
aI1464
aI3018
aI3062
aI3564
aI3677
aI3813
aI3819
aI4236
aI5089
aI5158
aI5322
aI5860
aI5946
aI6306
aI6432
aI6479
aI6786
aI8045
aI8562
aI8773
aI9123
aI9685
aI11138
aI11301
aI11880
aI12181
aI12376
aI12502
aI12634
aI12873
aI13594
aI15234
aI15387
aI15478
aI15793
aI16858
aI17128
aI17627
aI17904
aI18227
aI18566
aI18634
aI18788
aI19292
aI19820
aI19882
aI20056
asg1
(g5
S'\x00\x00\x00\x18'
p104
tp105
Rp106
(lp107
I26
aI42
aI165
aI631
aI697
aI1046
aI1156
aI1584
aI1658
aI2041
aI2705
aI2749
aI2758
aI2800
aI3054
aI3874
aI3912
aI4044
aI4527
aI4555
aI4637
aI5472
aI6051
aI6321
aI6374
aI7515
aI8986
aI9211
aI9459
aI9557
aI9652
aI10150
aI10980
aI11439
aI11460
aI11707
aI11813
aI11882
aI12360
aI12838
aI13274
aI14019
aI14054
aI14282
aI14287
aI14495
aI14821
aI15144
aI15290
aI16097
aI16588
aI16602
aI17266
aI17517
aI18633
aI18709
aI19539
aI19775
aI20540
asg1
(g5
S'\x00\x00\x00\x19'
p108
tp109
Rp110
(lp111
I12284
aI13363
aI18762
aI19483
asg1
(g5
S'\x00\x00\x00\x1a'
p112
tp113
Rp114
(lp115
I513
aI924
aI936
aI1226
aI2560
aI2807
aI4046
aI4258
aI4860
aI5595
aI6266
aI6607
aI7386
aI8084
aI8137
aI8253
aI8288
aI8839
aI8900
aI9864
aI10411
aI11292
aI12186
aI13373
aI13427
aI13783
aI15409
aI15553
aI15556
aI16861
aI17032
aI17383
aI17492
aI18690
aI20710
aI20799
asg1
(g5
S'\x00\x00\x00\x1b'
p116
tp117
Rp118
(lp119
I626
aI1931
aI2513
aI5420
aI5724
aI7598
aI7603
aI7606
aI8146
aI8467
aI9332
aI10455
aI12421
aI12586
aI13749
aI13926
aI14457
aI14662
aI15180
aI15911
aI16540
aI17004
aI18760
aI19801
aI20762
aI20786
aI20903
asg1
(g5
S'\x00\x00\x00\x1c'
p120
tp121
Rp122
(lp123
I9596
aI14261
asg1
(g5
S'\x00\x00\x00\x1d'
p124
tp125
Rp126
(lp127
I120
aI4089
aI8615
aI13947
asg1
(g5
S'\x00\x00\x00\x1e'
p128
tp129
Rp130
(lp131
I1178
aI1370
aI1452
aI2218
aI2930
aI3722
aI4075
aI4247
aI4499
aI4955
aI5780
aI6701
aI7585
aI8099
aI8220
aI8373
aI8905
aI9108
aI9166
aI9246
aI10191
aI10289
aI10504
aI10695
aI12619
aI13035
aI13653
aI13932
aI14342
aI15671
aI16382
aI16555
aI17294
aI18193
aI19034
aI19043
aI19387
asg1
(g5
S'\x00\x00\x00\x1f'
p132
tp133
Rp134
(lp135
I251
aI2783
aI3229
aI3565
aI4893
aI5006
aI6150
aI6347
aI6756
aI7062
aI7669
aI7926
aI8609
aI9610
aI9967
aI10765
aI12325
aI13077
aI13612
aI15646
aI16070
aI16734
aI18806
aI18829
asg1
(g5
S'\x00\x00\x00 '
p136
tp137
Rp138
(lp139
I106
aI266
aI1387
aI2067
aI2573
aI2654
aI2756
aI2901
aI3142
aI3367
aI5727
aI6589
aI6643
aI6661
aI7056
aI11116
aI11149
aI11650
aI12345
aI12442
aI12810
aI14218
aI14931
aI15062
aI15509
aI15796
aI15948
aI16484
aI17174
aI17307
aI18037
aI18178
aI18210
aI18877
aI19089
aI19802
aI19951
aI20022
aI20158
aI20964
aI21076
asg1
(g5
S'\x00\x00\x00!'
p140
tp141
Rp142
(lp143
I105
aI676
aI987
aI1037
aI1423
aI3384
aI3449
aI3738
aI4448
aI4500
aI4691
aI5887
aI6531
aI8293
aI8579
aI9496
aI10560
aI11672
aI13058
aI13179
aI13650
aI14828
aI15410
aI16250
aI16553
aI17346
aI17468
aI19577
aI19936
aI20060
aI21040
asg1
(g5
S'\x00\x00\x00"'
p144
tp145
Rp146
(lp147
I140
aI288
aI399
aI602
aI2068
aI2885
aI3758
aI3892
aI5074
aI5560
aI5573
aI6863
aI7488
aI7737
aI7965
aI7969
aI8418
aI9896
aI10155
aI10995
aI11078
aI11403
aI11468
aI11639
aI11963
aI12995
aI13075
aI13108
aI13218
aI13337
aI13765
aI14139
aI14251
aI15728
aI16628
aI16807
aI16947
aI17066
aI18222
aI18562
aI18664
aI19104
aI19233
aI19502
aI20040
aI20086
aI20909
asg1
(g5
S'\x00\x00\x00#'
p148
tp149
Rp150
(lp151
I493
aI607
aI1141
aI3127
aI3213
aI4890
aI5228
aI5746
aI5905
aI6302
aI6401
aI6567
aI7045
aI10027
aI11047
aI11084
aI11950
aI12358
aI12484
aI12726
aI13656
aI13730
aI14172
aI14374
aI14959
aI15477
aI15932
aI16007
aI16275
aI16719
aI17151
aI17279
aI17427
aI17908
aI17947
aI18254
aI18854
aI19023
aI19512
aI19513
aI19518
aI20451
aI20581
aI20584
aI20628
aI20963
asg1
(g5
S'\x00\x00\x00$'
p152
tp153
Rp154
(lp155
I618
aI1056
aI1189
aI1222
aI1913
aI2609
aI2851
aI3954
aI4424
aI4510
aI4583
aI5078
aI5198
aI5518
aI6487
aI7261
aI7699
aI8980
aI9228
aI9543
aI9681
aI9734
aI9765
aI9905
aI11849
aI12121
aI12668
aI13200
aI13794
aI14217
aI15794
aI15994
aI16529
aI16740
aI17204
aI17633
aI17995
aI18628
aI18936
aI19140
aI19232
aI19345
aI19472
aI19862
aI19956
aI20327
aI21045
asg1
(g5
S'\x00\x00\x00%'
p156
tp157
Rp158
(lp159
I1373
aI1940
aI4130
aI6522
aI6640
aI7160
aI7799
aI7895
aI9147
aI9620
aI10056
aI10453
aI12528
aI14313
aI18096
aI19441
aI20271
asg1
(g5
S'\x00\x00\x00&'
p160
tp161
Rp162
(lp163
I1094
aI1308
aI1312
aI2853
aI3260
aI3493
aI5344
aI6902
aI9876
aI9990
aI10898
aI11347
aI12462
aI13966
aI14116
aI14581
aI15351
aI16481
aI17101
aI17376
aI18330
aI19287
aI19332
aI19608
aI20680
asg1
(g5
S"\x00\x00\x00'"
p164
tp165
Rp166
(lp167
I3682
aI4766
aI5525
aI6397
aI7044
aI7284
aI10770
aI11921
aI13115
aI13358
aI15368
aI18392
aI19211
aI20160
asg1
(g5
S'\x00\x00\x00('
p168
tp169
Rp170
(lp171
I4762
aI16425
asg1
(g5
S'\x00\x00\x00)'
p172
tp173
Rp174
(lp175
I211
aI271
aI1702
aI2093
aI2144
aI2172
aI2608
aI3313
aI3594
aI3678
aI3787
aI3988
aI4558
aI5177
aI5994
aI6208
aI6937
aI7216
aI7567
aI8519
aI8665
aI8725
aI8966
aI10250
aI10724
aI11074
aI11159
aI11206
aI11375
aI11799
aI13297
aI13367
aI13524
aI15109
aI15474
aI15539
aI15658
aI15886
aI16325
aI16350
aI16958
aI17606
aI18329
aI18335
aI18427
aI18452
aI18479
aI18539
aI20183
aI20364
aI20570
aI20750
asg1
(g5
S'\x00\x00\x00*'
p176
tp177
Rp178
(lp179
I495
aI1152
aI1432
aI1928
aI1954
aI3901
aI4094
aI4899
aI4952
aI4956
aI5268
aI5473
aI5992
aI6713
aI7510
aI8062
aI10408
aI10683
aI11872
aI14191
aI14326
aI14492
aI15302
aI15905
aI16439
aI18465
aI19067
aI19220
aI20868
asg1
(g5
S'\x00\x00\x00+'
p180
tp181
Rp182
(lp183
I280
aI663
aI1301
aI1401
aI1724
aI2364
aI3006
aI3505
aI4434
aI5735
aI6452
aI9281
aI9443
aI10070
aI10790
aI10942
aI11203
aI12001
aI12987
aI13098
aI13171
aI13286
aI13570
aI13938
aI14262
aI14428
aI14590
aI14761
aI15369
aI15473
aI16869
aI17446
aI18168
aI19591
aI19764
aI19915
aI20055
aI20737
aI21058
asg1
(g5
S'\x00\x00\x00-'
p184
tp185
Rp186
(lp187
I33
aI508
aI740
aI990
aI2193
aI2410
aI3056
aI3244
aI3418
aI4767
aI6169
aI7886
aI8621
aI8744
aI9227
aI12441
aI13037
aI14835
aI16388
aI16433
aI16493
aI18214
aI20816
aI20848
asg1
(g5
S'\x00\x00\x00.'
p188
tp189
Rp190
(lp191
I463
aI555
aI926
aI1352
aI1367
aI2226
aI2864
aI3468
aI3548
aI3924
aI4068
aI4310
aI4774
aI5162
aI5736
aI6022
aI6132
aI6862
aI7210
aI7882
aI8351
aI10623
aI11484
aI11645
aI12664
aI13214
aI15275
aI15663
aI16068
aI17096
aI18643
aI18851
aI20433
aI20781
asg1
(g5
S'\x00\x00\x00/'
p192
tp193
Rp194
(lp195
I1536
aI2295
aI2391
aI2392
aI2666
aI3391
aI3508
aI4480
aI6606
aI7105
aI7811
aI12042
aI12557
aI14023
aI15344
aI15765
aI16329
aI17303
aI17443
aI17628
aI18406
aI18855
aI19066
aI19226
aI19961
aI20015
aI20333
aI20365
aI20416
aI20462
aI20991
asg1
(g5
S'\x00\x00\x000'
p196
tp197
Rp198
(lp199
I90
aI338
aI717
aI948
aI1133
aI1228
aI1930
aI2119
aI2306
aI2884
aI3675
aI4120
aI4540
aI5050
aI6818
aI6912
aI7243
aI7863
aI8954
aI9090
aI9229
aI9523
aI9631
aI10615
aI10854
aI10952
aI11595
aI11682
aI11695
aI11826
aI11885
aI12511
aI12593
aI12658
aI12892
aI12917
aI13349
aI13422
aI13705
aI13933
aI14228
aI14504
aI16077
aI16111
aI16898
aI17870
aI18700
aI19503
aI19827
aI20185
aI20353
aI20478
aI20911
asg1
(g5
S'\x00\x00\x001'
p200
tp201
Rp202
(lp203
I309
aI341
aI567
aI2236
aI2880
aI3289
aI4166
aI4308
aI4486
aI4797
aI4901
aI5694
aI5938
aI6274
aI6556
aI6809
aI7115
aI7318
aI7414
aI8416
aI9042
aI10015
aI10432
aI11524
aI12524
aI12550
aI13257
aI13951
aI14606
aI14883
aI15193
aI15462
aI15610
aI16000
aI16903
aI16915
aI17093
aI17225
aI18815
aI19195
aI19750
aI20498
aI20797
aI21096
asg1
(g5
S'\x00\x00\x002'
p204
tp205
Rp206
(lp207
I79
aI419
aI538
aI940
aI1220
aI1623
aI2110
aI3567
aI3920
aI4176
aI4503
aI4696
aI4999
aI5059
aI5546
aI5918
aI6228
aI6553
aI6728
aI7074
aI7334
aI7894
aI8316
aI8429
aI8587
aI8817
aI9219
aI9257
aI9415
aI9556
aI10203
aI10366
aI10516
aI10901
aI11100
aI11761
aI12014
aI12683
aI13497
aI13664
aI13754
aI13828
aI14001
aI14100
aI14109
aI14236
aI14458
aI14553
aI14579
aI14625
aI15282
aI15536
aI15840
aI16227
aI16376
aI16714
aI16826
aI17109
aI17684
aI17980
aI18028
aI18155
aI18353
aI18434
aI18483
aI18775
aI19489
aI19828
aI19947
aI20011
aI20311
aI20727
aI20811
asg1
(g5
S'\x00\x00\x003'
p208
tp209
Rp210
(lp211
I276
aI435
aI1823
aI2042
aI3911
aI4502
aI4749
aI4896
aI5504
aI5893
aI6614
aI6881
aI8109
aI8198
aI8757
aI9248
aI9783
aI11373
aI12297
aI12509
aI12749
aI14005
aI14306
aI14832
aI14936
aI16401
aI17320
aI19101
aI19177
aI19316
aI19946
aI20276
aI20877
asg1
(g5
S'\x00\x00\x004'
p212
tp213
Rp214
(lp215
I97
aI102
aI1136
aI1285
aI1359
aI1450
aI1456
aI1751
aI1785
aI1874
aI2018
aI2652
aI2675
aI2890
aI2951
aI3446
aI4042
aI4085
aI4462
aI4632
aI4865
aI5241
aI5313
aI5323
aI5755
aI5915
aI5950
aI6105
aI6763
aI7204
aI7228
aI7477
aI8033
aI8352
aI11219
aI12259
aI12288
aI12428
aI12990
aI13007
aI13324
aI14016
aI14025
aI14177
aI14564
aI15769
aI16152
aI16585
aI16647
aI16793
aI17059
aI17153
aI17223
aI17596
aI18038
aI18661
aI18844
aI20028
aI20141
aI20463
aI20541
aI21025
asg1
(g5
S'\x00\x00\x005'
p216
tp217
Rp218
(lp219
I75
aI630
aI1826
aI2477
aI3273
aI3989
aI4104
aI4124
aI4688
aI4921
aI5376
aI6144
aI6211
aI6799
aI7551
aI8276
aI8344
aI8442
aI9085
aI9694
aI9935
aI10625
aI11556
aI12173
aI12964
aI13798
aI15011
aI15298
aI17520
aI17711
aI17858
aI18174
aI18601
aI18918
aI19252
aI19730
aI20103
asg1
(g5
S'\x00\x00\x006'
p220
tp221
Rp222
(lp223
I658
aI2644
asg1
(g5
S'\x00\x00\x008'
p224
tp225
Rp226
(lp227
I553
aI2363
aI2679
aI5530
aI6488
aI7300
aI7879
aI9713
aI10398
aI11261
aI12065
aI12594
aI12790
aI12927
aI13659
aI14796
aI15000
aI15779
aI16615
aI16697
aI17144
aI17182
aI18252
aI18295
aI19549
aI20536
asg1
(g5
S'\x00\x00\x009'
p228
tp229
Rp230
(lp231
I466
aI2602
aI3314
aI4736
aI6849
aI7030
aI7906
aI7994
aI9389
aI9746
aI10478
aI10824
aI10905
aI12252
aI12476
aI12600
aI12618
aI13245
aI13304
aI13408
aI13688
aI14823
aI15067
aI15606
aI15755
aI16177
aI16426
aI16475
aI16654
aI16879
aI17043
aI17522
aI17551
aI18456
aI19323
aI19692
aI19879
aI20113
aI20231
aI21006
asg1
(g5
S'\x00\x00\x00:'
p232
tp233
Rp234
(lp235
I67
aI73
aI137
aI915
aI1173
aI1660
aI1865
aI2409
aI2701
aI3027
aI3376
aI3550
aI4229
aI4850
aI5417
aI6001
aI6609
aI6883
aI6897
aI7002
aI8546
aI8798
aI9273
aI9743
aI9756
aI10239
aI10546
aI10600
aI10744
aI10756
aI10836
aI10989
aI11095
aI11330
aI11456
aI12931
aI13533
aI13857
aI14012
aI14589
aI15630
aI15815
aI16699
aI16752
aI17453
aI17967
aI17988
aI18586
aI18647
aI18879
aI19113
aI19231
aI19604
aI19666
aI19702
aI19892
aI20069
aI20469
aI20752
asg1
(g5
S'\x00\x00\x00;'
p236
tp237
Rp238
(lp239
I3097
aI4364
aI9776
aI12395
aI12880
aI13302
aI13954
aI14981
aI15390
aI16782
aI17005
aI17549
asg1
(g5
S'\x00\x00\x00<'
p240
tp241
Rp242
(lp243
I933
aI1082
aI3825
aI5861
aI7008
aI8862
aI9190
aI12407
asg1
(g5
S'\x00\x00\x00='
p244
tp245
Rp246
(lp247
I661
aI975
aI984
aI1140
aI1671
aI2090
aI2788
aI2817
aI3143
aI3204
aI3277
aI4343
aI4946
aI5011
aI5765
aI6405
aI6677
aI7166
aI7876
aI7915
aI8732
aI9009
aI9038
aI9511
aI9925
aI10708
aI11241
aI11278
aI11516
aI11643
aI11898
aI11972
aI12461
aI12542
aI13188
aI13344
aI13573
aI14095
aI14258
aI15038
aI15084
aI15106
aI15408
aI15743
aI15776
aI16136
aI16170
aI17965
aI18587
aI18602
aI19102
aI19161
aI20663
aI20670
aI21070
asg1
(g5
S'\x00\x00\x00>'
p248
tp249
Rp250
(lp251
I85
aI432
aI503
aI623
aI1413
aI1516
aI1859
aI2059
aI2871
aI2988
aI3150
aI3669
aI3778
aI4199
aI4259
aI4381
aI4822
aI4830
aI4844
aI5033
aI5093
aI5259
aI5936
aI6496
aI6670
aI6815
aI6886
aI7736
aI7973
aI8312
aI8775
aI9124
aI9433
aI9510
aI9803
aI9848
aI10140
aI10451
aI11297
aI11299
aI12265
aI12278
aI12545
aI13027
aI14180
aI14446
aI15236
aI15326
aI16297
aI16640
aI16950
aI16964
aI17026
aI17331
aI17470
aI17485
aI18182
aI18565
aI19053
aI19253
aI19621
aI20508
aI20947
asg1
(g5
S'\x00\x00\x00?'
p252
tp253
Rp254
(lp255
I729
aI945
aI1830
aI1972
aI2529
aI3357
aI3641
aI3830
aI4118
aI4668
aI4904
aI5167
aI5286
aI5649
aI6288
aI6668
aI6991
aI7683
aI7914
aI8654
aI8740
aI9767
aI11365
aI12794
aI13233
aI13294
aI13903
aI14274
aI15505
aI15580
aI15686
aI15775
aI16060
aI16119
aI17302
aI17513
aI17691
aI18209
aI18339
aI18688
aI19975
aI20018
aI20030
aI20748
asg1
(g5
S'\x00\x00\x00@'
p256
tp257
Rp258
(lp259
I671
aI2062
aI3125
aI3949
aI6597
aI6631
aI6869
aI7185
aI7239
aI10104
aI10785
aI11190
aI11374
aI11387
aI14015
aI15432
aI15785
aI16979
aI20693
aI20921
asg1
(g5
S'\x00\x00\x00A'
p260
tp261
Rp262
(lp263
I1064
aI1523
aI1656
aI1934
aI2103
aI2293
aI4377
aI4932
aI5047
aI6837
aI7088
aI7158
aI7159
aI7476
aI7706
aI9951
aI10908
aI11379
aI12515
aI13535
aI13636
aI14842
aI15094
aI15439
aI15628
aI16896
aI17305
aI18673
aI18699
aI19652
aI19824
aI19870
aI20971
asg1
(g5
S'\x00\x00\x00B'
p264
tp265
Rp266
(lp267
I157
aI235
aI638
aI1471
aI1714
aI1795
aI1854
aI4005
aI4076
aI4263
aI4551
aI4617
aI5969
aI6450
aI6583
aI7075
aI7576
aI7780
aI8184
aI8428
aI9875
aI10189
aI10205
aI10580
aI12025
aI12784
aI13898
aI14563
aI15169
aI15242
aI17055
aI18189
aI18938
aI18982
aI19684
aI21022
aI21086
asg1
(g5
S'\x00\x00\x00C'
p268
tp269
Rp270
(lp271
I428
aI1620
aI1803
aI2065
aI2130
aI3085
aI3583
aI4724
aI5396
aI6044
aI6083
aI6802
aI6866
aI9966
aI11691
aI12064
aI14582
aI14779
aI15688
aI16211
aI16626
aI16901
aI17523
aI18708
aI19667
asg1
(g5
S'\x00\x00\x00D'
p272
tp273
Rp274
(lp275
I785
aI1123
aI1916
aI2173
aI2808
aI3299
aI3312
aI5327
aI5972
aI6031
aI6933
aI7102
aI7258
aI7378
aI7663
aI7667
aI7741
aI7854
aI8470
aI9745
aI10016
aI10210
aI10299
aI10858
aI11287
aI11631
aI11750
aI12445
aI13018
aI13383
aI13405
aI13453
aI13537
aI13604
aI14190
aI14210
aI14264
aI14385
aI14972
aI15300
aI15885
aI15958
aI16854
aI18561
aI19039
aI19359
aI20053
aI20810
asg1
(g5
S'\x00\x00\x00E'
p276
tp277
Rp278
(lp279
I699
aI1162
aI1707
aI2998
aI4398
aI4902
aI5120
aI5148
aI6034
aI6434
aI6657
aI6832
aI7026
aI7041
aI7198
aI7692
aI7990
aI8134
aI8500
aI8574
aI8611
aI11321
aI11635
aI12113
aI12193
aI13364
aI13797
aI13806
aI14065
aI14449
aI15164
aI16191
aI16762
aI16987
aI17011
aI17185
aI18343
aI18882
aI20256
aI20574
aI20830
aI20944
aI20994
asg1
(g5
S'\x00\x00\x00F'
p280
tp281
Rp282
(lp283
I1043
aI1148
aI1819
aI4084
aI11658
aI14642
aI14838
aI16963
aI20646
asg1
(g5
S'\x00\x00\x00G'
p284
tp285
Rp286
(lp287
I93
aI332
aI1092
aI1472
aI1705
aI1893
aI1953
aI2411
aI3181
aI4734
aI5027
aI5306
aI5523
aI5793
aI5997
aI6642
aI6650
aI8747
aI8789
aI8889
aI9028
aI9474
aI9601
aI9754
aI10493
aI10666
aI10822
aI11130
aI11171
aI11660
aI12078
aI12165
aI12549
aI12940
aI13374
aI14250
aI14616
aI14945
aI15263
aI15573
aI16336
aI16686
aI16863
aI18202
aI18381
aI18429
aI19800
asg1
(g5
S'\x00\x00\x00H'
p288
tp289
Rp290
(lp291
I831
aI1105
aI2115
aI3162
aI4417
aI5280
aI6194
aI7217
aI9048
aI9233
aI9313
aI9690
aI10078
aI13194
aI13658
aI13776
aI13883
aI14455
aI14825
aI16125
aI16656
aI17226
aI17308
aI17451
aI18129
aI18276
aI18328
aI18365
aI19798
aI19925
asg1
(g5
S'\x00\x00\x00I'
p292
tp293
Rp294
(lp295
I3499
aI7518
aI8266
aI9847
aI20228
asg1
(g5
S'\x00\x00\x00J'
p296
tp297
Rp298
(lp299
I1577
aI5128
aI7407
aI8515
aI16946
aI20229
asg1
(g5
S'\x00\x00\x00K'
p300
tp301
Rp302
(lp303
I127
aI2116
aI2281
aI3001
aI6690
aI9164
aI9799
aI11391
aI12102
aI13308
aI13942
aI14302
aI14617
aI15693
aI16746
aI16980
aI20213
aI20661
asg1
(g5
S'\x00\x00\x00L'
p304
tp305
Rp306
(lp307
I77
aI746
aI843
aI1099
aI2354
aI2541
aI2971
aI3095
aI3650
aI5660
aI5739
aI6129
aI6459
aI6549
aI6714
aI6820
aI7229
aI7247
aI7536
aI8174
aI8203
aI8454
aI8545
aI9666
aI9962
aI10604
aI12271
aI12387
aI12447
aI12645
aI13112
aI13494
aI13763
aI13971
aI14279
aI14663
aI15500
aI15724
aI16760
aI17473
aI17483
aI17498
aI17725
aI17826
aI18047
aI18281
aI18738
aI18816
aI19209
aI19463
aI19747
aI19964
aI20149
asg1
(g5
S'\x00\x00\x00M'
p308
tp309
Rp310
(lp311
I83
aI209
aI3022
aI3923
aI5039
aI5115
aI9170
aI12829
aI13992
aI14156
aI18679
asg1
(g5
S'\x00\x00\x00N'
p312
tp313
Rp314
(lp315
I888
aI1547
aI2616
aI6618
aI8857
aI13254
aI14459
aI14622
aI17455
aI17864
aI18137
aI20267
asg1
(g5
S'\x00\x00\x00O'
p316
tp317
Rp318
(lp319
I749
aI11197
aI11839
aI18325
aI19246
aI20168
aI20713
aI21018
asg1
(g5
S'\x00\x00\x00P'
p320
tp321
Rp322
(lp323
I43
aI527
aI1017
aI2072
aI2104
aI3037
aI3616
aI4159
aI4449
aI4707
aI5365
aI6081
aI6342
aI7171
aI7765
aI7859
aI8008
aI8069
aI8163
aI8179
aI8187
aI8336
aI8802
aI9447
aI9547
aI9873
aI9889
aI11288
aI11646
aI11686
aI12463
aI12523
aI13714
aI14874
aI15184
aI15433
aI16256
aI17621
aI17663
aI17925
aI18660
aI20046
aI20589
aI20622
aI20656
aI20755
aI20804
aI20829
asg1
(g5
S'\x00\x00\x00Q'
p324
tp325
Rp326
(lp327
I1060
aI1483
aI2799
aI5435
aI5467
aI8085
aI9566
aI10325
aI10409
aI11878
aI12578
aI14060
aI15336
aI17423
aI17695
aI19111
aI20545
asg1
(g5
S'\x00\x00\x00R'
p328
tp329
Rp330
(lp331
I218
aI5272
aI6370
aI9649
aI10472
aI10900
aI11165
aI11794
aI11944
aI13675
aI15927
aI16399
aI17167
aI19466
asg1
(g5
S'\x00\x00\x00S'
p332
tp333
Rp334
(lp335
I19
aI1021
aI1969
aI2311
aI2631
aI2823
aI3145
aI3973
aI4214
aI4523
aI5719
aI6077
aI6975
aI8111
aI9157
aI9714
aI10195
aI11091
aI11755
aI11900
aI12149
aI12519
aI13355
aI13568
aI13643
aI14197
aI14679
aI14715
aI14953
aI15618
aI15825
aI16099
aI16530
aI16605
aI16721
aI16829
aI17028
aI17208
aI17402
aI17999
aI18121
aI19923
aI20036
aI20648
asg1
(g5
S'\x00\x00\x00T'
p336
tp337
Rp338
(lp339
I57
aI99
aI1360
aI2627
aI3015
aI3039
aI3742
aI3766
aI3808
aI4050
aI5256
aI5478
aI5487
aI5491
aI5556
aI6163
aI6256
aI7027
aI7187
aI7192
aI7220
aI7349
aI7583
aI7982
aI8301
aI8640
aI9176
aI10662
aI11180
aI11284
aI11561
aI13012
aI13403
aI13626
aI13871
aI15346
aI15361
aI15521
aI16141
aI16168
aI16293
aI16470
aI17489
aI17535
aI19854
aI20728
aI20729
aI20831
asg1
(g5
S'\x00\x00\x00U'
p340
tp341
Rp342
(lp343
I204
aI520
aI1153
aI1638
aI1739
aI1877
aI3089
aI3249
aI3863
aI4460
aI4618
aI5054
aI5091
aI5873
aI6095
aI6136
aI6317
aI6324
aI7175
aI7896
aI8139
aI8534
aI8886
aI8991
aI9570
aI10109
aI10473
aI11007
aI11507
aI11587
aI11815
aI12529
aI13004
aI13014
aI13292
aI13598
aI13862
aI14350
aI14422
aI14559
aI14660
aI14756
aI14797
aI15127
aI15211
aI15880
aI16120
aI18236
aI18799
aI18924
aI19262
aI19355
aI19628
aI19846
aI20357
asg1
(g5
S'\x00\x00\x00V'
p344
tp345
Rp346
(lp347
I739
aI1363
aI1939
aI2301
aI3050
aI4320
aI7086
aI7470
aI7522
aI7925
aI9089
aI10875
aI11741
aI14051
aI14074
aI14245
aI14703
aI14847
aI15504
aI15626
aI17757
aI19298
asg1
(g5
S'\x00\x00\x00W'
p348
tp349
Rp350
(lp351
I6664
asg1
(g5
S'\x00\x00\x00X'
p352
tp353
Rp354
(lp355
I840
aI1984
aI3411
aI3818
aI3921
aI5690
aI5704
aI6060
aI6283
aI6390
aI6931
aI7552
aI7786
aI8339
aI8405
aI8673
aI8984
aI9600
aI9697
aI11537
aI12999
aI13385
aI13826
aI15149
aI15399
aI15515
aI15653
aI15805
aI15848
aI16421
aI16665
aI16700
aI17856
aI17862
aI18009
aI18215
aI19555
aI20230
aI21043
asg1
(g5
S'\x00\x00\x00Z'
p356
tp357
Rp358
(lp359
I167
aI704
aI930
aI1541
aI1763
aI2489
aI4361
aI4586
aI4609
aI5443
aI5767
aI6278
aI6291
aI6511
aI6835
aI7564
aI8222
aI9217
aI9628
aI9651
aI10117
aI10468
aI10688
aI11327
aI11557
aI13219
aI13425
aI13563
aI13813
aI14118
aI14247
aI14966
aI15764
aI16129
aI16155
aI16389
aI16402
aI16939
aI17833
aI18173
aI18645
aI18903
aI18997
aI19176
aI19190
aI19578
aI20591
aI21020
asg1
(g5
S'\x00\x00\x00['
p360
tp361
Rp362
(lp363
I3628
aI4518
aI10947
aI12729
aI13649
aI19249
aI20715
aI20866
asg1
(g5
S'\x00\x00\x00\\'
p364
tp365
Rp366
(lp367
I1231
aI2894
aI3791
aI3929
aI4013
aI4191
aI4248
aI4676
aI4790
aI5231
aI5285
aI5857
aI5962
aI6823
aI7312
aI7401
aI10135
aI10370
aI10646
aI12168
aI12501
aI13977
aI14141
aI14685
aI15382
aI15453
aI16306
aI16696
aI16779
aI17959
aI18140
aI18200
aI18377
aI18837
aI18850
aI19848
aI20322
asg1
(g5
S'\x00\x00\x00]'
p368
tp369
Rp370
(lp371
I648
aI832
aI1391
aI1866
aI1890
aI2470
aI2943
aI3094
aI3123
aI3452
aI3555
aI3828
aI3967
aI4468
aI4620
aI4838
aI4909
aI4941
aI5675
aI5693
aI5699
aI6033
aI6285
aI6326
aI6746
aI6766
aI7060
aI7379
aI7427
aI9059
aI9944
aI10340
aI10545
aI10886
aI11222
aI11678
aI11966
aI12244
aI12815
aI13264
aI13773
aI13908
aI14155
aI15105
aI15129
aI15153
aI15437
aI16300
aI16704
aI17322
aI17906
aI17934
aI18128
aI18130
aI18440
aI18558
aI20088
aI20411
aI20910
aI20940
asg1
(g5
S'\x00\x00\x00^'
p372
tp373
Rp374
(lp375
I141
aI236
aI1571
aI1636
aI2253
aI2266
aI2981
aI3113
aI3154
aI3470
aI3709
aI4345
aI4710
aI4798
aI6177
aI7350
aI7453
aI8144
aI8310
aI8523
aI9740
aI9902
aI10072
aI10336
aI10944
aI10972
aI12446
aI13009
aI13416
aI14580
aI14639
aI15620
aI15816
aI16881
aI18001
aI18145
aI18764
aI18820
aI19057
aI19250
aI19392
aI19479
aI20032
aI20085
aI20317
asg1
(g5
S'\x00\x00\x00_'
p376
tp377
Rp378
(lp379
I269
aI373
aI771
aI900
aI1078
aI1255
aI1313
aI2522
aI2695
aI3077
aI3390
aI3438
aI3620
aI3966
aI4160
aI4162
aI4531
aI4604
aI4815
aI5116
aI6367
aI6924
aI7422
aI7512
aI7602
aI7641
aI8357
aI9338
aI11104
aI12072
aI12245
aI12723
aI13156
aI13812
aI14586
aI14868
aI14934
aI15080
aI15168
aI16186
aI17035
aI17336
aI17640
aI18998
aI19006
aI19596
aI19603
aI19813
aI20587
aI20869
aI20919
asg1
(g5
S'\x00\x00\x00`'
p380
tp381
Rp382
(lp383
I13
aI17
aI796
aI962
aI1143
aI1599
aI1924
aI1999
aI2310
aI2942
aI3405
aI3581
aI3687
aI3886
aI4505
aI4751
aI5707
aI7801
aI8028
aI8120
aI8192
aI8460
aI8874
aI9660
aI9807
aI10315
aI10656
aI11355
aI12449
aI12741
aI12918
aI12961
aI14347
aI14513
aI14775
aI16116
aI16971
aI17049
aI17745
aI17840
aI18794
aI19352
aI20388
aI20654
asg1
(g5
S'\x00\x00\x00a'
p384
tp385
Rp386
(lp387
I234
aI509
aI845
aI872
aI1025
aI1217
aI1276
aI2004
aI2051
aI2122
aI2298
aI2488
aI2686
aI3224
aI3882
aI3937
aI4025
aI4102
aI4336
aI4525
aI4575
aI5451
aI6219
aI6245
aI6248
aI6372
aI6502
aI7151
aI7473
aI7646
aI7648
aI8070
aI8071
aI8285
aI8291
aI8569
aI8643
aI8828
aI9612
aI9680
aI9686
aI10185
aI10188
aI10362
aI10511
aI11090
aI11397
aI11850
aI11930
aI12649
aI12705
aI12724
aI13212
aI13225
aI13503
aI13529
aI13586
aI14062
aI14414
aI14602
aI14619
aI15031
aI15066
aI15107
aI15196
aI15726
aI15851
aI16161
aI16648
aI17135
aI17201
aI17219
aI17667
aI18298
aI19056
aI19906
aI20064
aI20329
aI20860
aI21010
aI21078
aI21088
asg1
(g5
S'\x00\x00\x00b'
p388
tp389
Rp390
(lp391
I1689
aI2556
aI2952
aI3031
aI4296
aI4430
aI6125
aI8278
aI8604
aI8626
aI11910
aI14041
aI15666
aI15814
aI18233
aI18245
aI18609
aI18625
aI19658
asg1
(g5
S'\x00\x00\x00c'
p392
tp393
Rp394
(lp395
I586
aI1014
aI1257
aI2024
aI2221
aI2755
aI2888
aI4020
aI4309
aI4437
aI4823
aI5277
aI7826
aI8788
aI9829
aI10231
aI10554
aI10997
aI11216
aI11723
aI12083
aI13016
aI13026
aI13407
aI13518
aI13525
aI14584
aI15102
aI15697
aI16772
aI17274
aI17913
aI17937
aI18824
aI20774
asg1
(g5
S'\x00\x00\x00d'
p396
tp397
Rp398
(lp399
I452
aI1139
aI1701
aI2175
aI2210
aI2451
aI5457
aI5616
aI6608
aI8183
aI8280
aI9316
aI10032
aI10139
aI10268
aI10466
aI12320
aI13516
aI13559
aI14453
aI14588
aI14753
aI14881
aI16337
aI16908
aI17050
aI17211
aI18376
aI18525
aI19743
aI20145
aI20255
aI20379
aI20472
aI20788
aI20882
asg1
(g5
S'\x00\x00\x00e'
p400
tp401
Rp402
(lp403
I253
aI318
aI364
aI406
aI2152
aI3093
aI3187
aI3320
aI3786
aI4573
aI6062
aI6330
aI7142
aI7927
aI8582
aI8603
aI8822
aI10424
aI13146
aI13435
aI14337
aI14836
aI15372
aI16066
aI16262
aI17126
aI17257
aI18256
aI18419
aI19567
aI19884
aI20431
aI21041
asg1
(g5
S'\x00\x00\x00f'
p404
tp405
Rp406
(lp407
I28
aI233
aI710
aI865
aI1884
aI2023
aI2454
aI2870
aI2953
aI3107
aI3131
aI3316
aI3617
aI4010
aI4081
aI4497
aI4672
aI5271
aI7424
aI7617
aI7937
aI8891
aI8896
aI9437
aI9478
aI9519
aI9971
aI10083
aI10122
aI11462
aI11522
aI11865
aI12063
aI12069
aI12117
aI12473
aI12820
aI12896
aI13046
aI13362
aI13412
aI14714
aI14976
aI15034
aI15417
aI15456
aI17475
aI17533
aI17565
aI17644
aI18043
aI18117
aI18146
aI18535
aI18943
aI20049
aI20424
aI20658
aI21061
asg1
(g5
S'\x00\x00\x00g'
p408
tp409
Rp410
(lp411
I274
aI909
aI4009
aI4654
aI4962
aI5508
aI10172
aI12639
aI13244
aI14170
aI14556
aI17860
aI20531
asg1
(g5
S'\x00\x00\x00h'
p412
tp413
Rp414
(lp415
I497
aI719
aI760
aI837
aI1026
aI1119
aI1341
aI1563
aI1911
aI1946
aI2215
aI2698
aI3408
aI4587
aI4843
aI4870
aI4954
aI5661
aI5823
aI5948
aI7205
aI7259
aI7404
aI7458
aI7557
aI8343
aI8566
aI8929
aI9436
aI9602
aI9724
aI11080
aI11102
aI11968
aI12171
aI13460
aI13588
aI14605
aI14884
aI15418
aI15725
aI16361
aI16848
aI16930
aI17803
aI18635
aI18707
aI18951
aI19086
aI19620
aI19647
aI20833
asg1
(g5
S'\x00\x00\x00i'
p416
tp417
Rp418
(lp419
I1497
aI1933
aI4580
aI9583
aI17579
asg1
(g5
S'\x00\x00\x00j'
p420
tp421
Rp422
(lp423
I56
aI1345
aI1919
aI2159
aI2412
aI2663
aI2863
aI2984
aI4067
aI4091
aI4290
aI6059
aI6416
aI6872
aI6896
aI7064
aI7170
aI8696
aI9502
aI9742
aI10440
aI10861
aI11213
aI11864
aI12450
aI12786
aI12824
aI12977
aI13153
aI13182
aI13589
aI15139
aI15537
aI15863
aI16073
aI16870
aI17037
aI17830
aI18030
aI18706
aI18715
aI19016
aI19278
aI19390
aI20547
aI21016
asg1
(g5
S'\x00\x00\x00k'
p424
tp425
Rp426
(lp427
I335
aI1825
aI2396
aI3192
aI3811
aI4644
aI4856
aI4942
aI4985
aI5442
aI6303
aI6333
aI6497
aI6569
aI6619
aI7009
aI9168
aI9420
aI9664
aI9958
aI10194
aI11574
aI12337
aI12352
aI13017
aI13449
aI13511
aI13615
aI13865
aI13867
aI14255
aI14365
aI14473
aI15995
aI17057
aI17359
aI17850
aI18272
aI18941
aI19615
asg1
(g5
S'\x00\x00\x00l'
p428
tp429
Rp430
(lp431
I5044
aI7103
aI16174
aI19678
aI19965
asg1
(g5
S'\x00\x00\x00m'
p432
tp433
Rp434
(lp435
I321
aI788
aI1619
aI2199
aI2506
aI2567
aI4231
aI5401
aI5766
aI5914
aI6562
aI7357
aI8403
aI9191
aI10006
aI10230
aI10302
aI10535
aI11067
aI11961
aI12673
aI13235
aI13747
aI13800
aI16490
aI17964
aI18719
aI18742
aI18823
aI19351
aI19655
aI19751
aI20087
aI20151
aI20876
aI20914
aI20968
asg1
(g5
S'\x00\x00\x00n'
p436
tp437
Rp438
(lp439
I5400
aI10912
aI13198
aI14897
aI17652
aI18125
aI18399
asg1
(g5
S'\x00\x00\x00o'
p440
tp441
Rp442
(lp443
I3276
aI6065
aI7758
aI8648
aI10966
aI11300
aI11866
aI13030
aI13253
aI16953
aI18655
aI20163
asg1
(g5
S'\x00\x00\x00p'
p444
tp445
Rp446
(lp447
I1618
aI2614
aI2993
aI5318
aI5633
aI6458
aI6812
aI7839
aI8685
aI12744
aI13760
aI15442
aI16528
aI17374
aI19313
asg1
(g5
S'\x00\x00\x00q'
p448
tp449
Rp450
(lp451
I371
aI2037
aI2249
aI2700
aI3928
aI4195
aI6154
aI6415
aI6788
aI7609
aI8164
aI8166
aI8778
aI8870
aI8915
aI10303
aI10318
aI11394
aI11993
aI12456
aI12887
aI12963
aI13976
aI14429
aI14954
aI15177
aI15377
aI15667
aI16033
aI16769
aI16794
aI16995
aI17354
aI19268
aI19299
aI19398
aI19861
aI20312
aI20403
aI20888
asg1
(g5
S'\x00\x00\x00r'
p452
tp453
Rp454
(lp455
I1788
aI2005
aI2528
aI2759
aI3009
aI3199
aI4385
aI4507
aI4708
aI5372
aI5605
aI6026
aI6644
aI7945
aI9452
aI9597
aI9709
aI12354
aI12926
aI14898
aI15381
aI16478
aI17113
aI17721
aI17973
aI18929
aI18986
aI19377
aI20374
aI20705
aI20928
asg1
(g5
S'\x00\x00\x00s'
p456
tp457
Rp458
(lp459
I1669
aI2588
aI2661
aI3539
aI5844
aI5920
aI6067
aI6358
aI6842
aI7673
aI7818
aI7987
aI8005
aI8324
aI9121
aI9464
aI9572
aI9691
aI9897
aI10648
aI11057
aI11533
aI13197
aI13593
aI13918
aI14956
aI15246
aI15789
aI16494
aI17082
aI17215
aI17738
aI18285
aI18354
aI18992
aI19372
aI19561
aI20423
aI21082
asg1
(g5
S'\x00\x00\x00t'
p460
tp461
Rp462
(lp463
I828
aI1491
aI2413
aI6207
aI8544
aI8854
aI9096
aI11499
aI13210
aI19296
aI19752
asg1
(g5
S'\x00\x00\x00u'
p464
tp465
Rp466
(lp467
I7206
aI15908
asg1
(g5
S'\x00\x00\x00v'
p468
tp469
Rp470
(lp471
I151
aI1449
aI2339
aI2926
aI3427
aI3535
aI3588
aI4516
aI4639
aI4963
aI5741
aI5884
aI6843
aI7013
aI7672
aI7714
aI8217
aI9473
aI9930
aI10063
aI10680
aI11538
aI11563
aI12200
aI12341
aI13576
aI14316
aI15700
aI16543
aI16666
aI16741
aI16887
aI17158
aI17442
aI18181
aI19424
aI19996
aI20325
aI20474
aI21071
asg1
(g5
S'\x00\x00\x00w'
p472
tp473
Rp474
(lp475
I248
aI260
aI299
aI302
aI524
aI1011
aI1814
aI1915
aI2252
aI2289
aI2836
aI4230
aI5196
aI6127
aI6190
aI6336
aI6748
aI6814
aI6915
aI6977
aI7106
aI7755
aI7830
aI8868
aI9197
aI10288
aI10365
aI10549
aI11738
aI11895
aI12026
aI12086
aI12142
aI12491
aI12533
aI12870
aI13249
aI13620
aI14710
aI14885
aI14893
aI15550
aI15698
aI15782
aI15812
aI16210
aI16526
aI16949
aI17207
aI17708
aI17731
aI17902
aI19826
aI21064
asg1
(g5
S'\x00\x00\x00x'
p476
tp477
Rp478
(lp479
I4266
aI6943
aI10813
aI13989
aI15416
aI15599
aI19867
aI20678
asg1
(g5
S'\x00\x00\x00y'
p480
tp481
Rp482
(lp483
I132
aI848
aI1267
aI1463
aI1770
aI2204
aI2947
aI3321
aI3779
aI4595
aI4988
aI4996
aI5588
aI6025
aI7530
aI7775
aI7834
aI8016
aI8741
aI8869
aI10531
aI10632
aI11337
aI11861
aI12248
aI12869
aI13915
aI14168
aI15367
aI16366
aI16976
aI17024
aI17481
aI17769
aI17898
aI18379
aI18556
aI18756
aI19482
aI20031
asg1
(g5
S'\x00\x00\x00z'
p484
tp485
Rp486
(lp487
I35
aI62
aI213
aI1550
aI1983
aI2109
aI2325
aI2538
aI2590
aI2883
aI3309
aI3315
aI3319
aI4017
aI4072
aI4234
aI4776
aI5030
aI6117
aI6152
aI6238
aI6765
aI6858
aI8538
aI8825
aI9912
aI10235
aI10361
aI10629
aI11202
aI11238
aI11252
aI11412
aI12210
aI12344
aI12429
aI12854
aI13413
aI13546
aI13761
aI14220
aI15314
aI15457
aI17014
aI17136
aI17620
aI17821
aI19277
aI19338
aI19428
aI20164
asg1
(g5
S'\x00\x00\x00{'
p488
tp489
Rp490
(lp491
I347
aI469
aI863
aI1426
aI1529
aI1566
aI1609
aI1957
aI2704
aI2965
aI3368
aI3625
aI3981
aI4602
aI5320
aI5418
aI5522
aI6200
aI6223
aI6716
aI7310
aI7325
aI7339
aI7479
aI7946
aI8037
aI8322
aI8729
aI8922
aI9493
aI10350
aI10581
aI10787
aI10811
aI11611
aI11706
aI11795
aI12152
aI12306
aI12406
aI12497
aI13022
aI13207
aI13310
aI13320
aI13470
aI13751
aI13777
aI13911
aI14073
aI14221
aI14325
aI14538
aI14631
aI14848
aI14952
aI15513
aI15582
aI15802
aI15864
aI16360
aI16436
aI16733
aI16894
aI17091
aI17234
aI17452
aI17568
aI17773
aI17781
aI18048
aI18100
aI18208
aI18337
aI19018
aI19328
aI19872
aI19980
aI20174
aI20302
aI20460
aI20780
aI20969
asg1
(g5
S'\x00\x00\x00|'
p492
tp493
Rp494
(lp495
I243
aI552
aI632
aI1451
aI1784
aI2501
aI2933
aI3520
aI3946
aI4339
aI4593
aI4711
aI5479
aI6157
aI6403
aI6445
aI6555
aI6725
aI7989
aI9823
aI9993
aI10514
aI11289
aI12530
aI14444
aI14521
aI14574
aI15058
aI15288
aI17425
aI18132
aI18219
aI18457
aI18488
aI19357
asg1
(g5
S'\x00\x00\x00}'
p496
tp497
Rp498
(lp499
I2020
aI2672
aI2897
aI3728
aI4313
aI4792
aI5618
aI5867
aI7230
aI8002
aI8392
aI8555
aI8997
aI9454
aI9524
aI9540
aI9688
aI10796
aI11329
aI11862
aI13635
aI13854
aI13995
aI14106
aI14491
aI15959
aI16237
aI16309
aI17506
aI17655
aI17809
aI20565
aI21029
asg1
(g5
S'\x00\x00\x00~'
p500
tp501
Rp502
(lp503
I239
aI311
aI794
aI2208
aI2744
aI2945
aI2987
aI3080
aI3450
aI3590
aI3714
aI4087
aI4271
aI6040
aI6193
aI8415
aI8474
aI8608
aI9534
aI10329
aI10485
aI10747
aI11018
aI12499
aI12770
aI13157
aI13323
aI13804
aI14865
aI15255
aI15781
aI16327
aI16412
aI16609
aI17062
aI17584
aI18068
aI19491
aI20027
aI20505
aI21066
asg1
(g5
S'\x00\x00\x00\x80'
p504
tp505
Rp506
(lp507
I268
aI8684
aI9204
aI9839
aI10153
aI10699
aI12209
aI13287
aI14613
aI18853
aI19427
aI20484
asg1
(g5
S'\x00\x00\x00\x81'
p508
tp509
Rp510
(lp511
I551
aI2427
aI3772
aI4035
aI4622
aI5223
aI5891
aI6140
aI6147
aI6235
aI6362
aI7688
aI9819
aI10264
aI10326
aI10654
aI11406
aI12104
aI12492
aI12653
aI12827
aI13150
aI13492
aI13801
aI14735
aI14849
aI15200
aI16043
aI16323
aI17441
aI18704
aI19098
aI19325
aI19336
aI21059
asg1
(g5
S'\x00\x00\x00\x82'
p512
tp513
Rp514
(lp515
I1346
aI1402
aI2028
aI2329
aI2937
aI2961
aI3796
aI4140
aI4471
aI5143
aI5224
aI5613
aI5715
aI5922
aI6355
aI6973
aI7108
aI8537
aI8971
aI9057
aI9074
aI9165
aI11194
aI11358
aI11469
aI13100
aI13111
aI13950
aI14267
aI15623
aI15727
aI17859
aI19563
aI20640
asg1
(g5
S'\x00\x00\x00\x83'
p516
tp517
Rp518
(lp519
I14
aI180
aI1284
aI1657
aI2162
aI2271
aI2545
aI2629
aI2735
aI2914
aI3242
aI3985
aI4699
aI5336
aI5687
aI5840
aI6660
aI6732
aI7457
aI7537
aI7624
aI8289
aI8669
aI9461
aI9672
aI9900
aI10902
aI11596
aI11663
aI11784
aI11893
aI12279
aI12764
aI12800
aI12839
aI13110
aI13204
aI13282
aI13787
aI13987
aI14344
aI14633
aI16086
aI16117
aI16169
aI16593
aI17530
aI19096
aI19144
aI19245
aI20166
aI20449
asg1
(g5
S'\x00\x00\x00\x84'
p520
tp521
Rp522
(lp523
I4374
aI17706
aI21051
asg1
(g5
S'\x00\x00\x00\x85'
p524
tp525
Rp526
(lp527
I1388
aI1640
aI1753
aI2091
aI2377
aI2582
aI3284
aI3422
aI3430
aI3932
aI4454
aI4461
aI4585
aI4685
aI6073
aI6261
aI6859
aI6968
aI7409
aI7832
aI8923
aI9214
aI9579
aI10055
aI10124
aI11366
aI12805
aI13691
aI13790
aI13884
aI13912
aI14443
aI14570
aI14637
aI14711
aI14894
aI15411
aI16022
aI16042
aI16142
aI16773
aI16970
aI17304
aI17764
aI17918
aI18567
aI18954
aI19049
aI19150
aI19703
aI20617
aI20736
asg1
(g5
S'\x00\x00\x00\x86'
p528
tp529
Rp530
(lp531
I2
aI295
aI778
aI1264
aI1997
aI2484
aI2584
aI2763
aI3451
aI3578
aI3621
aI4709
aI4718
aI5076
aI5315
aI5495
aI5536
aI5565
aI5623
aI5773
aI5842
aI5886
aI5947
aI5989
aI6055
aI6932
aI6954
aI7017
aI7132
aI7868
aI7875
aI8170
aI8572
aI8780
aI9023
aI9395
aI9589
aI9609
aI9773
aI10247
aI10933
aI10976
aI11267
aI11698
aI12703
aI13135
aI13625
aI13704
aI14031
aI14330
aI14914
aI15465
aI16245
aI16318
aI16430
aI18800
aI19301
aI19580
aI19742
aI19832
aI19908
aI20414
aI20746
asg1
(g5
S'\x00\x00\x00\x87'
p532
tp533
Rp534
(lp535
I324
aI342
aI841
aI889
aI1581
aI2442
aI2472
aI3236
aI3618
aI4257
aI4965
aI5316
aI5412
aI7642
aI8214
aI8338
aI9863
aI11198
aI12084
aI13224
aI13251
aI13506
aI14238
aI15201
aI15951
aI16596
aI16803
aI16959
aI17177
aI17623
aI19772
aI19934
aI20730
asg1
(g5
S'\x00\x00\x00\x88'
p536
tp537
Rp538
(lp539
I882
aI6162
aI9146
aI9264
aI11119
aI11294
aI11424
aI11997
aI14919
aI15446
aI17659
aI17933
aI20159
aI20698
asg1
(g5
S'\x00\x00\x00\x89'
p540
tp541
Rp542
(lp543
I49
aI61
aI1120
aI3498
aI3517
aI4030
aI4612
aI4613
aI4849
aI5949
aI6538
aI6653
aI7067
aI7296
aI7353
aI9032
aI10275
aI10293
aI10618
aI10906
aI11012
aI11227
aI12051
aI12153
aI12187
aI12844
aI13085
aI13303
aI13326
aI13343
aI13359
aI14802
aI14856
aI15185
aI16014
aI16035
aI16084
aI16200
aI16248
aI16358
aI16550
aI16985
aI17189
aI17295
aI17474
aI18123
aI19208
aI20832
aI21023
asg1
(g5
S'\x00\x00\x00\x8a'
p544
tp545
Rp546
(lp547
I145
aI1773
aI2432
aI2866
aI2979
aI3159
aI3169
aI4839
aI5219
aI5309
aI5448
aI5812
aI6316
aI6570
aI7048
aI8236
aI8777
aI9748
aI10359
aI10573
aI10967
aI11208
aI11372
aI11512
aI12342
aI12401
aI15637
aI15883
aI16611
aI18953
aI19035
aI19385
aI20467
aI20739
asg1
(g5
S'\x00\x00\x00\x8c'
p548
tp549
Rp550
(lp551
I5434
aI5575
aI8124
aI8221
aI8766
aI9177
aI9671
aI12127
aI13021
aI13920
aI16476
aI16817
aI19032
aI19586
aI19766
asg1
(g5
S'\x00\x00\x00\x8d'
p552
tp553
Rp554
(lp555
I629
aI1218
aI1310
aI1614
aI2692
aI4341
aI4406
aI6148
aI6980
aI7917
aI8547
aI8883
aI10209
aI10746
aI11376
aI11618
aI11674
aI11783
aI11942
aI12176
aI12308
aI13008
aI13298
aI13707
aI14748
aI15116
aI15301
aI15345
aI15600
aI15622
aI15836
aI15966
aI16102
aI17385
aI17420
aI19455
aI19927
asg1
(g5
S'\x00\x00\x00\x8e'
p556
tp557
Rp558
(lp559
I566
aI694
aI947
aI1214
aI2542
aI3124
aI3252
aI3619
aI4188
aI4570
aI5000
aI5300
aI5339
aI5476
aI5507
aI6222
aI6572
aI6887
aI7071
aI7094
aI7484
aI7716
aI7822
aI7959
aI9797
aI10028
aI10240
aI10312
aI10313
aI10798
aI11245
aI11632
aI13059
aI14128
aI15428
aI15455
aI15583
aI15737
aI17344
aI17724
aI18006
aI18114
aI18403
aI20010
aI20017
aI20101
aI20526
asg1
(g5
S'\x00\x00\x00\x8f'
p560
tp561
Rp562
(lp563
I1582
aI2261
aI2640
aI2651
aI2921
aI3188
aI3439
aI3652
aI4653
aI4826
aI5004
aI5278
aI5331
aI5500
aI5708
aI5754
aI5832
aI6188
aI6408
aI7459
aI8637
aI8947
aI9226
aI9287
aI9696
aI10627
aI10835
aI11044
aI11976
aI12044
aI13699
aI13834
aI14542
aI14577
aI15004
aI15766
aI15991
aI16834
aI17306
aI17500
aI17653
aI18092
aI18390
aI18859
aI19000
aI19294
aI19496
aI20024
aI20148
aI21087
asg1
(g5
S'\x00\x00\x00\x90'
p564
tp565
Rp566
(lp567
I1583
aI2762
aI3296
aI3311
aI6042
aI6114
aI6708
aI7600
aI7950
aI9732
aI11432
aI11871
aI11888
aI13538
aI13808
aI13981
aI15140
aI16969
aI17878
aI17921
aI19083
aI19497
aI19515
aI19564
asg1
(g5
S'\x00\x00\x00\x91'
p568
tp569
Rp570
(lp571
I21
aI23
aI1261
aI1793
aI3591
aI3734
aI3816
aI9107
aI9736
aI9779
aI11105
aI11979
aI13547
aI15079
aI15272
aI15332
aI15745
aI16913
aI17056
aI20006
aI20466
asg1
(g5
S'\x00\x00\x00\x92'
p572
tp573
Rp574
(lp575
I438
aI1063
aI1175
aI1279
aI1457
aI1521
aI1565
aI1651
aI1914
aI1993
aI2079
aI2922
aI2958
aI3343
aI4784
aI5526
aI5909
aI6115
aI6252
aI6753
aI7340
aI8136
aI9632
aI9716
aI10085
aI10851
aI10996
aI11075
aI11425
aI12189
aI12938
aI13430
aI13432
aI13873
aI13964
aI14522
aI14813
aI15074
aI15131
aI15520
aI15571
aI16315
aI17602
aI17687
aI17790
aI18108
aI18747
aI18897
aI19942
aI20001
aI20844
asg1
(g5
S'\x00\x00\x00\x93'
p576
tp577
Rp578
(lp579
I381
aI496
aI502
aI533
aI548
aI2012
aI2402
aI3854
aI4216
aI4771
aI5392
aI6430
aI6465
aI6474
aI7033
aI7186
aI8383
aI8968
aI9238
aI9475
aI10324
aI10774
aI10864
aI11525
aI11602
aI12972
aI13173
aI13502
aI13548
aI13638
aI14216
aI14852
aI14891
aI15901
aI17072
aI17246
aI17310
aI17693
aI17780
aI18835
aI18904
aI19670
aI19869
aI20535
aI20733
asg1
(g5
S'\x00\x00\x00\x94'
p580
tp581
Rp582
(lp583
I228
aI261
aI411
aI1326
aI1503
aI2015
aI2123
aI2508
aI2643
aI2746
aI2876
aI3041
aI3749
aI3957
aI3977
aI4125
aI4173
aI4272
aI4410
aI4719
aI5438
aI5542
aI5619
aI5654
aI6030
aI6470
aI6493
aI6720
aI7519
aI7666
aI8438
aI8472
aI8691
aI8767
aI9976
aI10035
aI10628
aI10742
aI11000
aI11131
aI11275
aI11771
aI12230
aI12347
aI12451
aI12960
aI13265
aI13392
aI13528
aI13803
aI15178
aI15471
aI15588
aI15595
aI15884
aI16062
aI16458
aI16641
aI16693
aI16774
aI16840
aI16920
aI17115
aI17318
aI18301
aI18341
aI18965
aI19042
aI19206
aI20288
aI20412
aI20561
aI20920
asg1
(g5
S'\x00\x00\x00\x95'
p584
tp585
Rp586
(lp587
I337
aI1027
aI2577
aI2976
aI3042
aI3217
aI3358
aI4780
aI5446
aI7929
aI8371
aI8949
aI9577
aI10754
aI11311
aI11383
aI12606
aI12636
aI12702
aI14107
aI14423
aI16049
aI16836
aI17985
aI18167
aI20949
aI20977
asg1
(g5
S'\x00\x00\x00\x96'
p588
tp589
Rp590
(lp591
I708
aI2032
aI4546
aI5274
aI6426
aI6444
aI7855
aI9844
aI15533
aI15683
aI16978
aI18512
aI19065
aI20677
aI20852
asg1
(g5
S'\x00\x00\x00\x97'
p592
tp593
Rp594
(lp595
I10273
aI17095
asg1
(g5
S'\x00\x00\x00\x98'
p596
tp597
Rp598
(lp599
I540
aI822
aI1042
aI1077
aI1393
aI1918
aI2769
aI3292
aI4268
aI6581
aI7051
aI7622
aI7657
aI7734
aI8629
aI8860
aI8876
aI9463
aI9581
aI11246
aI11955
aI12697
aI12888
aI14927
aI15098
aI16015
aI16400
aI16612
aI17120
aI18959
aI20522
aI20558
aI21108
asg1
(g5
S'\x00\x00\x00\x99'
p600
tp601
Rp602
(lp603
I136
aI427
aI2279
aI3175
aI6880
aI8803
aI11954
aI12307
aI12531
aI15645
aI16735
asg1
(g5
S'\x00\x00\x00\x9a'
p604
tp605
Rp606
(lp607
I6
aI515
aI604
aI651
aI893
aI1761
aI2267
aI2517
aI2924
aI3071
aI3362
aI3599
aI3692
aI3980
aI5028
aI5252
aI5798
aI6483
aI7803
aI8095
aI8299
aI9081
aI9310
aI9661
aI11316
aI11415
aI11766
aI11912
aI12222
aI13273
aI13457
aI13572
aI13647
aI14123
aI14463
aI15261
aI15822
aI17199
aI17324
aI18522
aI18739
aI19991
aI20197
aI20913
asg1
(g5
S'\x00\x00\x00\x9b'
p608
tp609
Rp610
(lp611
I51
aI64
aI1036
aI1138
aI1307
aI2145
aI2278
aI2583
aI2667
aI3033
aI3636
aI3671
aI3881
aI4395
aI5202
aI5770
aI6801
aI7607
aI7644
aI8425
aI8650
aI8727
aI9154
aI10764
aI10809
aI10890
aI11493
aI11852
aI12224
aI12225
aI12326
aI12397
aI12871
aI13590
aI14140
aI14235
aI14706
aI14827
aI14844
aI14960
aI15681
aI15894
aI16107
aI16268
aI16761
aI17284
aI17527
aI17689
aI17819
aI17963
aI18443
aI18461
aI18533
aI18744
aI18776
aI18813
aI18849
aI19004
aI19109
aI19394
aI20709
aI20759
aI20894
asg1
(g5
S'\x00\x00\x00\x9c'
p612
tp613
Rp614
(lp615
I306
aI830
aI2974
aI3286
aI3614
aI3919
aI6381
aI6406
aI9953
aI10446
aI10894
aI11152
aI11987
aI12201
aI13701
aI13970
aI14667
aI14990
aI15560
aI15714
aI15892
aI16968
aI17300
aI17541
aI17587
aI18035
aI18127
aI19403
aI19448
asg1
(g5
S'\x00\x00\x00\x9d'
p616
tp617
Rp618
(lp619
I114
aI340
aI583
aI1048
aI2087
aI2912
aI3243
aI3469
aI3524
aI3993
aI5225
aI5364
aI5880
aI6525
aI7866
aI8211
aI8242
aI8548
aI9079
aI9879
aI9908
aI9982
aI10023
aI10040
aI10087
aI10333
aI12431
aI12840
aI12891
aI13025
aI13769
aI13795
aI15378
aI15821
aI15938
aI16547
aI16694
aI17273
aI17656
aI17867
aI17948
aI17991
aI18332
aI18611
aI18646
aI18907
aI19031
aI19243
aI19789
aI20216
aI20284
asg1
(g5
S'\x00\x00\x00\x9e'
p620
tp621
Rp622
(lp623
I674
aI1721
aI1900
aI1906
aI1960
aI3979
aI4994
aI5924
aI6621
aI8369
aI9016
aI9784
aI10086
aI10866
aI12535
aI14555
aI16080
aI16214
aI16264
aI16394
aI16844
aI17166
aI18004
aI19952
aI20761
asg1
(g5
S'\x00\x00\x00\x9f'
p624
tp625
Rp626
(lp627
I713
aI1677
aI1905
aI2931
aI3128
aI3304
aI4873
aI6237
aI6610
aI7133
aI7540
aI7986
aI9412
aI9957
aI10276
aI10737
aI11226
aI11789
aI12101
aI13054
aI13764
aI15486
aI16567
aI16676
aI17345
aI18317
aI19371
aI19447
aI19673
aI19777
aI20827
aI20951
asg1
(g5
S'\x00\x00\x00\xa0'
p628
tp629
Rp630
(lp631
I282
aI1001
aI1475
aI1780
aI1805
aI2219
aI2370
aI3055
aI3109
aI3130
aI4457
aI4913
aI5141
aI5276
aI5368
aI6346
aI6671
aI7628
aI8380
aI8656
aI9222
aI9355
aI9832
aI9994
aI10975
aI11751
aI12579
aI13266
aI13441
aI13561
aI13969
aI14348
aI14657
aI15449
aI16164
aI17017
aI17281
aI18046
aI18340
aI18637
aI18901
aI19285
aI19981
aI20870
aI20897
asg1
(g5
S'\x00\x00\x00\xa1'
p632
tp633
Rp634
(lp635
I1075
aI2605
aI2780
aI2793
aI3149
aI3397
aI3794
aI4131
aI5432
aI5505
aI5567
aI5751
aI6143
aI6383
aI7561
aI8595
aI10969
aI11181
aI11805
aI12191
aI12852
aI13064
aI13386
aI13558
aI14310
aI14494
aI14646
aI15073
aI15558
aI15708
aI15989
aI16351
aI16549
aI16552
aI16660
aI16667
aI17064
aI18331
aI18467
aI18618
aI19275
aI19408
aI19532
aI19995
aI20047
aI20425
aI20743
asg1
(g5
S'\x00\x00\x00\xa2'
p636
tp637
Rp638
(lp639
I925
aI3074
aI3417
aI3467
aI3894
aI4079
aI4794
aI6698
aI7605
aI7838
aI8625
aI8642
aI10039
aI10369
aI12405
aI14394
aI15907
aI17832
aI19105
aI19248
aI20779
asg1
(g5
S'\x00\x00\x00\xa3'
p640
tp641
Rp642
(lp643
I2792
aI3025
aI3234
aI4481
aI5809
aI6332
aI6605
aI7304
aI8154
aI9095
aI9817
aI11303
aI11613
aI11636
aI11786
aI13424
aI14399
aI15806
aI17647
aI17804
aI18033
aI18605
asg1
(g5
S'\x00\x00\x00\xa4'
p644
tp645
Rp646
(lp647
I190
aI312
aI1081
aI1375
aI2966
aI3287
aI3496
aI3843
aI3948
aI4421
aI4490
aI5414
aI5937
aI5940
aI6558
aI8360
aI8401
aI8969
aI9825
aI9834
aI10246
aI11167
aI11617
aI13339
aI14338
aI16684
aI17023
aI17430
aI17512
aI18752
aI19186
aI19863
aI20935
asg1
(g5
S'\x00\x00\x00\xa5'
p648
tp649
Rp650
(lp651
I307
aI394
aI1716
aI2161
aI2453
aI2761
aI3088
aI3461
aI4679
aI5761
aI6297
aI6710
aI7082
aI7271
aI7423
aI7446
aI7776
aI8119
aI8748
aI9362
aI9498
aI9868
aI10254
aI10417
aI10825
aI11901
aI11973
aI12116
aI12268
aI13158
aI13391
aI13756
aI13973
aI14750
aI14850
aI14860
aI15754
aI16147
aI16638
aI16916
aI17085
aI17163
aI17241
aI17243
aI17412
aI17544
aI17983
aI18384
aI18444
aI20082
aI20415
aI21075
asg1
(g5
S'\x00\x00\x00\xa6'
p652
tp653
Rp654
(lp655
I130
aI491
aI643
aI802
aI1580
aI1587
aI1776
aI2129
aI2972
aI3431
aI3826
aI4418
aI4924
aI5084
aI5351
aI5966
aI6540
aI7358
aI7591
aI9245
aI9564
aI9801
aI10173
aI10356
aI10713
aI10789
aI10938
aI11225
aI11325
aI11749
aI12170
aI12830
aI13089
aI13178
aI13215
aI13379
aI14433
aI14461
aI16036
aI16246
aI16581
aI17217
aI18302
aI19058
aI19495
aI19871
aI20058
aI20104
aI20776
asg1
(g5
S'\x00\x00\x00\xa7'
p656
tp657
Rp658
(lp659
I597
aI1034
aI1338
aI1410
aI1685
aI3087
aI3537
aI3795
aI3799
aI4055
aI4108
aI4403
aI4532
aI4659
aI4848
aI6166
aI6396
aI6870
aI6949
aI7819
aI7912
aI8020
aI8114
aI8465
aI10161
aI10587
aI10931
aI11745
aI12151
aI12426
aI12944
aI13140
aI13539
aI14208
aI14509
aI15157
aI15243
aI15617
aI15893
aI16267
aI16586
aI16606
aI16722
aI17981
aI18482
aI19029
aI19746
aI20136
aI20241
aI20479
aI20564
aI20982
asg1
(g5
S'\x00\x00\x00\xa8'
p660
tp661
Rp662
(lp663
I2022
aI3076
aI4215
aI4634
aI5828
aI6107
aI7491
aI7916
aI8739
aI9369
aI10160
aI11231
aI11804
aI12059
aI12605
aI15491
aI19008
aI19134
aI19609
aI19697
aI20707
aI20996
asg1
(g5
S'\x00\x00\x00\xa9'
p664
tp665
Rp666
(lp667
I866
aI1187
aI1411
aI1440
aI2319
aI2324
aI2832
aI3256
aI3400
aI4070
aI4657
aI5927
aI6271
aI6696
aI7267
aI7441
aI7500
aI7778
aI8577
aI10186
aI10518
aI11481
aI12108
aI12974
aI13034
aI14193
aI15370
aI15404
aI15736
aI16709
aI18039
aI18126
aI18596
aI18746
aI18784
aI20323
aI20682
aI20905
asg1
(g5
S'\x00\x00\x00\xaa'
p668
tp669
Rp670
(lp671
I501
aI839
aI850
aI916
aI1038
aI1293
aI1320
aI3695
aI3943
aI4713
aI5055
aI5347
aI6017
aI6286
aI6798
aI6935
aI7281
aI7701
aI8193
aI8308
aI8317
aI8554
aI9356
aI10585
aI10610
aI10714
aI11164
aI11258
aI12262
aI12477
aI12589
aI12925
aI13360
aI13463
aI13488
aI13595
aI14024
aI14087
aI14321
aI14391
aI14762
aI15751
aI16131
aI16313
aI17190
aI17600
aI18518
aI18553
aI18745
aI18819
aI19154
aI19473
aI19558
aI20744
asg1
(g5
S'\x00\x00\x00\xab'
p672
tp673
Rp674
(lp675
I410
aI1442
aI1624
aI1652
aI2294
aI2767
aI3372
aI3396
aI4549
aI4694
aI5290
aI6027
aI6112
aI8035
aI8551
aI8846
aI9007
aI9017
aI9034
aI9611
aI10653
aI10704
aI10897
aI11823
aI11868
aI12120
aI12249
aI12941
aI13752
aI14673
aI14754
aI14975
aI15077
aI15124
aI15274
aI15278
aI15575
aI15750
aI15843
aI16431
aI16479
aI18119
aI18201
aI18842
asg1
(g5
S'\x00\x00\x00\xac'
p676
tp677
Rp678
(lp679
I492
aI12144
aI12199
aI16199
aI20427
aI21039
asg1
(g5
S'\x00\x00\x00\xad'
p680
tp681
Rp682
(lp683
I16
aI279
aI388
aI490
aI595
aI621
aI726
aI1252
aI1364
aI2163
aI2516
aI2543
aI2703
aI3285
aI3584
aI4165
aI4292
aI4347
aI4721
aI5373
aI5569
aI6774
aI7169
aI7478
aI8129
aI8348
aI8539
aI9015
aI9898
aI10031
aI10075
aI10319
aI10413
aI10682
aI11113
aI11712
aI11743
aI11847
aI12124
aI12206
aI12336
aI12904
aI13309
aI13322
aI13654
aI13712
aI14319
aI14331
aI14815
aI15524
aI15601
aI15786
aI16003
aI16368
aI16805
aI16884
aI16960
aI17342
aI17975
aI19142
aI20147
aI20376
aI20924
asg1
(g5
S'\x00\x00\x00\xae'
p684
tp685
Rp686
(lp687
I52
aI441
aI546
aI1128
aI1277
aI1699
aI2228
aI2383
aI3423
aI4554
aI4692
aI5516
aI5673
aI5774
aI8263
aI8409
aI8439
aI8934
aI9276
aI9314
aI9972
aI10661
aI10757
aI11806
aI13093
aI13577
aI13600
aI14176
aI14741
aI15002
aI15654
aI17222
aI17954
aI18847
aI19203
aI19380
aI19538
asg1
(g5
S'\x00\x00\x00\xaf'
p688
tp689
Rp690
(lp691
I408
aI1248
aI1750
aI3278
aI3667
aI4186
aI4429
aI4485
aI5658
aI5737
aI5792
aI6934
aI7411
aI7977
aI8509
aI9224
aI9915
aI10003
aI10134
aI10740
aI10841
aI13822
aI14636
aI16241
aI16242
aI16882
aI17042
aI17078
aI17392
aI18194
aI18948
aI20711
asg1
(g5
S'\x00\x00\x00\xb0'
p692
tp693
Rp694
(lp695
I2158
aI2969
aI3147
aI5547
aI5669
aI5717
aI5845
aI6003
aI8497
aI11097
aI11360
aI11644
aI11736
aI11814
aI12134
aI12778
aI12971
aI13177
aI13608
aI13610
aI14503
aI14612
aI14955
aI16545
aI16917
aI17022
aI17075
aI17285
aI17589
aI17854
aI18244
aI18484
aI18725
aI18972
aI19886
asg1
(g5
S'\x00\x00\x00\xb1'
p696
tp697
Rp698
(lp699
I2587
aI3731
aI4451
aI4737
aI6512
aI8921
aI11445
aI14830
aI15379
aI15549
aI15804
aI15986
aI16413
aI18501
aI18569
aI19306
aI21028
asg1
(g5
S'\x00\x00\x00\xb2'
p700
tp701
Rp702
(lp703
I313
aI801
aI818
aI1394
aI1578
aI1596
aI1686
aI1766
aI3185
aI3568
aI3577
aI4180
aI4219
aI4284
aI4684
aI6038
aI6378
aI6813
aI6871
aI7944
aI7961
aI8659
aI9483
aI9567
aI9813
aI11034
aI11353
aI11471
aI11548
aI11661
aI11902
aI12541
aI12856
aI13128
aI13646
aI13809
aI14131
aI14256
aI14312
aI14323
aI15137
aI15357
aI15899
aI17070
aI17119
aI17143
aI17160
aI17747
aI17754
aI17885
aI17926
aI18320
aI18412
aI18470
aI18544
aI19132
aI19224
aI19318
aI19364
aI19410
aI19471
aI19738
aI20099
aI20908
asg1
(g5
S'\x00\x00\x00\xb3'
p704
tp705
Rp706
(lp707
I325
aI3138
aI3713
aI5036
aI5375
aI5607
aI5908
aI7892
aI9014
aI10098
aI10128
aI10571
aI11035
aI13931
aI14252
aI15190
aI16163
aI16396
aI18234
aI18397
aI18474
aI19523
aI19741
asg1
(g5
S'\x00\x00\x00\xb4'
p708
tp709
Rp710
(lp711
I8
aI199
aI550
aI1389
aI1501
aI1746
aI1835
aI2202
aI3063
aI3270
aI3918
aI6637
aI6686
aI8510
aI8816
aI8924
aI9555
aI9827
aI10181
aI10652
aI10884
aI11062
aI11701
aI11851
aI13209
aI15988
aI16144
aI17340
aI18672
aI19266
aI19771
aI20383
asg1
(g5
S'\x00\x00\x00\xb5'
p712
tp713
Rp714
(lp715
I384
aI723
aI2203
aI2694
aI3024
aI3477
aI4109
aI4444
aI5825
aI5955
aI6227
aI6792
aI6907
aI7188
aI7345
aI7625
aI7709
aI7931
aI8423
aI8714
aI8730
aI9207
aI9239
aI9673
aI9880
aI10132
aI10322
aI10928
aI11017
aI11357
aI11604
aI12328
aI13104
aI13261
aI13316
aI13670
aI13746
aI13814
aI13974
aI14105
aI14643
aI14810
aI14882
aI15049
aI15285
aI15323
aI16642
aI17155
aI17389
aI17404
aI17454
aI17592
aI17646
aI17685
aI18056
aI18692
aI19216
aI19228
aI20372
asg1
(g5
S'\x00\x00\x00\xb6'
p716
tp717
Rp718
(lp719
I592
aI826
aI929
aI2196
aI2500
aI2830
aI2911
aI3447
aI4168
aI4311
aI4884
aI6024
aI7377
aI7516
aI8034
aI8647
aI9348
aI9439
aI9571
aI9778
aI10245
aI11291
aI12849
aI13039
aI13205
aI13557
aI14125
aI14367
aI14510
aI14708
aI14880
aI15440
aI15554
aI15875
aI16522
aI17009
aI17510
aI17793
aI17798
aI18040
aI18282
aI18765
aI18862
aI19602
aI19683
aI20430
aI20441
aI20987
asg1
(g5
S'\x00\x00\x00\xb7'
p720
tp721
Rp722
(lp723
I44
aI666
aI1068
aI1564
aI1769
aI3108
aI3373
aI3552
aI3697
aI3780
aI4238
aI4562
aI4869
aI5088
aI5338
aI5499
aI6523
aI7018
aI7490
aI7820
aI7949
aI8201
aI8207
aI8243
aI8396
aI8573
aI8774
aI8897
aI9545
aI10223
aI11013
aI11748
aI12140
aI12223
aI12231
aI12793
aI13738
aI13996
aI13998
aI14114
aI15586
aI16095
aI16344
aI16531
aI16544
aI16571
aI16625
aI17429
aI17660
aI17907
aI17923
aI18604
aI18669
aI18900
aI18968
aI19400
aI19688
aI19866
aI20092
aI20450
asg1
(g5
S'\x00\x00\x00\xb8'
p724
tp725
Rp726
(lp727
I174
aI480
aI783
aI2421
aI2441
aI3137
aI3399
aI4569
aI4971
aI5872
aI7015
aI7399
aI8298
aI8540
aI8664
aI8814
aI8957
aI9689
aI9934
aI10263
aI11088
aI11282
aI11752
aI12296
aI12609
aI13288
aI13887
aI14528
aI15055
aI15257
aI15604
aI16044
aI16171
aI17001
aI17388
aI17778
aI17810
aI17994
aI18232
aI18770
aI18771
aI18791
aI19808
aI19883
aI20687
asg1
(g5
S'\x00\x00\x00\xb9'
p728
tp729
Rp730
(lp731
I849
aI1204
aI1597
aI1808
aI3428
aI3803
aI4138
aI4209
aI4704
aI5205
aI5360
aI5684
aI5980
aI7919
aI7972
aI9003
aI9051
aI9172
aI9278
aI9407
aI10107
aI11003
aI11053
aI11652
aI12075
aI12555
aI13230
aI13377
aI13621
aI13631
aI14311
aI14537
aI15046
aI15316
aI15497
aI15640
aI16235
aI16590
aI16622
aI18480
aI20850
asg1
(g5
S'\x00\x00\x00\xba'
p732
tp733
Rp734
(lp735
I94
aI254
aI842
aI1107
aI1354
aI1376
aI1570
aI1610
aI1752
aI2531
aI2843
aI3323
aI3355
aI3487
aI3525
aI3866
aI4155
aI4203
aI6080
aI6204
aI6221
aI7997
aI8527
aI9136
aI9489
aI10114
aI10611
aI10800
aI11093
aI11774
aI12030
aI12138
aI12309
aI12425
aI12862
aI13149
aI13508
aI14333
aI14387
aI14820
aI15053
aI15857
aI16222
aI16411
aI16954
aI19435
aI19476
aI19508
aI19794
aI19860
aI20446
aI20563
aI20594
aI20596
aI20618
asg1
(g5
S'\x00\x00\x00\xbb'
p736
tp737
Rp738
(lp739
I977
aI1125
aI1903
aI2167
aI2340
aI2697
aI3958
aI4318
aI5813
aI7117
aI8419
aI8746
aI9328
aI14079
aI15037
aI15090
aI15685
aI18610
asg1
(g5
S'\x00\x00\x00\xbc'
p740
tp741
Rp742
(lp743
I1224
aI1372
aI1428
aI1743
aI2107
aI2183
aI2689
aI3952
aI4861
aI4906
aI5186
aI5806
aI5883
aI5999
aI6919
aI7299
aI7891
aI8564
aI9083
aI9340
aI9565
aI10537
aI10676
aI10739
aI10803
aI10984
aI11220
aI11550
aI11753
aI12985
aI14904
aI15783
aI16646
aI16937
aI17917
aI18072
aI18396
aI18687
aI19201
aI20208
aI20621
aI21069
asg1
(g5
S'\x00\x00\x00\xbd'
p744
tp745
Rp746
(lp747
I890
aI1631
aI3064
aI3337
aI3663
aI4295
aI4606
aI4840
aI5067
aI6099
aI6685
aI7202
aI7218
aI7416
aI8361
aI8754
aI8826
aI8907
aI10226
aI10471
aI10669
aI11928
aI12434
aI12698
aI13419
aI13648
aI14437
aI15087
aI15910
aI17122
aI17209
aI17546
aI18050
aI18241
aI18258
aI18382
aI18536
aI18622
aI18735
aI18923
aI19108
aI19449
aI20283
aI20291
aI20320
asg1
(g5
S'\x00\x00\x00\xbe'
p748
tp749
Rp750
(lp751
I110
aI2223
aI2240
aI3781
aI5239
aI8514
aI9001
aI9325
aI9818
aI10781
aI11085
aI11363
aI11855
aI12160
aI12480
aI12773
aI12816
aI12874
aI13201
aI13567
aI14042
aI14057
aI14408
aI16706
aI18246
aI18492
aI19171
aI20328
asg1
(g5
S'\x00\x00\x00\xbf'
p752
tp753
Rp754
(lp755
I320
aI968
aI1008
aI1052
aI1493
aI1573
aI1633
aI1649
aI1816
aI1966
aI2423
aI2737
aI3606
aI3899
aI4401
aI4643
aI4756
aI4782
aI4796
aI4920
aI5501
aI5799
aI5877
aI6014
aI6244
aI6359
aI6772
aI6985
aI6993
aI7323
aI7687
aI7853
aI8297
aI8494
aI8887
aI9434
aI9533
aI9782
aI10253
aI10805
aI10855
aI11435
aI11505
aI12239
aI12359
aI12389
aI13448
aI14049
aI14237
aI15230
aI15435
aI15608
aI15659
aI15795
aI15973
aI16082
aI16105
aI16135
aI16273
aI16663
aI16810
aI17598
aI17893
aI18380
aI18919
aI20107
aI20476
aI20735
aI20795
aI21038
asg1
(g5
S'\x00\x00\x00\xc0'
p756
tp757
Rp758
(lp759
I329
aI1602
aI1665
aI2575
aI2715
aI3464
aI4080
aI4327
aI4851
aI7993
aI8842
aI8864
aI9127
aI10403
aI11254
aI12566
aI13695
aI14681
aI15043
aI15228
aI16130
aI16524
aI16799
aI18073
aI19797
aI20629
asg1
(g5
S'\x00\x00\x00\xc1'
p760
tp761
Rp762
(lp763
I2222
aI6056
aI6626
aI8992
aI10169
aI11129
aI11669
aI11908
aI13742
aI15797
aI18570
aI20048
aI21048
asg1
(g5
S'\x00\x00\x00\xc2'
p764
tp765
Rp766
(lp767
I1514
aI2893
aI3247
aI3875
aI6018
aI6085
aI6957
aI7511
aI7553
aI7720
aI8487
aI8737
aI10062
aI10176
aI11364
aI11530
aI12020
aI12031
aI12190
aI12956
aI14293
aI14424
aI14652
aI14766
aI15526
aI15868
aI16473
aI16578
aI18044
aI18675
aI19128
aI19187
aI20511
aI20690
asg1
(g5
S'\x00\x00\x00\xc3'
p768
tp769
Rp770
(lp771
I5720
aI12415
aI16001
aI20749
asg1
(g5
S'\x00\x00\x00\xc4'
p772
tp773
Rp774
(lp775
I168
aI483
aI574
aI615
aI770
aI833
aI1012
aI2439
aI2546
aI2973
aI3078
aI3353
aI3848
aI3849
aI4056
aI4088
aI4565
aI8632
aI8645
aI8878
aI8979
aI9319
aI9772
aI10397
aI10595
aI10626
aI10693
aI10888
aI11148
aI11382
aI11446
aI11615
aI12640
aI12932
aI13692
aI13779
aI14137
aI14174
aI14384
aI14403
aI14822
aI15214
aI15273
aI15306
aI15930
aI16251
aI16677
aI16816
aI16962
aI17321
aI18363
aI18659
aI19770
aI19949
aI20548
aI20660
asg1
(g5
S'\x00\x00\x00\xc5'
p776
tp777
Rp778
(lp779
I201
aI296
aI1453
aI1530
aI2121
aI2284
aI2872
aI3237
aI3436
aI4974
aI5424
aI5711
aI6990
aI7211
aI7306
aI7315
aI7570
aI9448
aI9535
aI9923
aI10002
aI10208
aI11470
aI11729
aI12513
aI12690
aI14298
aI14623
aI14733
aI14870
aI15017
aI15120
aI15807
aI15999
aI16841
aI17255
aI19530
aI19880
aI20557
aI20619
asg1
(g5
S'\x00\x00\x00\xc6'
p780
tp781
Rp782
(lp783
I5822
aI15033
aI15225
aI15480
aI16349
aI16727
asg1
(g5
S'\x00\x00\x00\xc7'
p784
tp785
Rp786
(lp787
I499
aI664
aI767
aI1813
aI2333
aI3082
aI3755
aI3810
aI4342
aI4452
aI5235
aI5366
aI5598
aI6153
aI6233
aI7620
aI7728
aI7828
aI8912
aI9020
aI9753
aI9822
aI10727
aI11019
aI11154
aI11627
aI12613
aI12745
aI13520
aI15694
aI15696
aI15774
aI15860
aI16652
aI16831
aI17206
aI17348
aI17726
aI18054
aI18122
aI18428
aI18991
aI19189
aI19276
aI19329
aI20572
asg1
(g5
S'\x00\x00\x00\xc8'
p788
tp789
Rp790
(lp791
I471
aI1145
aI6272
aI11426
aI15014
aI15232
aI17202
aI18025
aI18653
aI19581
aI21105
asg1
(g5
S'\x00\x00\x00\xc9'
p792
tp793
Rp794
(lp795
I703
aI1031
aI1195
aI1327
aI2632
aI2778
aI4350
aI4900
aI5447
aI6265
aI6312
aI6379
aI6448
aI6476
aI6777
aI7439
aI8050
aI8340
aI8426
aI8881
aI8892
aI9805
aI9858
aI10266
aI10395
aI10590
aI10634
aI11542
aI11544
aI11940
aI12677
aI12861
aI13431
aI14099
aI14452
aI14466
aI15019
aI15720
aI15882
aI16464
aI16701
aI16824
aI17108
aI17187
aI17829
aI17897
aI18197
aI18494
aI18969
aI19643
aI20122
aI21000
asg1
(g5
S'\x00\x00\x00\xca'
p796
tp797
Rp798
(lp799
I456
aI624
aI875
aI920
aI1260
aI2361
aI2954
aI4945
aI5612
aI6267
aI7661
aI11449
aI11603
aI11619
aI13566
aI13671
aI15319
aI15425
aI16860
aI17903
aI19374
aI19656
aI20120
aI21033
aI21037
asg1
(g5
S'\x00\x00\x00\xcb'
p800
tp801
Rp802
(lp803
I319
aI519
aI692
aI1015
aI1526
aI2732
aI3782
aI4372
aI4487
aI4702
aI5910
aI7791
aI8764
aI11195
aI11419
aI12580
aI12663
aI14017
aI14536
aI14742
aI15322
aI15324
aI17398
aI17543
aI19024
aI19389
aI19397
aI19890
aI19990
aI20369
aI20394
aI20712
aI20925
aI21034
asg1
(g5
S'\x00\x00\x00\xcc'
p804
tp805
Rp806
(lp807
I247
aI561
aI614
aI736
aI1239
aI1273
aI1303
aI1353
aI1593
aI1659
aI2239
aI2449
aI2886
aI3404
aI3754
aI4111
aI4832
aI5135
aI5342
aI5576
aI5805
aI6053
aI6429
aI7172
aI7214
aI7601
aI7653
aI7802
aI7920
aI8054
aI8724
aI9542
aI10772
aI10935
aI11528
aI12166
aI12419
aI13195
aI13673
aI14375
aI14493
aI14506
aI14525
aI15276
aI18076
aI18199
aI18383
aI19168
aI19169
aI19611
aI19950
aI20137
aI20170
aI20442
aI20714
aI21077
asg1
(g5
S'\x00\x00\x00\xcd'
p808
tp809
Rp810
(lp811
I1207
aI2874
aI3023
aI3381
aI5100
aI5498
aI6499
aI6873
aI7845
aI8113
aI8581
aI12269
aI13685
aI14388
aI15147
aI16753
aI19344
asg1
(g5
S'\x00\x00\x00\xce'
p812
tp813
Rp814
(lp815
I521
aI899
aI2858
aI2860
aI3271
aI4888
aI5985
aI7908
aI8046
aI9208
aI10111
aI11496
aI11565
aI11975
aI12553
aI13116
aI13698
aI14740
aI15701
aI15970
aI16069
aI19116
aI19415
aI19850
aI20012
asg1
(g5
S'\x00\x00\x00\xd0'
p816
tp817
Rp818
(lp819
I748
aI1198
aI1232
aI1499
aI1629
aI2660
aI2975
aI3306
aI3334
aI3842
aI3890
aI3984
aI5461
aI5723
aI6118
aI8228
aI8584
aI9073
aI9624
aI9739
aI9836
aI10960
aI11071
aI11175
aI11680
aI12122
aI12334
aI12817
aI13258
aI14069
aI15281
aI16370
aI16659
aI16702
aI18423
aI18577
aI19330
aI19535
aI19969
aI19983
aI19998
aI20124
aI20695
asg1
(g5
S'\x00\x00\x00\xd1'
p820
tp821
Rp822
(lp823
I257
aI1069
aI2320
aI2393
aI2603
aI2986
aI3012
aI3359
aI3607
aI4664
aI4806
aI5463
aI5683
aI5974
aI6706
aI6828
aI7562
aI7743
aI7885
aI8240
aI8720
aI9476
aI9522
aI10290
aI10381
aI11255
aI11622
aI11692
aI12106
aI13082
aI13775
aI14045
aI14209
aI14876
aI15384
aI15709
aI16314
aI16618
aI17240
aI17384
aI17771
aI18581
aI18867
aI20966
asg1
(g5
S'\x00\x00\x00\xd2'
p824
tp825
Rp826
(lp827
I1683
aI1848
aI2571
aI3156
aI4378
aI4716
aI5048
aI6275
aI8485
aI9988
aI10227
aI10738
aI11251
aI12073
aI13694
aI15555
aI17936
aI19485
aI19853
aI20093
asg1
(g5
S'\x00\x00\x00\xd3'
p828
tp829
Rp830
(lp831
I229
aI1948
aI2180
aI2337
aI3329
aI3473
aI4023
aI4591
aI6521
aI6537
aI6585
aI6806
aI7036
aI7413
aI7674
aI7730
aI8023
aI8158
aI9735
aI11664
aI12291
aI12310
aI12712
aI13417
aI14426
aI17333
aI19118
aI20007
aI20260
aI20371
aI20515
asg1
(g5
S'\x00\x00\x00\xd4'
p832
tp833
Rp834
(lp835
I988
aI1664
aI2658
aI2781
aI2841
aI3111
aI3216
aI3790
aI3938
aI4049
aI4086
aI4139
aI4648
aI4915
aI5804
aI5983
aI6343
aI7231
aI7681
aI7695
aI8528
aI13937
aI14246
aI15906
aI17292
aI17413
aI18448
aI20662
aI20883
aI20933
asg1
(g5
S'\x00\x00\x00\xd5'
p836
tp837
Rp838
(lp839
I1245
aI1643
aI2334
aI2568
aI3043
aI3727
aI3853
aI5183
aI5319
aI5477
aI5591
aI5615
aI5681
aI6253
aI6338
aI6447
aI7212
aI7322
aI7589
aI8844
aI9491
aI9747
aI10125
aI10567
aI10576
aI11200
aI11654
aI12247
aI12487
aI12567
aI13296
aI13370
aI13381
aI13684
aI14620
aI15371
aI15900
aI15978
aI16112
aI16173
aI17063
aI17309
aI17447
aI18385
aI20071
aI20694
aI20938
aI21100
asg1
(g5
S'\x00\x00\x00\xd6'
p840
tp841
Rp842
(lp843
I1424
aI3401
aI4038
aI4141
aI4237
aI4930
aI5325
aI5819
aI7764
aI7792
aI9989
aI17148
asg1
(g5
S'\x00\x00\x00\xd7'
p844
tp845
Rp846
(lp847
I2985
aI15309
asg1
(g5
S'\x00\x00\x00\xd8'
p848
tp849
Rp850
(lp851
I38
aI700
aI1044
aI1194
aI1368
aI1675
aI2397
aI2774
aI3038
aI3437
aI3720
aI3829
aI4142
aI4172
aI4390
aI4984
aI5015
aI5449
aI6257
aI6277
aI6506
aI7680
aI8074
aI8690
aI8708
aI9259
aI9752
aI9894
aI9980
aI10341
aI10542
aI10725
aI11409
aI11442
aI11694
aI11785
aI11920
aI12180
aI12486
aI12591
aI12946
aI12981
aI13840
aI14161
aI14886
aI15097
aI15258
aI15705
aI15920
aI16146
aI16499
aI16823
aI16888
aI17051
aI17377
aI17534
aI17586
aI17880
aI18164
aI18441
aI18572
aI19179
aI19361
aI20417
aI20641
asg1
(g5
S'\x00\x00\x00\xd9'
p852
tp853
Rp854
(lp855
I965
aI4895
aI5677
aI5732
aI7523
aI8990
aI9427
aI11240
aI14909
aI15492
aI16633
aI17787
aI18502
aI19931
aI20878
asg1
(g5
S'\x00\x00\x00\xda'
p856
tp857
Rp858
(lp859
I40
aI192
aI627
aI688
aI1104
aI1262
aI2120
aI4483
aI4703
aI4894
aI4922
aI5756
aI6804
aI6805
aI6845
aI7800
aI8122
aI8230
aI8303
aI8335
aI9291
aI9497
aI9996
aI10211
aI10948
aI11150
aI12410
aI12701
aI12993
aI14084
aI14224
aI14846
aI15401
aI15981
aI16037
aI17232
aI17748
aI18777
aI18995
aI19117
aI19600
aI20767
asg1
(g5
S'\x00\x00\x00\xdb'
p860
tp861
Rp862
(lp863
I776
aI898
aI2805
aI6940
aI7862
aI8165
aI8670
aI11392
aI12079
aI12143
aI13560
aI15426
aI15569
aI16286
aI17301
aI18551
asg1
(g5
S'\x00\x00\x00\xdc'
p864
tp865
Rp866
(lp867
I70
aI116
aI143
aI262
aI472
aI568
aI961
aI1166
aI1834
aI2157
aI2570
aI3091
aI3429
aI3767
aI4240
aI5328
aI5848
aI5899
aI6757
aI6909
aI7703
aI7940
aI8027
aI8413
aI8617
aI9266
aI9457
aI9707
aI9954
aI10097
aI10804
aI10970
aI12277
aI12420
aI12482
aI12551
aI12691
aI14928
aI15310
aI17946
aI18796
aI18834
aI19197
aI20461
aI20551
aI20588
asg1
(g5
S'\x00\x00\x00\xdd'
p868
tp869
Rp870
(lp871
I417
aI813
aI938
aI1165
aI1227
aI1333
aI1917
aI2601
aI2626
aI3647
aI5142
aI5709
aI5856
aI6376
aI6481
aI6778
aI6999
aI7203
aI7554
aI8427
aI9041
aI9413
aI9891
aI10137
aI10286
aI10568
aI11370
aI11649
aI12575
aI13133
aI13753
aI14273
aI14468
aI16274
aI16380
aI16535
aI16566
aI16716
aI17834
aI18059
aI19225
aI19778
aI20198
aI20233
aI21044
asg1
(g5
S'\x00\x00\x00\xde'
p872
tp873
Rp874
(lp875
I426
aI789
aI1002
aI2242
aI2621
aI3189
aI3356
aI4973
aI6098
aI6836
aI7116
aI7391
aI7676
aI7763
aI8080
aI8274
aI9869
aI10399
aI14629
aI14686
aI14968
aI15018
aI15375
aI15668
aI16249
aI16662
aI16889
aI19822
asg1
(g5
S'\x00\x00\x00\xdf'
p876
tp877
Rp878
(lp879
I565
aI793
aI1654
aI2920
aI3096
aI3099
aI3136
aI3191
aI4302
aI4964
aI5634
aI5902
aI5979
aI7278
aI8959
aI9141
aI9300
aI9926
aI10080
aI10126
aI10368
aI10470
aI10479
aI10868
aI11079
aI11810
aI12119
aI13113
aI13893
aI13962
aI15088
aI15101
aI15374
aI16260
aI16392
aI17566
aI17658
aI18710
aI18720
aI20373
asg1
(g5
S'\x00\x00\x00\xe0'
p880
tp881
Rp882
(lp883
I161
aI844
aI1088
aI1283
aI1287
aI1289
aI1558
aI1607
aI2105
aI2232
aI2272
aI2317
aI2342
aI3120
aI3132
aI3361
aI4000
aI4537
aI4670
aI5395
aI5497
aI5520
aI5571
aI6918
aI6976
aI7508
aI7616
aI8630
aI8940
aI9188
aI9777
aI10048
aI11399
aI11438
aI12258
aI13122
aI14149
aI15059
aI15538
aI15657
aI16221
aI17428
aI17502
aI17567
aI17915
aI18527
aI18603
aI19152
aI19474
aI20200
aI20362
aI20405
aI21095
asg1
(g5
S'\x00\x00\x00\xe1'
p884
tp885
Rp886
(lp887
I1418
aI7549
aI13079
aI16291
aI16832
asg1
(g5
S'\x00\x00\x00\xe2'
p888
tp889
Rp890
(lp891
I1505
aI2255
aI3171
aI3559
aI3561
aI3747
aI4362
aI4680
aI4876
aI4917
aI5330
aI5614
aI6966
aI7563
aI7685
aI7789
aI8358
aI8363
aI9062
aI9202
aI10119
aI10548
aI11193
aI11453
aI12037
aI13709
aI13784
aI14188
aI14767
aI15213
aI15903
aI17439
aI17727
aI17969
aI19429
aI20569
asg1
(g5
S'\x00\x00\x00\xe3'
p892
tp893
Rp894
(lp895
I628
aI1298
aI1315
aI1829
aI2879
aI3489
aI3694
aI3956
aI4243
aI6187
aI6419
aI8384
aI8464
aI8627
aI9309
aI10502
aI10551
aI10696
aI11923
aI12912
aI14253
aI14480
aI14565
aI14680
aI16288
aI16944
aI18920
aI19238
aI19607
aI19926
aI20105
asg1
(g5
S'\x00\x00\x00\xe4'
p896
tp897
Rp898
(lp899
I7532
asg1
(g5
S'\x00\x00\x00\xe5'
p900
tp901
Rp902
(lp903
I331
asg1
(g5
S'\x00\x00\x00\xe6'
p904
tp905
Rp906
(lp907
I126
aI1182
aI1540
aI1600
aI2244
aI2259
aI3262
aI3802
aI4250
aI4998
aI5188
aI5624
aI5943
aI6456
aI6527
aI7504
aI7697
aI8422
aI8583
aI9234
aI10464
aI10881
aI10907
aI10930
aI11262
aI12321
aI12667
aI13043
aI13376
aI13505
aI13952
aI14277
aI16445
aI16821
aI17910
aI18308
aI18887
aI20177
aI20819
asg1
(g5
S'\x00\x00\x00\xe7'
p908
tp909
Rp910
(lp911
I293
aI887
aI1029
aI1054
aI1126
aI1131
aI1414
aI2084
aI2101
aI2265
aI2444
aI2564
aI3806
aI3934
aI4781
aI4858
aI5068
aI5362
aI5993
aI6037
aI6196
aI6548
aI7200
aI7343
aI7544
aI7604
aI8063
aI8434
aI9109
aI9120
aI9218
aI9232
aI9292
aI9814
aI9918
aI10079
aI10637
aI10710
aI11348
aI11657
aI11800
aI16126
aI17036
aI17233
aI17968
aI18027
aI18424
aI18481
aI18571
aI20607
asg1
(g5
S'\x00\x00\x00\xe8'
p912
tp913
Rp914
(lp915
I20468
asg1
(g5
S'\x00\x00\x00\xe9'
p916
tp917
Rp918
(lp919
I80
aI162
aI526
aI1009
aI1090
aI1711
aI2187
aI2558
aI2630
aI2948
aI3280
aI3785
aI5253
aI5462
aI5967
aI6561
aI6628
aI6699
aI7143
aI7335
aI7726
aI8157
aI8749
aI8795
aI9423
aI9451
aI11215
aI13097
aI13170
aI13939
aI14223
aI14497
aI15091
aI15307
aI15356
aI15532
aI16467
aI16732
aI17360
aI17364
aI17378
aI17490
aI18280
aI18387
aI18560
aI18999
aI19893
asg1
(g5
S'\x00\x00\x00\xea'
p920
tp921
Rp922
(lp923
I485
aI1598
aI1992
aI3141
aI3307
aI3478
aI3615
aI3631
aI4458
aI4493
aI4717
aI5019
aI5502
aI5858
aI6451
aI6641
aI7578
aI7943
aI8305
aI9308
aI9560
aI9965
aI10285
aI10675
aI11616
aI12305
aI13423
aI14117
aI16244
aI16282
aI16945
aI17609
aI18204
aI18768
aI18868
aI19337
aI20044
aI20341
asg1
(g5
S'\x00\x00\x00\xeb'
p924
tp925
Rp926
(lp927
I4382
aI5776
aI5945
aI7093
aI7140
aI7332
aI8430
aI8671
aI8850
aI10609
aI10734
aI11021
aI11593
aI12357
aI19640
asg1
(g5
S'\x00\x00\x00\xec'
p928
tp929
Rp930
(lp931
I10536
asg1
(g5
S'\x00\x00\x00\xed'
p932
tp933
Rp934
(lp935
I158
aI1371
aI3164
aI3580
aI3851
aI4514
aI4652
aI6743
aI6790
aI8078
aI8208
aI10638
aI10883
aI11491
aI11886
aI12959
aI13232
aI13255
aI13582
aI13708
aI14229
aI14974
aI16354
aI17131
aI18930
aI19074
aI20880
asg1
(g5
S'\x00\x00\x00\xee'
p936
tp937
Rp938
(lp939
I3049
aI4156
aI4245
aI4548
aI6168
aI9674
aI10025
aI11351
aI11509
aI12007
aI16406
aI17038
aI18663
asg1
(g5
S'\x00\x00\x00\xef'
p940
tp941
Rp942
(lp943
I1254
aI1396
aI1821
aI4098
aI4495
aI4515
aI6951
aI7113
aI7700
aI7934
aI8026
aI9639
aI9881
aI11010
aI11158
aI11739
aI12038
aI12559
aI12796
aI13462
aI13489
aI14719
aI15162
aI15778
aI15791
aI19838
aI20853
asg1
(g5
S'\x00\x00\x00\xf0'
p944
tp945
Rp946
(lp947
I226
aI660
aI1845
aI2430
aI3335
aI3838
aI4184
aI4319
aI4979
aI6021
aI8624
aI9381
aI11420
aI11782
aI14875
aI16138
aI16218
aI16850
aI17465
aI17661
aI17668
aI17847
aI18652
aI19582
asg1
(g5
S'\x00\x00\x00\xf1'
p948
tp949
Rp950
(lp951
I184
aI5085
aI8908
aI10077
aI10891
aI12684
aI16028
asg1
(g5
S'\x00\x00\x00\xf2'
p952
tp953
Rp954
(lp955
I544
aI573
aI980
aI1314
aI2551
aI2619
aI2838
aI3375
aI3702
aI5009
aI6104
aI6722
aI7434
aI9244
aI9983
aI10500
aI11114
aI11179
aI11186
aI11276
aI11401
aI11418
aI11477
aI11558
aI11967
aI12576
aI12848
aI13384
aI16041
aI16255
aI16451
aI16607
aI17328
aI17791
aI18017
aI18691
aI19100
asg1
(g5
S'\x00\x00\x00\xf3'
p956
tp957
Rp958
(lp959
I63
aI1164
aI1662
aI1756
aI2378
aI2722
aI2857
aI4990
aI5025
aI5533
aI6565
aI7019
aI7174
aI8944
aI9174
aI9258
aI10092
aI10165
aI10343
aI10655
aI11099
aI11620
aI11704
aI12032
aI12270
aI12272
aI12628
aI13336
aI13556
aI14550
aI14723
aI15716
aI16031
aI16639
aI17067
aI17326
aI17591
aI17599
aI17762
aI17849
aI18362
aI19440
aI20221
aI20253
aI20634
asg1
(g5
S'\x00\x00\x00\xf4'
p960
tp961
Rp962
(lp963
I11196
aI20176
asg1
(g5
S'\x00\x00\x00\xf5'
p964
tp965
Rp966
(lp967
I138
aI539
aI559
aI2142
aI2190
aI2335
aI2388
aI2437
aI3543
aI5079
aI5626
aI5956
aI7028
aI7150
aI8100
aI8219
aI8318
aI9981
aI10054
aI10058
aI10818
aI11146
aI11281
aI12221
aI13275
aI13660
aI15987
aI17394
aI17938
aI17940
aI18749
aI19422
aI19887
aI19987
aI20309
aI20375
aI20724
aI20945
aI21017
asg1
(g5
S'\x00\x00\x00\xf6'
p968
tp969
Rp970
(lp971
I50
aI973
aI2341
aI2664
aI2677
aI3053
aI5122
aI5255
aI5674
aI6298
aI6441
aI6764
aI7632
aI7742
aI7923
aI8706
aI8965
aI9129
aI9294
aI9406
aI9731
aI9750
aI10001
aI10572
aI10630
aI10728
aI11243
aI11304
aI11791
aI11929
aI12015
aI12141
aI12241
aI12647
aI12750
aI13369
aI13471
aI13963
aI14275
aI14355
aI15266
aI15544
aI15746
aI16052
aI16079
aI16415
aI16812
aI17180
aI17205
aI17838
aI17894
aI18151
aI18418
aI18705
aI18926
aI19193
aI19454
aI19617
aI20076
aI20097
aI20688
asg1
(g5
S'\x00\x00\x00\xf7'
p972
tp973
Rp974
(lp975
I510
aI649
aI812
aI819
aI1067
aI1299
aI1879
aI2021
aI2535
aI2734
aI2887
aI3857
aI4269
aI5404
aI5413
aI7130
aI7762
aI7884
aI7948
aI8875
aI10251
aI10816
aI12669
aI12923
aI13019
aI13189
aI13410
aI13479
aI13630
aI14047
aI14353
aI14656
aI14788
aI15076
aI15493
aI15824
aI16878
aI17100
aI18021
aI18196
aI18255
aI18271
aI18472
aI18523
aI18696
aI18909
aI19014
aI19151
aI19305
asg1
(g5
S'\x00\x00\x00\xf8'
p976
tp977
Rp978
(lp979
I18
aI263
aI829
aI918
aI972
aI998
aI1328
aI1757
aI2394
aI2537
aI3689
aI3739
aI4833
aI5777
aI5837
aI6054
aI6279
aI6349
aI6552
aI6601
aI6754
aI6921
aI6960
aI7487
aI8204
aI9515
aI9619
aI10393
aI10687
aI11199
aI11235
aI12251
aI12505
aI12965
aI13496
aI14085
aI14777
aI14899
aI17355
aI17524
aI17580
aI17702
aI19307
aI19593
aI19627
aI20458
asg1
(g5
S'\x00\x00\x00\xf9'
p980
tp981
Rp982
(lp983
I1925
aI6528
aI7528
aI7941
aI9192
aI9548
aI11841
aI12195
asg1
(g5
S'\x00\x00\x00\xfa'
p984
tp985
Rp986
(lp987
I577
aI814
aI1116
aI1318
aI1617
aI1778
aI2730
aI3685
aI3730
aI3744
aI3978
aI4281
aI4892
aI6220
aI6340
aI6344
aI8181
aI8282
aI8366
aI9383
aI11101
aI11314
aI11580
aI12623
aI12687
aI13206
aI13564
aI13725
aI13999
aI14033
aI14533
aI14782
aI15025
aI15199
aI15916
aI16158
aI16715
aI16757
aI16814
aI17813
aI17953
aI18078
aI18133
aI18203
aI19009
aI19317
aI19526
aI19542
aI20307
asg1
(g5
S'\x00\x00\x00\xfb'
p988
tp989
Rp990
(lp991
I681
aI798
aI1532
aI2345
aI2352
aI2440
aI2802
aI3129
aI3975
aI4092
aI4177
aI4202
aI4277
aI4521
aI4578
aI5041
aI5236
aI5422
aI5450
aI5506
aI5911
aI5930
aI6242
aI6750
aI7283
aI7298
aI7380
aI7614
aI8003
aI8105
aI8550
aI8683
aI8879
aI8902
aI8933
aI9421
aI9759
aI9821
aI9909
aI10694
aI12100
aI12217
aI12343
aI14063
aI16334
aI16397
aI16560
aI17087
aI17337
aI18304
aI18449
aI19812
aI20014
aI20890
asg1
(g5
S'\x00\x00\x00\xfc'
p992
tp993
Rp994
(lp995
I966
aI7486
aI10180
aI18095
asg1
(g5
S'\x00\x00\x00\xfd'
p996
tp997
Rp998
(lp999
I395
aI1003
aI1115
aI1921
aI2322
aI2628
aI4388
aI7731
aI7878
aI8818
aI9906
aI10679
aI11025
aI11510
aI12468
aI13810
aI14720
aI15451
aI17154
aI17654
aI17957
aI18743
aI19068
asg1
(g5
S'\x00\x00\x00\xfe'
p1000
tp1001
Rp1002
(lp1003
I382
aI1495
aI2716
aI4567
aI5101
aI7670
aI8639
aI9026
aI9335
aI10434
aI10442
aI10973
aI12234
aI12444
aI12467
aI13166
aI14768
aI15941
aI16508
aI16927
aI18355
aI18617
aI18640
aI19315
aI19823
aI19901
aI19984
aI20004
aI20435
aI20642
aI20697
aI20766
asg1
(g5
S'\x00\x00\x00\xff'
p1004
tp1005
Rp1006
(lp1007
I187
aI895
aI1791
aI2803
aI3047
aI3100
aI3215
aI3541
aI4288
aI4368
aI4681
aI5242
aI5380
aI5781
aI6325
aI6794
aI7974
aI8694
aI8751
aI9431
aI9580
aI9704
aI10715
aI10827
aI11553
aI12710
aI13606
aI13642
aI13881
aI13975
aI14196
aI14396
aI14861
aI15484
aI15672
aI16931
aI18115
aI18963
aI19481
aI19679
aI20003
asg1
(g5
S'\x00\x00\x01\x00'
p1008
tp1009
Rp1010
(lp1011
I1545
aI1882
aI2066
aI2347
aI2923
aI4090
aI4235
aI4276
aI4552
aI4665
aI4859
aI5121
aI5919
aI6012
aI6602
aI6741
aI6875
aI7398
aI7428
aI7590
aI7615
aI7757
aI7952
aI8287
aI8602
aI8913
aI9098
aI9692
aI10775
aI11048
aI12246
aI12564
aI12565
aI12811
aI13063
aI13821
aI14655
aI15466
aI16175
aI16371
aI16559
aI16570
aI16866
aI17221
aI17353
aI17553
aI18529
aI18576
aI18732
aI19462
aI19715
aI19929
aI19957
aI20138
aI20225
aI20385
aI20492
aI20645
aI20768
asg1
(g5
S'\x00\x00\x01\x01'
p1012
tp1013
Rp1014
(lp1015
I367
aI835
aI1013
aI1216
aI1775
aI1817
aI2243
aI2519
aI2891
aI3068
aI3454
aI4047
aI4673
aI5232
aI5577
aI5593
aI5740
aI6259
aI6439
aI6500
aI7369
aI7426
aI8882
aI9254
aI9352
aI10846
aI12512
aI12642
aI12845
aI12939
aI13052
aI13402
aI13741
aI13986
aI14417
aI14524
aI14804
aI15461
aI17386
aI17742
aI17887
aI19210
aI19214
aI20392
asg1
(g5
S'\x00\x00\x01\x02'
p1016
tp1017
Rp1018
(lp1019
I870
aI897
aI1000
aI1106
aI1212
aI1309
aI1728
aI2996
aI3351
aI3668
aI3945
aI4024
aI4528
aI4611
aI5728
aI7503
aI7650
aI8300
aI9539
aI9727
aI9998
aI10667
aI10777
aI10815
aI12111
aI14169
aI14465
aI14561
aI14903
aI14998
aI15170
aI16422
aI16754
aI18528
asg1
(g5
S'\x00\x00\x01\x03'
p1020
tp1021
Rp1022
(lp1023
I362
aI610
aI2039
aI3718
aI3904
aI4212
aI4820
aI6036
aI6243
aI6357
aI6424
aI6885
aI8138
aI8443
aI9134
aI10597
aI11176
aI11777
aI12039
aI12158
aI12831
aI13103
aI13478
aI13592
aI14055
aI14729
aI15233
aI15396
aI16319
aI17315
aI17479
aI19818
aI20366
asg1
(g5
S'\x00\x00\x01\x04'
p1024
tp1025
Rp1026
(lp1027
I5333
aI8699
aI10148
aI20285
asg1
(g5
S'\x00\x00\x01\x05'
p1028
tp1029
Rp1030
(lp1031
I434
aI774
aI1383
aI1465
aI1513
aI1519
aI2474
aI3026
aI3193
aI3462
aI3582
aI3657
aI4264
aI5445
aI6199
aI7275
aI7637
aI7655
aI7785
aI8599
aI8808
aI8853
aI9353
aI9372
aI10423
aI11066
aI11797
aI13071
aI14115
aI14254
aI14597
aI15887
aI15921
aI15997
aI16013
aI17179
aI17518
aI17619
aI17890
aI17943
aI17987
aI18524
aI19121
aI19354
aI19536
aI20631
aI20632
asg1
(g5
S'\x00\x00\x01\x07'
p1032
tp1033
Rp1034
(lp1035
I1263
aI2550
aI3442
aI3557
aI4221
aI4273
aI4428
aI5308
aI6759
aI7104
aI7125
aI7621
aI9802
aI12055
aI12135
aI12386
aI12646
aI12769
aI13256
aI13293
aI14448
aI14845
aI15256
aI15664
aI17872
aI18814
aI18873
aI18980
aI19565
aI19958
aI20116
aI20173
aI20220
aI20227
aI20906
aI20948
asg1
(g5
S'\x00\x00\x01\x08'
p1036
tp1037
Rp1038
(lp1039
I619
aI1300
aI7893
aI10840
aI15029
aI15380
aI19321
aI19432
aI20937
asg1
(g5
S'\x00\x00\x01\t'
p1040
tp1041
Rp1042
(lp1043
I2968
aI7998
aI9093
aI9178
aI13605
asg1
(g5
S'\x00\x00\x01\n'
p1044
tp1045
Rp1046
(lp1047
I1447
aI4467
aI9105
aI9854
aI9857
aI10037
aI11174
aI12062
aI12903
aI13345
aI14701
aI14933
aI15365
aI18251
aI18733
aI20867
asg1
(g5
S'\x00\x00\x01\x0b'
p1048
tp1049
Rp1050
(lp1051
I769
aI952
aI1579
aI2481
aI2834
aI2977
aI3483
aI3944
aI4255
aI4304
aI4866
aI5105
aI5270
aI5603
aI6822
aI7384
aI7517
aI7691
aI8791
aI8993
aI9623
aI9715
aI9950
aI11237
aI11735
aI11926
aI12156
aI12517
aI12525
aI12835
aI13221
aI13290
aI13354
aI13483
aI13719
aI14018
aI14132
aI14982
aI15735
aI15878
aI16261
aI17271
aI17697
aI17806
aI18641
aI18783
aI18825
aI19383
aI19401
aI19864
aI19916
aI20837
asg1
(g5
S'\x00\x00\x01\x0c'
p1052
tp1053
Rp1054
(lp1055
I2512
aI3530
aI3773
aI4436
aI6839
aI6848
aI8794
aI9296
aI10524
aI12437
aI15684
aI17002
aI17585
aI18505
aI20043
aI21050
asg1
(g5
S'\x00\x00\x01\r'
p1056
tp1057
Rp1058
(lp1059
I5203
aI8641
aI10462
aI12953
aI18172
asg1
(g5
S'\x00\x00\x01\x0e'
p1060
tp1061
Rp1062
(lp1063
I473
aI1167
aI1201
aI1511
aI1779
aI1973
aI2338
aI2469
aI4332
aI4438
aI5378
aI5988
aI6413
aI6779
aI6816
aI7317
aI7627
aI8047
aI8057
aI8073
aI8635
aI8829
aI9021
aI9764
aI9791
aI9811
aI9877
aI10044
aI10331
aI10633
aI10643
aI11089
aI11153
aI11430
aI11881
aI12250
aI12935
aI13234
aI13575
aI13904
aI14029
aI14869
aI15231
aI15898
aI16446
aI16509
aI16515
aI16925
aI16955
aI17094
aI17264
aI17467
aI17528
aI17817
aI17905
aI17909
aI17998
aI18347
aI18372
aI18414
aI18517
aI19112
aI20206
aI20726
aI20742
aI20973
aI21008
aI21019
asg1
(g5
S'\x00\x00\x01\x0f'
p1064
tp1065
Rp1066
(lp1067
I144
aI1184
aI1290
aI1902
aI2000
aI2047
aI2770
aI2902
aI3455
aI3516
aI4590
aI4845
aI5034
aI5119
aI5317
aI5407
aI5644
aI6600
aI6666
aI7806
aI8533
aI9094
aI9943
aI10870
aI11065
aI11404
aI11845
aI12737
aI13677
aI13683
aI14389
aI15328
aI16011
aI16029
aI16503
aI16802
aI17958
aI18159
aI18262
aI18841
aI18870
aI19061
aI19816
aI19885
aI20223
aI20814
aI21003
asg1
(g5
S'\x00\x00\x01\x10'
p1068
tp1069
Rp1070
(lp1071
I714
aI1065
aI1172
aI2521
aI2908
aI3740
aI3940
aI4432
aI4579
aI5111
aI5343
aI5846
aI6417
aI6454
aI6598
aI6629
aI7612
aI7848
aI8053
aI8304
aI8390
aI8695
aI9036
aI9808
aI9824
aI10229
aI10435
aI11039
aI11526
aI11947
aI12012
aI12662
aI13121
aI13236
aI13619
aI13729
aI13953
aI14507
aI14808
aI14863
aI14937
aI15363
aI15443
aI15845
aI17227
aI18665
aI19740
aI19976
aI20608
aI20820
asg1
(g5
S'\x00\x00\x01\x11'
p1072
tp1073
Rp1074
(lp1075
I4883
aI7129
aI10636
aI12006
aI15027
asg1
(g5
S'\x00\x00\x01\x12'
p1076
tp1077
Rp1078
(lp1079
I1680
aI2229
aI3065
aI3103
aI4106
aI5082
aI5349
aI5410
aI6632
aI6638
aI7610
aI7809
aI7840
aI7890
aI8446
aI9102
aI10574
aI11046
aI11390
aI11520
aI11709
aI12133
aI12828
aI12881
aI12893
aI13335
aI13682
aI13830
aI13982
aI14272
aI14812
aI15138
aI15879
aI16352
aI16943
aI17110
aI17841
aI17932
aI18292
aI18550
aI18804
aI18947
aI19087
aI19156
aI19421
aI19457
aI20623
aI20699
aI20718
asg1
(g5
S'\x00\x00\x01\x13'
p1080
tp1081
Rp1082
(lp1083
I404
aI2776
aI7546
aI10979
aI11151
aI11807
aI14717
aI16188
aI16437
aI16443
aI16835
aI18906
aI19442
aI19672
aI19939
asg1
(g5
S'\x00\x00\x01\x14'
p1084
tp1085
Rp1086
(lp1087
I1666
aI2049
aI3019
aI4282
aI5562
aI5758
aI7847
aI10920
aI11027
aI12675
aI13020
aI13228
aI15985
aI16748
aI17942
aI18361
asg1
(g5
S'\x00\x00\x01\x15'
p1088
tp1089
Rp1090
(lp1091
I5069
aI5112
aI6573
aI7746
aI9952
aI11879
asg1
(g5
S'\x00\x00\x01\x16'
p1092
tp1093
Rp1094
(lp1095
I532
aI1023
aI1688
aI2514
aI4224
aI5127
aI5411
aI5932
aI6361
aI6612
aI7326
aI7437
aI7440
aI8644
aI8771
aI10308
aI10671
aI11045
aI11265
aI11846
aI12093
aI12906
aI13061
aI13697
aI14067
aI15210
aI15633
aI17409
aI18367
aI19888
aI19989
asg1
(g5
S'\x00\x00\x01\x17'
p1096
tp1097
Rp1098
(lp1099
I871
aI1947
aI2321
aI2544
aI3067
aI3206
aI3412
aI4226
aI4512
aI4615
aI4871
aI5314
aI6229
aI6515
aI6963
aI7330
aI7978
aI8030
aI8142
aI9546
aI10103
aI11005
aI11173
aI11843
aI12453
aI13393
aI13786
aI14392
aI14418
aI14467
aI15163
aI15472
aI16076
aI16296
aI16332
aI16518
aI17007
aI17282
aI17755
aI17956
aI18080
aI18578
aI19520
aI19690
aI19922
aI20242
asg1
(g5
S'\x00\x00\x01\x18'
p1100
tp1101
Rp1102
(lp1103
I1062
aI1433
aI2641
aI3847
aI4161
aI4435
aI4683
aI4754
aI5052
aI5124
aI5706
aI5871
aI5894
aI6268
aI6793
aI6890
aI7355
aI7647
aI7777
aI7967
aI8082
aI8256
aI8391
aI8411
aI9397
aI9927
aI10036
aI10123
aI10130
aI10242
aI10426
aI11121
aI11377
aI11936
aI12213
aI12655
aI13006
aI13036
aI13124
aI13327
aI14382
aI14558
aI14789
aI14879
aI15677
aI15756
aI15963
aI17290
aI17371
aI17562
aI18143
aI18269
aI18451
aI18911
aI19240
aI19309
aI19570
aI19785
aI20209
aI20864
aI20898
asg1
(g5
S'\x00\x00\x01\x19'
p1104
tp1105
Rp1106
(lp1107
I12159
aI14571
aI15142
aI15220
aI20602
asg1
(g5
S'\x00\x00\x01\x1a'
p1108
tp1109
Rp1110
(lp1111
I108
aI2061
aI2387
aI3434
aI3703
aI3961
aI4638
aI5014
aI5587
aI6519
aI6635
aI6688
aI6717
aI6773
aI6926
aI7665
aI8286
aI8713
aI8859
aI8909
aI9012
aI9144
aI9221
aI9410
aI10311
aI11260
aI11410
aI12164
aI12656
aI13120
aI13623
aI13836
aI13943
aI14178
aI14198
aI14427
aI14567
aI14709
aI15337
aI15343
aI15441
aI15488
aI16162
aI16301
aI16504
aI16718
aI17624
aI17737
aI17883
aI18079
aI18318
aI18425
aI18454
aI19021
aI19241
aI19331
aI19755
aI19821
aI19953
aI20123
aI20207
aI20550
aI20783
asg1
(g5
S'\x00\x00\x01\x1b'
p1112
tp1113
Rp1114
(lp1115
I747
aI1719
aI2357
aI2846
aI3258
aI4041
aI4715
aI4867
aI7447
aI8976
aI9359
aI9408
aI10011
aI10151
aI10222
aI10506
aI10645
aI11244
aI11354
aI12088
aI13289
aI15126
aI16767
aI16904
aI16936
aI17261
aI17766
aI18228
aI18438
aI18933
aI20420
aI20598
asg1
(g5
S'\x00\x00\x01\x1c'
p1116
tp1117
Rp1118
(lp1119
I687
aI862
aI1242
aI2056
aI2417
aI2743
aI2990
aI3008
aI3861
aI4254
aI4344
aI4489
aI4687
aI4880
aI5032
aI5474
aI6079
aI7539
aI7790
aI7808
aI9550
aI10238
aI10525
aI11720
aI12314
aI12488
aI13042
aI13617
aI14184
aI14406
aI14758
aI15730
aI16063
aI16243
aI16608
aI20179
aI20601
aI20637
aI20686
asg1
(g5
S'\x00\x00\x01\x1d'
p1120
tp1121
Rp1122
(lp1123
I1074
aI1421
aI1737
aI1956
aI2025
aI2178
aI2812
aI4863
aI5729
aI6320
aI6911
aI7069
aI7179
aI7760
aI7846
aI7983
aI8090
aI8326
aI8482
aI8964
aI9261
aI9882
aI10091
aI10136
aI10467
aI11109
aI11555
aI11683
aI12474
aI12518
aI12877
aI13062
aI13227
aI13838
aI14340
aI14544
aI14601
aI14694
aI15135
aI16289
aI16491
aI16792
aI17577
aI18316
aI19416
aI19572
aI20745
aI20988
asg1
(g5
S'\x00\x00\x01\x1e'
p1124
tp1125
Rp1126
(lp1127
I133
aI202
aI488
aI1020
aI1168
aI1646
aI1673
aI3836
aI4113
aI4265
aI4415
aI4757
aI5130
aI6867
aI7352
aI7526
aI7645
aI7727
aI9659
aI9991
aI10214
aI11135
aI12612
aI12894
aI13151
aI13739
aI14472
aI14697
aI16088
aI16424
aI16501
aI17289
aI17493
aI17564
aI17846
aI18731
aI18946
aI20131
aI20217
aI20418
aI20741
asg1
(g5
S'\x00\x00\x01\x1f'
p1128
tp1129
Rp1130
(lp1131
I297
aI999
aI1084
aI1348
aI1661
aI1979
aI2313
aI2351
aI2822
aI3248
aI3684
aI3991
aI4705
aI4747
aI4786
aI4950
aI5584
aI6377
aI6697
aI8622
aI9501
aI9630
aI9725
aI10382
aI10691
aI10776
aI11517
aI11726
aI12746
aI12753
aI14527
aI14684
aI15944
aI16924
aI17712
aI18138
aI18935
aI19796
asg1
(g5
S'\x00\x00\x01 '
p1132
tp1133
Rp1134
(lp1135
I570
aI969
aI1608
aI3183
aI3748
aI3917
aI4099
aI4366
aI4413
aI4755
aI5075
aI5602
aI7442
aI7569
aI7712
aI7918
aI8359
aI8395
aI8953
aI9099
aI9984
aI10074
aI10146
aI12818
aI12955
aI12976
aI13382
aI13395
aI16166
aI16471
aI17373
aI18156
aI18540
aI18973
aI19038
aI20378
aI20960
asg1
(g5
S'\x00\x00\x01!'
p1136
tp1137
Rp1138
(lp1139
I289
aI1628
aI2070
aI5757
aI6672
aI8083
aI8755
aI11994
aI15485
aI17955
aI19182
aI20578
asg1
(g5
S'\x00\x00\x01"'
p1140
tp1141
Rp1142
(lp1143
I317
aI1177
aI8441
aI12301
aI17563
aI20573
asg1
(g5
S'\x00\x00\x01#'
p1144
tp1145
Rp1146
(lp1147
I7980
aI15670
asg1
(g5
S'\x00\x00\x01$'
p1148
tp1149
Rp1150
(lp1151
I25
aI892
aI1991
aI2073
aI2768
aI3090
aI4082
aI4511
aI6109
aI6375
aI6532
aI8784
aI9010
aI10612
aI11740
aI11796
aI11838
aI12457
aI12469
aI15204
aI16228
aI16287
aI19063
aI20250
aI20500
asg1
(g5
S'\x00\x00\x01%'
p1152
tp1153
Rp1154
(lp1155
I725
aI3531
aI3878
aI4626
aI6276
aI6861
aI7154
aI7702
aI8368
aI8462
aI8529
aI9444
aI9509
aI9910
aI10771
aI10950
aI11467
aI11848
aI11892
aI11905
aI13657
aI14002
aI14144
aI14743
aI14834
aI15475
aI15498
aI15870
aI16932
aI17031
aI18060
aI18741
aI18789
aI19076
aI19137
aI19774
aI19799
aI19912
aI20008
aI20021
aI20873
aI20955
asg1
(g5
S'\x00\x00\x01&'
p1156
tp1157
Rp1158
(lp1159
I545
aI644
aI731
aI838
aI1205
aI1409
aI1460
aI1759
aI1767
aI2198
aI2844
aI3365
aI3914
aI4314
aI5849
aI6505
aI6663
aI8350
aI8404
aI8492
aI8985
aI9809
aI10741
aI12123
aI12126
aI12346
aI12587
aI14608
aI14888
aI16247
aI16254
aI16342
aI16999
aI17132
aI17133
aI17601
aI17686
aI17863
aI17976
aI18247
aI18333
aI18493
aI18557
aI19349
aI20517
aI20793
aI21046
asg1
(g5
S"\x00\x00\x01'"
p1160
tp1161
Rp1162
(lp1163
I164
aI1033
aI1325
aI2014
aI2113
aI3014
aI3760
aI3762
aI4135
aI4137
aI4805
aI5005
aI5245
aI5854
aI6100
aI6550
aI7367
aI7740
aI8072
aI8209
aI9205
aI9354
aI9401
aI9895
aI10327
aI10375
aI10641
aI11296
aI11527
aI12099
aI12185
aI12930
aI14295
aI14297
aI14363
aI14551
aI16348
aI17046
aI17916
aI18190
aI18677
aI18781
aI19367
aI20215
asg1
(g5
S'\x00\x00\x01('
p1164
tp1165
Rp1166
(lp1167
I2233
aI3504
aI4174
aI4714
aI4827
aI4886
aI5095
aI5870
aI6356
aI7263
aI8332
aI8723
aI9171
aI9345
aI9613
aI9684
aI10544
aI10606
aI11063
aI11250
aI12408
aI12715
aI13442
aI14487
aI15358
aI15939
aI15961
aI16751
aI16859
aI17422
aI17622
aI18808
aI18856
aI20555
aI21009
aI21015
asg1
(g5
S'\x00\x00\x01)'
p1168
tp1169
Rp1170
(lp1171
I39
aI475
aI598
aI3000
aI9786
aI10045
aI13229
aI14400
aI15284
aI17732
aI19588
asg1
(g5
S'\x00\x00\x01*'
p1172
tp1173
Rp1174
(lp1175
I328
aI457
aI504
aI910
aI946
aI1246
aI1446
aI1693
aI2071
aI2336
aI2384
aI2680
aI3389
aI3705
aI3872
aI4387
aI5073
aI5454
aI5657
aI5971
aI6578
aI7193
aI7238
aI8234
aI8505
aI8931
aI9119
aI9148
aI9816
aI10642
aI11479
aI11687
aI12803
aI12807
aI12900
aI13239
aI13861
aI14167
aI15005
aI16649
aI17127
aI17138
aI17595
aI17788
aI18055
aI18185
aI18188
aI19648
aI19907
aI20301
aI20771
asg1
(g5
S'\x00\x00\x01+'
p1176
tp1177
Rp1178
(lp1179
I87
aI1337
aI1431
aI2188
aI2752
aI2865
aI3294
aI3585
aI3865
aI4301
aI4408
aI6942
aI9305
aI10736
aI11043
aI11647
aI12986
aI14092
aI14704
aI14739
aI15021
aI15867
aI16236
aI16595
aI16982
aI17019
aI17919
aI20102
aI20396
asg1
(g5
S'\x00\x00\x01,'
p1180
tp1181
Rp1182
(lp1183
I10
aI669
aI779
aI881
aI970
aI1236
aI1319
aI1358
aI2146
aI2385
aI3290
aI3377
aI3834
aI4200
aI4686
aI4947
aI5094
aI5263
aI5357
aI5647
aI6236
aI6824
aI6927
aI7167
aI7611
aI8115
aI8424
aI8541
aI8926
aI9203
aI9682
aI10053
aI10346
aI10640
aI10650
aI10882
aI11011
aI11210
aI12009
aI12163
aI12237
aI12436
aI12859
aI12883
aI13241
aI14242
aI14824
aI15400
aI15971
aI16067
aI16510
aI18175
aI19281
aI19825
aI20109
aI20196
aI20740
aI20981
asg1
(g5
S'\x00\x00\x01-'
p1184
tp1185
Rp1186
(lp1187
I1441
aI1762
aI2465
aI2723
aI2747
aI2964
aI3632
aI4008
aI5379
aI5436
aI5564
aI5731
aI5743
aI6645
aI6662
aI6807
aI7328
aI7438
aI7783
aI8176
aI8270
aI9837
aI10215
aI12899
aI13161
aI13549
aI14343
aI14920
aI15182
aI15811
aI17634
aI17679
aI18147
aI18433
aI18547
aI20649
aI21090
asg1
(g5
S'\x00\x00\x01.'
p1188
tp1189
Rp1190
(lp1191
I912
aI1076
aI1556
aI2292
aI2729
aI3862
aI3896
aI4028
aI4937
aI5622
aI5648
aI5933
aI7014
aI8703
aI8711
aI9826
aI11676
aI12077
aI12274
aI13186
aI13387
aI13474
aI14257
aI15203
aI15855
aI15965
aI16004
aI16207
aI16272
aI16346
aI17516
aI18498
aI18983
aI20314
aI20983
asg1
(g5
S'\x00\x00\x01/'
p1192
tp1193
Rp1194
(lp1195
I2401
aI3117
aI3586
aI4501
aI9212
aI11037
aI11762
aI13450
aI15847
aI16018
aI17466
aI19451
aI20559
asg1
(g5
S'\x00\x00\x010'
p1196
tp1197
Rp1198
(lp1199
I74
aI109
aI119
aI396
aI763
aI1555
aI2108
aI2245
aI2418
aI2910
aI3157
aI3302
aI4951
aI5229
aI5960
aI7087
aI8911
aI9852
aI11183
aI12330
aI12834
aI13562
aI13924
aI14164
aI14207
aI14214
aI14283
aI14410
aI14412
aI14841
aI15523
aI16938
aI17614
aI18264
aI19012
aI19077
aI19138
aI19514
aI19529
aI20280
aI20972
asg1
(g5
S'\x00\x00\x011'
p1200
tp1201
Rp1202
(lp1203
I976
aI1347
aI2591
aI4574
aI4701
aI5714
aI6495
aI6929
aI9462
aI9770
aI10379
aI10387
aI11107
aI11204
aI11209
aI11253
aI12300
aI12323
aI12464
aI12913
aI14630
aI14957
aI14961
aI15877
aI17471
aI17717
aI17882
aI17900
aI18848
aI19036
asg1
(g5
S'\x00\x00\x012'
p1204
tp1205
Rp1206
(lp1207
I256
aI1342
aI3976
aI4819
aI5579
aI6183
aI6293
aI8064
aI9719
aI9931
aI11427
aI12384
aI13081
aI13087
aI13216
aI13319
aI14435
aI14790
aI15656
aI15713
aI16292
aI16742
aI16972
aI17372
aI17431
aI18312
aI19110
aI19843
aI20534
aI20855
asg1
(g5
S'\x00\x00\x013'
p1208
tp1209
Rp1210
(lp1211
I369
aI1040
aI2114
aI2592
aI2806
aI3075
aI3346
aI3788
aI3916
aI3999
aI4326
aI5038
aI5207
aI5987
aI6201
aI6464
aI6624
aI6679
aI8007
aI8009
aI8066
aI8143
aI8386
aI8543
aI8834
aI9180
aI10147
aI10175
aI10896
aI11305
aI11472
aI11824
aI11825
aI12801
aI13160
aI13164
aI13603
aI13869
aI14043
aI14159
aI14661
aI14992
aI15024
aI15065
aI15468
aI15584
aI16206
aI16448
aI18051
aI20180
asg1
(g5
S'\x00\x00\x014'
p1212
tp1213
Rp1214
(lp1215
I352
aI536
aI1907
aI1982
aI3538
aI3572
aI4376
aI5431
aI5682
aI6484
aI6533
aI6916
aI7408
aI7555
aI7933
aI7988
aI8294
aI8311
aI9887
aI10981
aI12920
aI13069
aI13717
aI14649
aI15181
aI15317
aI15567
aI15690
aI15691
aI15866
aI16453
aI16669
aI16698
aI16940
aI17008
aI17280
aI17825
aI19196
aI19342
aI19585
aI20592
aI20626
aI20760
aI20778
aI20946
asg1
(g5
S'\x00\x00\x015'
p1216
tp1217
Rp1218
(lp1219
I856
aI2915
aI7759
aI10553
aI12483
aI15252
aI15253
aI18249
aI19081
aI20447
asg1
(g5
S'\x00\x00\x016'
p1220
tp1221
Rp1222
(lp1223
I124
aI353
aI554
aI706
aI1365
aI1802
aI1858
aI1926
aI2001
aI2273
aI2717
aI2835
aI3184
aI3300
aI3325
aI4062
aI4170
aI5691
aI5771
aI5829
aI6529
aI7242
aI7812
aI8112
aI9004
aI9663
aI9795
aI10026
aI10274
aI10990
aI11239
aI11671
aI11827
aI11977
aI12371
aI12508
aI12742
aI12868
aI12951
aI13199
aI13892
aI13906
aI13994
aI14393
aI15355
aI15543
aI15592
aI15678
aI18109
aI18780
aI18916
aI19222
aI19543
aI19962
asg1
(g5
S'\x00\x00\x017'
p1224
tp1225
Rp1226
(lp1227
I7061
aI8807
aI10658
aI11858
aI19379
asg1
(g5
S'\x00\x00\x018'
p1228
tp1229
Rp1230
(lp1231
I372
aI1476
aI2060
aI2491
aI2554
aI2760
aI3170
aI3698
aI3953
aI4522
aI4584
aI4778
aI4828
aI5222
aI5632
aI6566
aI6694
aI7652
aI7970
aI8032
aI9386
aI9507
aI9884
aI10218
aI10412
aI11068
aI11429
aI11869
aI11960
aI13420
aI14447
aI14573
aI14688
aI14757
aI14978
aI15118
aI15936
aI15977
aI15984
aI16527
aI16601
aI16778
aI17368
aI17501
aI17709
aI18431
aI18497
aI18884
aI19133
asg1
(g5
S'\x00\x00\x019'
p1232
tp1233
Rp1234
(lp1235
I5
aI173
aI458
aI806
aI908
aI1079
aI1708
aI2687
aI2699
aI2736
aI3020
aI3140
aI3440
aI4446
aI4912
aI5371
aI5802
aI5882
aI6603
aI7999
aI8017
aI8254
aI8319
aI8591
aI9019
aI9149
aI9481
aI9670
aI9785
aI10105
aI10232
aI10539
aI11014
aI11504
aI13271
aI14818
aI15150
aI15385
aI16023
aI16145
aI16326
aI17173
aI17272
aI17674
aI17688
aI17795
aI17896
aI19988
aI20025
aI20247
aI20313
aI20422
aI21091
asg1
(g5
S'\x00\x00\x01:'
p1236
tp1237
Rp1238
(lp1239
I111
aI304
aI1161
aI1422
aI1943
aI2804
aI3545
aI3681
aI4393
aI5108
aI5553
aI5778
aI5818
aI6382
aI6468
aI6715
aI7623
aI8089
aI8162
aI8849
aI9002
aI9077
aI9137
aI10088
aI10358
aI11342
aI12377
aI14011
aI16118
aI16280
aI16738
aI16862
aI17097
aI18826
aI18928
aI19527
asg1
(g5
S'\x00\x00\x01;'
p1240
tp1241
Rp1242
(lp1243
I170
aI537
aI804
aI1032
aI1129
aI1613
aI1678
aI2536
aI2827
aI3481
aI3789
aI3856
aI4252
aI4509
aI4619
aI4706
aI4807
aI5509
aI6781
aI7099
aI7121
aI7930
aI8055
aI8290
aI8476
aI8721
aI10592
aI10863
aI10978
aI11679
aI12131
aI12439
aI12582
aI12876
aI13988
aI14122
aI14604
aI14745
aI15023
aI15158
aI15277
aI17123
aI17287
aI17746
aI17789
aI17928
aI18821
aI18846
aI18883
aI19279
aI19478
aI19506
aI19811
aI20756
asg1
(g5
S'\x00\x00\x01<'
p1244
tp1245
Rp1246
(lp1247
I636
aI986
aI1467
aI3646
aI3998
aI7573
aI8799
aI10334
aI10354
aI13414
aI14299
aI14309
aI14377
aI14379
aI15096
asg1
(g5
S'\x00\x00\x01='
p1248
tp1249
Rp1250
(lp1251
I617
aI1430
aI1855
aI2191
aI5381
aI8722
aI12543
aI13238
aI15057
aI15208
aI15235
aI16636
aI16637
aI17979
aI20303
asg1
(g5
S'\x00\x00\x01>'
p1252
tp1253
Rp1254
(lp1255
I89
aI562
aI1221
aI1782
aI2064
aI2081
aI2088
aI2282
aI2285
aI3822
aI4179
aI4293
aI4658
aI5692
aI6318
aI7224
aI8227
aI10094
aI10108
aI10298
aI10304
aI10477
aI10494
aI12660
aI12776
aI12792
aI13380
aI13693
aI13762
aI14806
aI15318
aI15687
aI15960
aI16219
aI16797
aI18368
aI19493
aI19875
aI20090
aI20191
aI20489
asg1
(g5
S'\x00\x00\x01?'
p1256
tp1257
Rp1258
(lp1259
I518
aI1634
aI1682
aI1988
aI2343
aI3126
aI3322
aI3648
aI3887
aI4346
aI5218
aI6339
aI6491
aI7331
aI7565
aI8600
aI9173
aI9668
aI9751
aI10042
aI10154
aI10556
aI10711
aI11256
aI11803
aI12754
aI12763
aI13663
aI14421
aI14552
aI14980
aI15590
aI15933
aI16009
aI16302
aI16672
aI18351
aI18358
aI18511
aI18568
aI18956
aI19458
aI20434
aI20436
asg1
(g5
S'\x00\x00\x01@'
p1260
tp1261
Rp1262
(lp1263
I287
aI383
aI1704
aI3219
aI5304
aI5885
aI6234
aI6669
aI6700
aI6784
aI7341
aI7773
aI8006
aI8536
aI8597
aI9013
aI10509
aI10678
aI11405
aI12188
aI12643
aI12984
aI13117
aI13785
aI16788
aI16885
aI17415
aI17831
aI18131
aI18552
aI19136
aI19993
asg1
(g5
S'\x00\x00\x01A'
p1264
tp1265
Rp1266
(lp1267
I82
aI2873
aI4123
aI4330
aI4371
aI5090
aI9110
aI11326
aI13674
aI16912
aI20039
aI20961
asg1
(g5
S'\x00\x00\x01B'
p1268
tp1269
Rp1270
(lp1271
I971
aI992
aI1237
aI1356
aI1851
aI2809
aI3783
aI4405
aI5063
aI5200
aI7273
aI8779
aI9789
aI10008
aI11128
aI11277
aI11349
aI11688
aI14935
aI15099
aI15975
aI16890
aI18592
aI18975
aI19062
aI19166
aI20083
aI20240
asg1
(g5
S'\x00\x00\x01C'
p1272
tp1273
Rp1274
(lp1275
I36
aI1197
aI1339
aI1520
aI1967
aI2268
aI2563
aI2569
aI2916
aI3010
aI3200
aI3352
aI3627
aI3726
aI4286
aI4355
aI4459
aI4564
aI4834
aI4898
aI5830
aI6509
aI6596
aI6811
aI7114
aI7131
aI7161
aI8141
aI8596
aI9018
aI9143
aI9390
aI9403
aI9486
aI9796
aI11458
aI11461
aI11474
aI11500
aI11503
aI11546
aI11992
aI12114
aI12226
aI12263
aI12287
aI12616
aI12644
aI12775
aI12858
aI13015
aI13485
aI13817
aI13896
aI13905
aI13909
aI14058
aI14855
aI14902
aI14946
aI15340
aI15559
aI15692
aI15909
aI15967
aI16021
aI16065
aI16216
aI16338
aI16644
aI17631
aI17680
aI18158
aI18345
aI18350
aI18491
aI19411
aI19682
aI20214
aI20763
asg1
(g5
S'\x00\x00\x01D'
p1276
tp1277
Rp1278
(lp1279
I414
aI2620
aI2676
aI2826
aI3554
aI7213
aI8785
aI11437
aI11451
aI12212
aI12378
aI12452
aI13404
aI13811
aI13882
aI14271
aI15389
aI15570
aI16603
aI18478
aI19677
aI20448
asg1
(g5
S'\x00\x00\x01E'
p1280
tp1281
Rp1282
(lp1283
I3930
aI6535
aI7793
aI13163
aI14061
aI16523
aI16726
asg1
(g5
S'\x00\x00\x01F'
p1284
tp1285
Rp1286
(lp1287
I4529
aI6072
aI7572
aI9638
aI10272
aI10425
aI10904
aI10917
aI11648
aI11875
aI17068
aI17193
aI19852
aI20347
asg1
(g5
S'\x00\x00\x01G'
p1288
tp1289
Rp1290
(lp1291
I11668
asg1
(g5
S'\x00\x00\x01H'
p1292
tp1293
Rp1294
(lp1295
I2132
aI2376
aI2706
aI3259
aI5483
aI5541
aI6971
aI11588
aI11732
aI12435
aI13375
aI13472
aI13596
aI14650
aI16192
aI16591
aI16948
aI18678
aI19143
aI20491
aI20650
asg1
(g5
S'\x00\x00\x01I'
p1296
tp1297
Rp1298
(lp1299
I430
aI2058
aI2415
aI2428
aI3079
aI3441
aI3867
aI4225
aI9267
aI10550
aI10819
aI10879
aI11867
aI11906
aI12547
aI12878
aI12919
aI13545
aI14712
aI15194
aI16269
aI16671
aI17761
aI18218
aI18297
aI18782
aI19339
aI19782
aI20134
aI20455
aI21031
asg1
(g5
S'\x00\x00\x01J'
p1300
tp1301
Rp1302
(lp1303
I743
aI974
aI2100
aI4633
aI5264
aI5528
aI6260
aI7276
aI7421
aI7433
aI8568
aI8792
aI9402
aI9404
aI11625
aI11999
aI14772
aI15192
aI15321
aI15828
aI16568
aI19386
aI19944
aI20506
asg1
(g5
S'\x00\x00\x01K'
p1304
tp1305
Rp1306
(lp1307
I392
aI468
aI1927
aI2461
aI2740
aI3225
aI3227
aI3645
aI4357
aI4513
aI5430
aI5538
aI5545
aI5807
aI6041
aI6703
aI7265
aI7371
aI7436
aI7462
aI8812
aI9414
aI9456
aI9568
aI10749
aI11123
aI11343
aI11488
aI11699
aI12569
aI12825
aI12911
aI13070
aI13949
aI14008
aI14398
aI14644
aI15250
aI15376
aI15703
aI16485
aI16563
aI16780
aI17015
aI17214
aI17381
aI17984
aI19624
aI19911
aI20340
aI20958
asg1
(g5
S'\x00\x00\x01L'
p1308
tp1309
Rp1310
(lp1311
I482
aI603
aI784
aI891
aI1108
aI2579
aI2882
aI3792
aI3823
aI4171
aI5157
aI5440
aI5738
aI5834
aI5976
aI8518
aI8717
aI9730
aI10355
aI11069
aI11205
aI11434
aI11883
aI12717
aI12762
aI13781
aI13880
aI14104
aI14746
aI15254
aI16184
aI16299
aI16440
aI16852
aI17871
aI18787
aI19114
aI19418
aI19509
aI19612
aI19616
aI19805
aI20504
asg1
(g5
S'\x00\x00\x01M'
p1312
tp1313
Rp1314
(lp1315
I154
aI193
aI397
aI1479
aI1837
aI3820
aI6226
aI7053
aI7372
aI7939
aI8039
aI8414
aI9158
aI9828
aI10559
aI12254
aI12686
aI17499
aI18003
aI18828
aI19322
aI19674
aI20062
asg1
(g5
S'\x00\x00\x01N'
p1316
tp1317
Rp1318
(lp1319
I389
aI758
aI1253
aI1749
aI1862
aI3950
aI5557
aI6089
aI6264
aI6633
aI6992
aI7047
aI7705
aI8125
aI9744
aI10869
aI11853
aI12233
aI12349
aI12620
aI12761
aI13451
aI13667
aI13866
aI13868
aI13900
aI13922
aI14162
aI15501
aI17330
aI17573
aI17669
aI18052
aI18213
aI18740
aI20530
aI20566
aI20635
asg1
(g5
S'\x00\x00\x01O'
p1320
tp1321
Rp1322
(lp1323
I477
aI1473
aI2118
aI2344
aI2374
aI3233
aI3255
aI4400
aI5859
aI6195
aI6620
aI6797
aI6853
aI7303
aI7455
aI7586
aI7658
aI8495
aI9399
aI9841
aI9985
aI12704
aI13409
aI14227
aI14320
aI14471
aI15407
aI16845
aI17393
aI17772
aI18103
aI18723
aI19175
aI19704
aI20098
aI20389
asg1
(g5
S'\x00\x00\x01P'
p1324
tp1325
Rp1326
(lp1327
I867
aI955
aI978
aI1050
aI3366
aI4967
aI5092
aI6142
aI6588
aI6769
aI7073
aI7153
aI8160
aI9199
aI9241
aI10712
aI11271
aI11345
aI11653
aI12364
aI12455
aI13038
aI14075
aI14759
aI14814
aI14962
aI15015
aI15151
aI15422
aI16026
aI16046
aI16106
aI16474
aI16872
aI17576
aI17743
aI17760
aI18011
aI18388
aI19290
aI19505
aI20150
aI20481
aI20568
aI21068
asg1
(g5
S'\x00\x00\x01Q'
p1328
tp1329
Rp1330
(lp1331
I322
aI1203
aI1592
aI4054
aI4392
aI4443
aI4855
aI4914
aI5134
aI6006
aI6388
aI6864
aI6922
aI7638
aI7710
aI7751
aI7995
aI8941
aI9455
aI9643
aI9718
aI9768
aI10481
aI11228
aI11389
aI11541
aI11708
aI11859
aI12650
aI13368
aI13611
aI14671
aI14687
aI14949
aI15467
aI15625
aI15788
aI16305
aI16316
aI16546
aI16599
aI17472
aI17486
aI18748
aI18886
aI19445
aI19765
aI19776
aI19829
aI21085
asg1
(g5
S'\x00\x00\x01R'
p1332
tp1333
Rp1334
(lp1335
I5295
aI7499
aI7662
aI10349
aI10755
aI12958
aI13452
aI14499
aI14575
aI18436
asg1
(g5
S'\x00\x00\x01S'
p1336
tp1337
Rp1338
(lp1339
I673
aI1713
aI1797
aI1987
aI2143
aI2372
aI3035
aI3222
aI4566
aI4864
aI5257
aI6352
aI7065
aI7507
aI8542
aI8982
aI9169
aI9280
aI9538
aI10488
aI10722
aI10802
aI10939
aI11681
aI12033
aI12413
aI12808
aI12895
aI13493
aI13967
aI14136
aI14181
aI15611
aI15953
aI16109
aI16322
aI16539
aI16674
aI17263
aI18537
aI19073
asg1
(g5
S'\x00\x00\x01T'
p1340
tp1341
Rp1342
(lp1343
I675
aI772
aI1202
aI1374
aI1892
aI2316
aI2875
aI3084
aI4825
aI5070
aI5248
aI5291
aI5311
aI5672
aI5762
aI7227
aI7295
aI7381
aI8098
aI8149
aI8920
aI9189
aI9573
aI9711
aI9921
aI10179
aI10491
aI11607
aI11933
aI12205
aI13031
aI13313
aI13820
aI14231
aI14280
aI14991
aI15349
aI15469
aI15649
aI16017
aI16103
aI17625
aI17662
aI17665
aI17699
aI18417
aI18802
aI18852
aI18876
aI19191
aI19541
aI19660
aI19664
aI19754
aI19835
aI20084
aI20683
aI20858
aI20995
aI21055
asg1
(g5
S'\x00\x00\x01U'
p1344
tp1345
Rp1346
(lp1347
I15
aI53
aI931
aI1007
aI1072
aI1355
aI1406
aI1815
aI1880
aI1891
aI2917
aI3045
aI3392
aI3613
aI3686
aI3691
aI4043
aI4504
aI4669
aI4697
aI4878
aI5018
aI5125
aI5174
aI6387
aI6455
aI6461
aI6604
aI7521
aI11110
aI11249
aI11515
aI11599
aI12942
aI13145
aI13782
aI14050
aI15064
aI15507
aI15998
aI16339
aI16498
aI16874
aI17339
aI17574
aI18085
aI18192
aI19160
aI19378
aI19631
aI19859
aI20265
aI20305
aI20360
aI21027
asg1
(g5
S'\x00\x00\x01V'
p1348
tp1349
Rp1350
(lp1351
I1018
aI1160
aI1386
aI1639
aI1718
aI1790
aI3471
aI3814
aI4441
aI4535
aI4887
aI6489
aI6719
aI6972
aI7011
aI7080
aI7752
aI8571
aI8804
aI9006
aI9115
aI9201
aI9693
aI9804
aI10510
aI11133
aI11386
aI11819
aI11877
aI12227
aI12540
aI12853
aI13002
aI14124
aI14554
aI15347
aI15627
aI15661
aI16233
aI16516
aI17178
aI17448
aI17767
aI18090
aI18324
aI18892
aI19365
aI20437
aI20525
aI20542
asg1
(g5
S'\x00\x00\x01W'
p1352
tp1353
Rp1354
(lp1355
I1980
aI2547
aI3347
aI5970
aI5975
aI6546
aI7215
aI7347
aI7768
aI8400
aI9465
aI11077
aI13396
aI13870
aI15205
aI16395
aI17118
aI17703
aI17808
aI18013
aI18225
asg1
(g5
S'\x00\x00\x01X'
p1356
tp1357
Rp1358
(lp1359
I424
aI511
aI668
aI2581
aI2659
aI2950
aI2963
aI4763
aI7254
aI7723
aI8674
aI8697
aI9072
aI9978
aI10760
aI11495
aI12035
aI12638
aI14609
aI15564
aI16729
aI17370
aI19194
aI19544
aI20074
asg1
(g5
S'\x00\x00\x01Y'
p1360
tp1361
Rp1362
(lp1363
I4656
aI6860
aI10038
asg1
(g5
S'\x00\x00\x01Z'
p1364
tp1365
Rp1366
(lp1367
I37
aI155
aI535
aI2254
aI3743
aI3860
aI4218
aI4536
aI4775
aI4907
aI5098
aI5204
aI5301
aI5716
aI6366
aI6579
aI6739
aI7083
aI8919
aI9133
aI9213
aI9647
aI9871
aI10004
aI10220
aI10233
aI10433
aI10945
aI11338
aI11531
aI11543
aI12548
aI12901
aI13010
aI13243
aI13541
aI14094
aI15039
aI15587
aI16020
aI16340
aI16776
aI17868
aI18105
aI18370
aI19106
aI19395
aI19693
aI20016
aI20162
aI20784
asg1
(g5
S'\x00\x00\x01['
p1368
tp1369
Rp1370
(lp1371
I11
aI3371
aI4879
aI6058
aI6681
aI7126
aI7388
aI9586
aI10801
aI11948
aI13640
aI14328
aI14411
aI14560
aI14816
aI16083
aI16405
aI17410
aI17434
aI17855
aI18833
aI19242
aI19918
aI20278
asg1
(g5
S'\x00\x00\x01\\'
p1372
tp1373
Rp1374
(lp1375
I693
aI1209
aI1867
aI2170
aI2673
aI2821
aI7745
aI7767
aI9450
aI9633
aI9892
aI13816
aI14142
aI15115
aI15353
aI15723
aI15846
aI17259
aI17782
aI19107
aI19657
aI20246
asg1
(g5
S'\x00\x00\x01]'
p1376
tp1377
Rp1378
(lp1379
I927
aI1468
aI2098
aI3909
aI4145
aI5527
aI5656
aI6008
aI6134
aI7068
aI8895
aI10059
aI10786
aI11765
aI11943
aI14322
aI14829
aI15188
aI15479
aI15859
aI15913
aI16090
aI16500
aI16561
aI16819
aI17061
aI17164
aI17436
aI19659
aI19972
aI20368
aI20615
aI20986
asg1
(g5
S'\x00\x00\x01^'
p1380
tp1381
Rp1382
(lp1383
I696
aI1087
aI1235
aI1700
aI2043
aI2128
aI2720
aI2854
aI3158
aI4065
aI4698
aI4987
aI6467
aI7904
aI8399
aI8486
aI10673
aI11042
aI11166
aI11388
aI12054
aI12139
aI13000
aI13102
aI13167
aI13283
aI14332
aI14464
aI14690
aI15955
aI17418
aI17559
aI17615
aI17629
aI17641
aI17776
aI18086
aI18430
aI19202
aI19560
aI19680
aI19728
aI20393
aI20613
asg1
(g5
S'\x00\x00\x01_'
p1384
tp1385
Rp1386
(lp1387
I171
aI207
aI677
aI757
aI4178
aI4857
aI5176
aI5662
aI5783
aI8088
aI8592
aI9780
aI11638
aI11832
aI11834
aI12860
aI13138
aI13587
aI13839
aI14425
aI14534
aI14635
aI14930
aI15221
aI15364
aI15676
aI16140
aI16278
aI16668
aI16941
aI17145
aI17168
aI17444
aI17487
aI17734
aI18563
aI18698
aI18795
aI20338
asg1
(g5
S'\x00\x00\x01`'
p1388
tp1389
Rp1390
(lp1391
I563
aI755
aI1390
aI1554
aI1644
aI1828
aI5249
aI5484
aI6840
aI7257
aI7480
aI8052
aI8355
aI8379
aI8715
aI10168
aI10404
aI12169
aI12317
aI12350
aI13165
aI14052
aI14143
aI14304
aI14809
aI16556
aI17638
aI18583
aI18627
aI19044
aI19510
aI19540
aI20140
aI20169
aI20664
aI20854
aI20857
asg1
(g5
S'\x00\x00\x01a'
p1392
tp1393
Rp1394
(lp1395
I449
aI1080
aI3644
aI3850
aI4169
aI4217
aI5801
aI6680
aI7072
aI9392
aI11236
aI14799
aI14997
aI17327
aI17424
aI18135
aI19803
aI20836
aI20886
aI21001
aI21030
asg1
(g5
S'\x00\x00\x01b'
p1396
tp1397
Rp1398
(lp1399
I308
aI498
aI655
aI737
aI1777
aI3279
aI3774
aI5213
aI6711
aI6782
aI7718
aI7864
aI9277
aI10112
aI10792
aI11059
aI11662
aI13213
aI13328
aI13706
aI14097
aI14145
aI14281
aI14442
aI15758
aI16682
aI17765
aI17990
aI18002
aI18107
aI18120
aI18759
aI18857
aI19434
aI19795
aI20067
asg1
(g5
S'\x00\x00\x01c'
p1400
tp1401
Rp1402
(lp1403
I278
aI357
aI1049
aI1155
aI2559
aI2847
aI3190
aI3815
aI3947
aI4321
aI5332
aI5815
aI5850
aI6654
aI7148
aI7744
aI7779
aI8182
aI8873
aI10244
aI11359
aI11367
aI11722
aI11778
aI12004
aI12514
aI12760
aI13024
aI13050
aI13628
aI14871
aI14965
aI15020
aI15241
aI16085
aI16441
aI16557
aI16724
aI16789
aI16808
aI16918
aI17317
aI17710
aI18070
aI18962
aI19153
aI19185
aI20582
aI20612
aI20644
aI20917
aI20918
asg1
(g5
S'\x00\x00\x01d'
p1404
tp1405
Rp1406
(lp1407
I281
aI512
aI815
aI1035
aI1331
aI1650
aI2358
aI3333
aI3576
aI4412
aI4426
aI4442
aI5049
aI5096
aI5789
aI5973
aI6457
aI6838
aI7101
aI7290
aI7872
aI8153
aI8634
aI8772
aI8831
aI9525
aI9737
aI10014
aI10178
aI11317
aI11608
aI12125
aI12275
aI12382
aI12685
aI12694
aI13482
aI13703
aI13917
aI14086
aI14204
aI14501
aI14627
aI14668
aI14942
aI15551
aI15896
aI16398
aI16438
aI16506
aI16720
aI17449
aI18638
aI19115
aI20429
aI20483
aI20519
aI20769
asg1
(g5
S'\x00\x00\x01e'
p1408
tp1409
Rp1410
(lp1411
I4803
aI7693
aI11578
aI18010
aI20669
asg1
(g5
S'\x00\x00\x01f'
p1412
tp1413
Rp1414
(lp1415
I115
aI363
aI1233
aI2867
aI3119
aI5668
aI6482
aI8435
aI8663
aI8726
aI9888
aI10068
aI10084
aI10224
aI10558
aI11313
aI12670
aI12902
aI13281
aI13553
aI13555
aI15360
aI15931
aI16364
aI16554
aI18875
aI19215
aI19346
aI19381
aI19484
aI20502
aI20787
aI20842
asg1
(g5
S'\x00\x00\x01g'
p1416
tp1417
Rp1418
(lp1419
I81
aI541
aI657
aI1057
aI1210
aI1670
aI2033
aI4175
aI4189
aI4373
aI5772
aI6205
aI6648
aI7100
aI7348
aI7444
aI8106
aI8676
aI8698
aI9111
aI9126
aI9342
aI9590
aI9701
aI10113
aI10964
aI11136
aI12090
aI13348
aI13913
aI13927
aI14121
aI14624
aI14722
aI15035
aI15643
aI15954
aI16450
aI16880
aI16891
aI17931
aI19635
aI20089
aI20155
aI20501
aI20595
aI20600
asg1
(g5
S'\x00\x00\x01h'
p1420
tp1421
Rp1422
(lp1423
I1004
aI1051
aI1132
aI1163
aI3328
aI3536
aI4842
aI5384
aI9424
aI9702
aI12043
aI13356
aI14645
aI15207
aI15596
aI16051
aI17848
aI18016
aI18186
asg1
(g5
S'\x00\x00\x01i'
p1424
tp1425
Rp1426
(lp1427
I375
aI1385
aI2400
aI2859
aI3179
aI4016
aI6111
aI6905
aI7010
aI7495
aI8013
aI8918
aI8962
aI9050
aI9064
aI9253
aI9393
aI9974
aI10145
aI10295
aI10768
aI11081
aI11490
aI12010
aI12562
aI13279
aI15173
aI15391
aI15405
aI15844
aI16006
aI16534
aI17288
aI17291
aI17843
aI18053
aI18075
aI18111
aI18987
aI19050
aI19353
aI20696
asg1
(g5
S'\x00\x00\x01j'
p1428
tp1429
Rp1430
(lp1431
I300
aI334
aI1291
aI1404
aI2368
aI2824
aI3267
aI3488
aI3492
aI3500
aI3563
aI3770
aI4363
aI4868
aI5529
aI6400
aI6492
aI6936
aI8398
aI8606
aI8646
aI8946
aI9866
aI9899
aI9975
aI10348
aI10364
aI10447
aI11637
aI11737
aI12273
aI12907
aI13802
aI13990
aI14071
aI14091
aI15268
aI16010
aI17098
aI17249
aI17671
aI17866
aI18211
aI19229
aI20426
aI20546
aI20567
asg1
(g5
S'\x00\x00\x01k'
p1432
tp1433
Rp1434
(lp1435
I360
aI820
aI2096
aI2497
aI2534
aI3484
aI3699
aI3840
aI4037
aI4110
aI4621
aI4729
aI4991
aI5083
aI5240
aI5488
aI5606
aI6028
aI6857
aI7240
aI7556
aI7796
aI8463
aI8504
aI8765
aI9056
aI11702
aI11703
aI11817
aI12390
aI14120
aI14787
aI15339
aI16768
aI17494
aI17613
aI18342
aI18346
aI18459
aI18958
aI19769
aI19837
asg1
(g5
S'\x00\x00\x01l'
p1436
tp1437
Rp1438
(lp1439
I1909
aI4663
aI8367
aI10407
aI11539
aI16469
asg1
(g5
S'\x00\x00\x01m'
p1440
tp1441
Rp1442
(lp1443
I379
aI461
aI906
aI1022
aI1247
aI1269
aI1427
aI1951
aI2309
aI2553
aI3030
aI3121
aI3635
aI4682
aI5354
aI5981
aI5982
aI6135
aI6354
aI6691
aI6791
aI7190
aI7430
aI7633
aI7636
aI8092
aI8233
aI8521
aI8932
aI9156
aI9279
aI10212
aI10588
aI11634
aI12954
aI13513
aI13624
aI14354
aI14562
aI14618
aI15752
aI16472
aI16511
aI16632
aI16984
aI17351
aI17857
aI18136
aI18237
aI18283
aI19954
aI20020
aI20401
aI20802
aI21084
asg1
(g5
S'\x00\x00\x01n'
p1444
tp1445
Rp1446
(lp1447
I95
aI678
aI720
aI1605
aI2013
aI3752
aI4300
aI4544
aI4779
aI5851
aI6158
aI6787
aI6986
aI7991
aI8025
aI9851
aI10127
aI11344
aI11583
aI11601
aI12174
aI12641
aI15179
aI15331
aI15942
aI18020
aI18574
aI19522
aI20171
aI20279
asg1
(g5
S'\x00\x00\x01o'
p1448
tp1449
Rp1450
(lp1451
I4
aI179
aI982
aI985
aI2046
aI2380
aI2420
aI2748
aI2852
aI3004
aI3281
aI3339
aI3593
aI3939
aI4073
aI4603
aI4722
aI5388
aI6209
aI6542
aI6564
aI6874
aI7877
aI8060
aI8087
aI8898
aI9030
aI9055
aI9528
aI9614
aI10552
aI11082
aI11562
aI12319
aI14698
aI15123
aI15145
aI15512
aI15547
aI15891
aI16623
aI17408
aI18386
aI18621
aI19341
aI19404
aI19896
aI19943
aI20402
aI20444
aI20838
aI20893
aI21083
asg1
(g5
S'\x00\x00\x01p'
p1452
tp1453
Rp1454
(lp1455
I223
aI344
aI356
aI486
aI1362
aI1860
aI1996
aI2097
aI2211
aI3261
aI3526
aI3837
aI4557
aI5037
aI5064
aI5153
aI5305
aI6137
aI6462
aI6517
aI6689
aI7849
aI7858
aI7873
aI7887
aI8877
aI9377
aI10767
aI10878
aI11545
aI11549
aI12183
aI12602
aI12679
aI12713
aI12916
aI13831
aI14173
aI14278
aI14360
aI14853
aI16576
aI16857
aI17357
aI18116
aI18942
aI19218
aI19234
aI20081
asg1
(g5
S'\x00\x00\x01q'
p1456
tp1457
Rp1458
(lp1459
I582
aI1604
aI1730
aI2217
aI2467
aI3512
aI4134
aI4608
aI4700
aI5172
aI6002
aI6294
aI8389
aI8461
aI9087
aI9726
aI9800
aI9845
aI10353
aI10526
aI11285
aI11369
aI12756
aI13185
aI13633
aI14770
aI14778
aI15082
aI15541
aI15976
aI18235
aI18239
aI19135
aI19623
aI19845
aI20315
aI20473
asg1
(g5
S'\x00\x00\x01r'
p1460
tp1461
Rp1462
(lp1463
I96
aI765
aI810
aI2356
aI2455
aI2929
aI4298
aI8091
aI9357
aI9416
aI9578
aI10533
aI10821
aI10895
aI13260
aI14771
aI16921
aI17929
aI18110
aI18243
aI18902
aI19040
asg1
(g5
S'\x00\x00\x01s'
p1464
tp1465
Rp1466
(lp1467
I153
aI1135
aI3768
aI4789
aI4821
aI5986
aI6023
aI6331
aI6449
aI6830
aI7403
aI7889
aI8432
aI8835
aI9788
aI10852
aI10992
aI11927
aI11946
aI11998
aI12147
aI12651
aI12671
aI14000
aI14454
aI14910
aI15852
aI15937
aI16271
aI16386
aI17265
aI17367
aI18216
aI18584
aI18701
aI18712
aI18818
aI19247
asg1
(g5
S'\x00\x00\x01t'
p1468
tp1469
Rp1470
(lp1471
I46
aI55
aI1268
aI3036
aI3662
aI4733
aI5201
aI5554
aI9679
aI9831
aI10968
aI11108
aI12253
aI14436
aI14486
aI15007
aI15081
aI16756
aI16871
aI17992
aI18685
aI18838
aI18878
aI18989
aI19994
aI20331
aI20386
asg1
(g5
S'\x00\x00\x01u'
p1472
tp1473
Rp1474
(lp1475
I2331
aI4986
aI8687
aI10376
aI11560
aI11675
aI13053
aI13144
aI16942
aI19170
asg1
(g5
S'\x00\x00\x01v'
p1476
tp1477
Rp1478
(lp1479
I1095
aI4033
aI6789
aI6829
aI8313
aI8341
aI8871
aI10258
aI13929
aI14351
aI14438
aI14603
aI16466
aI17142
aI19054
aI19546
aI20387
aI20544
aI20754
aI21057
asg1
(g5
S'\x00\x00\x01w'
p1480
tp1481
Rp1482
(lp1483
I200
aI366
aI581
aI1470
aI2017
aI3195
aI3460
aI3735
aI3858
aI5001
aI5580
aI5814
aI6178
aI6353
aI7805
aI9076
aI9749
aI9755
aI9838
aI10352
aI10793
aI11455
aI11573
aI12657
aI12751
aI13269
aI13740
aI13894
aI14641
aI14760
aI15808
aI16039
aI16128
aI16335
aI16365
aI17033
aI17083
aI17325
aI17396
aI17521
aI17899
aI18154
aI18171
aI18686
aI19997
aI20266
aI20896
asg1
(g5
S'\x00\x00\x01x'
p1484
tp1485
Rp1486
(lp1487
I775
aI2264
aI5514
aI13468
aI15747
aI18248
aI19819
asg1
(g5
S'\x00\x00\x01y'
p1488
tp1489
Rp1490
(lp1491
I112
aI123
aI216
aI727
aI1533
aI1768
aI2230
aI3102
aI4015
aI4335
aI5107
aI5425
aI5600
aI5890
aI5942
aI6214
aI6729
aI7235
aI7525
aI7733
aI7856
aI9334
aI9368
aI9771
aI10174
aI10249
aI10383
aI10578
aI11323
aI11466
aI12490
aI13554
aI13889
aI14040
aI14157
aI14598
aI14689
aI15161
aI15718
aI16455
aI17125
aI17648
aI17853
aI17950
aI18843
aI19207
aI19639
aI19763
aI20321
asg1
(g5
S'\x00\x00\x01z'
p1492
tp1493
Rp1494
(lp1495
I91
aI146
aI576
aI834
aI922
aI1206
aI1496
aI2318
aI2429
aI3445
aI3643
aI3959
aI4640
aI5702
aI5833
aI6071
aI6160
aI6328
aI6586
aI6595
aI7085
aI7135
aI7880
aI8056
aI8094
aI8370
aI9082
aI9104
aI9302
aI9973
aI9999
aI10110
aI10255
aI10620
aI10842
aI10934
aI11040
aI11552
aI11628
aI12298
aI12367
aI12396
aI13056
aI13068
aI13481
aI13665
aI13852
aI13888
aI14103
aI14535
aI14696
aI14837
aI15071
aI15095
aI15218
aI15287
aI15348
aI15817
aI15854
aI16008
aI16257
aI16492
aI16624
aI17152
aI18831
aI19423
aI19552
aI19650
aI19676
aI19806
aI19973
aI20121
aI20139
aI20395
aI20465
asg1
(g5
S'\x00\x00\x01{'
p1496
tp1497
Rp1498
(lp1499
I613
aI1024
aI2057
aI2225
aI4738
aI5415
aI7173
aI8175
aI8260
aI8688
aI8760
aI8762
aI12019
aI12196
aI12767
aI13341
aI13607
aI13696
aI15731
aI15734
aI17369
aI17403
aI17495
asg1
(g5
S'\x00\x00\x01|'
p1500
tp1501
Rp1502
(lp1503
I2728
aI9067
aI16480
aI17020
aI18321
asg1
(g5
S'\x00\x00\x01}'
p1504
tp1505
Rp1506
(lp1507
I72
aI214
aI1478
aI1515
aI1575
aI2235
aI2304
aI2416
aI3172
aI4242
aI4383
aI4494
aI5179
aI5493
aI5977
aI5990
aI6210
aI6436
aI6945
aI7596
aI7711
aI8680
aI8783
aI8838
aI10899
aI11191
aI11331
aI11891
aI12846
aI13277
aI13789
aI13864
aI14511
aI14695
aI16258
aI16629
aI16989
aI16998
aI17730
aI17775
aI18036
aI18274
aI18713
aI19025
aI19131
aI19198
aI20679
aI20818
aI21060
asg1
(g5
S'\x00\x00\x01~'
p1508
tp1509
Rp1510
(lp1511
I588
aI12071
aI12734
aI14381
aI15216
aI16238
aI18309
aI19431
aI19452
asg1
(g5
S'\x00\x00\x01\x7f'
p1512
tp1513
Rp1514
(lp1515
I6373
aI7180
aI11259
aI11448
aI17192
aI19075
asg1
(g5
S'\x00\x00\x01\x80'
p1516
tp1517
Rp1518
(lp1519
I118
aI163
aI1603
aI1875
aI3416
aI3701
aI3827
aI3897
aI4949
aI5374
aI8633
aI11031
aI12952
aI14751
aI15655
aI16181
aI16224
aI16777
aI17607
asg1
(g5
S'\x00\x00\x01\x81'
p1520
tp1521
Rp1522
(lp1523
I923
aI3640
aI4211
aI4872
aI5494
aI5964
aI7134
aI8750
aI10096
aI10347
aI10410
aI10672
aI15940
aI16981
aI17010
aI20100
aI20346
asg1
(g5
S'\x00\x00\x01\x82'
p1524
tp1525
Rp1526
(lp1527
I797
aI1637
aI1974
aI2138
aI2366
aI2433
aI2634
aI4022
aI4394
aI4397
aI4725
aI5838
aI5896
aI6045
aI8004
aI8677
aI8707
aI9323
aI9346
aI10292
aI10344
aI10593
aI10596
aI10752
aI10761
aI11572
aI11610
aI11684
aI12129
aI12503
aI12732
aI14653
aI14718
aI14732
aI14911
aI15444
aI15612
aI18118
aI18530
aI18607
aI19935
asg1
(g5
S'\x00\x00\x01\x83'
p1528
tp1529
Rp1530
(lp1531
I2326
aI5642
aI6498
aI10389
aI16137
aI16781
aI20929
asg1
(g5
S'\x00\x00\x01\x84'
p1532
tp1533
Rp1534
(lp1535
I1030
aI5071
aI9135
asg1
(g5
S'\x00\x00\x01\x85'
p1536
tp1537
Rp1538
(lp1539
I17642
aI19900
asg1
(g5
S'\x00\x00\x01\x86'
p1540
tp1541
Rp1542
(lp1543
I385
aI942
aI1502
aI2425
aI2861
aI2962
aI3007
aI3135
aI3253
aI3254
aI3330
aI3529
aI3610
aI4384
aI4726
aI5113
aI6069
aI6423
aI6594
aI7123
aI7234
aI7337
aI7938
aI8103
aI8237
aI9270
aI9361
aI9409
aI10817
aI11061
aI11529
aI11763
aI11890
aI11995
aI12215
aI12282
aI12802
aI12884
aI13191
aI13858
aI14003
aI14721
aI14780
aI15047
aI15299
aI16034
aI16072
aI16094
aI16303
aI16613
aI17704
aI17993
aI18711
aI18729
aI18736
aI18908
aI19370
aI19661
aI20188
aI20643
aI20666
asg1
(g5
S'\x00\x00\x01\x87'
p1544
tp1545
Rp1546
(lp1547
I800
aI1506
aI1871
aI2148
aI2499
aI2991
aI3736
aI3997
aI4121
aI4267
aI4472
aI4808
aI5192
aI5496
aI5663
aI7003
aI7418
aI7483
aI7541
aI7844
aI8014
aI9500
aI10046
aI10406
aI10845
aI10932
aI10985
aI11454
aI11673
aI12148
aI12299
aI12630
aI13041
aI13843
aI14303
aI14587
aI14983
aI16442
aI16800
aI17275
aI17632
aI18599
aI18714
aI19547
aI19559
aI19566
aI19727
aI19792
aI19877
aI20616
asg1
(g5
S'\x00\x00\x01\x88'
p1548
tp1549
Rp1550
(lp1551
I2283
aI5046
aI6049
aI7287
aI9070
aI9485
aI12316
aI12757
aI14290
aI14995
aI16025
aI16517
aI17484
aI18373
aI20326
asg1
(g5
S'\x00\x00\x01\x89'
p1552
tp1553
Rp1554
(lp1555
I15352
asg1
(g5
S'\x00\x00\x01\x8a'
p1556
tp1557
Rp1558
(lp1559
I3
aI403
aI523
aI2207
aI2837
aI3707
aI3902
aI5140
aI5427
aI5868
aI5906
aI5984
aI7346
aI7635
aI7960
aI8185
aI8616
aI9103
aI9794
aI10748
aI11144
aI11264
aI11818
aI11899
aI12115
aI12936
aI17140
aI18012
aI18555
aI18944
aI19064
aI19456
aI20238
aI20439
aI20796
aI20962
aI21004
asg1
(g5
S'\x00\x00\x01\x8b'
p1560
tp1561
Rp1562
(lp1563
I59
aI816
aI1170
aI2389
aI2487
aI2625
aI4305
aI4307
aI6091
aI6216
aI6615
aI6749
aI6920
aI7138
aI7305
aI7394
aI9043
aI9084
aI9544
aI9728
aI10833
aI13196
aI15279
aI15476
aI19095
aI19569
asg1
(g5
S'\x00\x00\x01\x8c'
p1564
tp1565
Rp1566
(lp1567
I113
aI188
aI730
aI1127
aI2510
aI2708
aI4352
aI5555
aI9607
aI13130
aI19759
aI20127
asg1
(g5
S'\x00\x00\x01\x8d'
p1568
tp1569
Rp1570
(lp1571
I516
aI1109
aI1941
aI2714
aI3174
aI3898
aI5206
aI5537
aI5764
aI7120
aI9585
aI9622
aI11029
aI11126
aI11157
aI12162
aI12361
aI13080
aI13702
aI16420
aI18728
aI19698
aI20989
asg1
(g5
S'\x00\x00\x01\x8e'
p1572
tp1573
Rp1574
(lp1575
I2483
aI2742
aI3859
aI4004
aI4129
aI5243
aI5265
aI5722
aI6365
aI6404
aI7395
aI7599
aI8996
aI9195
aI9262
aI10013
aI10697
aI12267
aI12303
aI12688
aI12759
aI13771
aI14150
aI14202
aI14918
aI17966
aI18374
aI18644
aI18676
aI18845
aI20080
aI20306
asg1
(g5
S'\x00\x00\x01\x8f'
p1576
tp1577
Rp1578
(lp1579
I195
aI238
aI350
aI407
aI470
aI1904
aI2258
aI2307
aI2949
aI3673
aI4012
aI5266
aI6000
aI6831
aI6989
aI8805
aI9721
aI11008
aI11856
aI12363
aI12615
aI13142
aI13306
aI13400
aI14285
aI15304
aI16695
aI16865
aI18084
aI18366
aI19010
aI20421
aI20764
aI20839
asg1
(g5
S'\x00\x00\x01\x90'
p1580
tp1581
Rp1582
(lp1583
I54
aI670
aI880
aI1952
aI2909
aI2955
aI4014
aI4431
aI4748
aI5169
aI5238
aI6097
aI6868
aI7155
aI7223
aI7807
aI7810
aI8484
aI9426
aI9467
aI9487
aI9706
aI9760
aI10033
aI11020
aI11178
aI12232
aI12479
aI14265
aI14526
aI15016
aI15036
aI15155
aI15166
aI15186
aI15350
aI15519
aI15732
aI16619
aI16961
aI17025
aI17146
aI17440
aI17714
aI17741
aI17836
aI17914
aI18526
aI19188
aI19221
aI19713
aI20106
aI20258
aI20580
aI20734
asg1
(g5
S'\x00\x00\x01\x91'
p1584
tp1585
Rp1586
(lp1587
I41
aI650
aI1005
aI1398
aI1561
aI1985
aI2422
aI3575
aI3972
aI4059
aI4208
aI4769
aI6363
aI7272
aI7338
aI7664
aI8499
aI9358
aI10797
aI12507
aI12975
aI14950
aI15829
aI16759
aI17515
aI18032
aI18083
aI19815
aI20026
aI20494
aI21093
asg1
(g5
S'\x00\x00\x01\x92'
p1588
tp1589
Rp1590
(lp1591
I1557
aI1764
aI1838
aI1869
aI2745
aI3704
aI3817
aI4636
aI5510
aI5609
aI5665
aI6113
aI6475
aI6574
aI7195
aI7197
aI7393
aI7429
aI7506
aI7547
aI8197
aI8284
aI8320
aI8334
aI8453
aI8736
aI8770
aI8801
aI9634
aI10116
aI10839
aI11016
aI11092
aI11269
aI11378
aI12047
aI12372
aI12886
aI13091
aI13131
aI13365
aI14531
aI14591
aI15103
aI15338
aI15514
aI17365
aI17777
aI17930
aI18974
aI19461
aI19646
aI20691
aI20723
aI20789
asg1
(g5
S'\x00\x00\x01\x93'
p1592
tp1593
Rp1594
(lp1595
I792
aI2153
aI2647
aI2711
aI3370
aI3443
aI4063
aI4187
aI4508
aI4530
aI4877
aI4897
aI5170
aI5590
aI5629
aI5733
aI6516
aI6617
aI7183
aI7324
aI7984
aI8012
aI8048
aI8279
aI8880
aI9240
aI9252
aI9315
aI9850
aI9886
aI9955
aI10057
aI10265
aI10718
aI11896
aI12286
aI12411
aI12743
aI13332
aI13584
aI13748
aI13793
aI13825
aI14066
aI14430
aI14819
aI15041
aI15341
aI15641
aI15650
aI16951
aI17895
aI18721
aI19183
aI19204
aI19662
aI19889
aI20114
aI20294
aI20874
aI20976
asg1
(g5
S'\x00\x00\x01\x94'
p1596
tp1597
Rp1598
(lp1599
I753
aI1384
aI1568
aI2787
aI3134
aI3410
aI4835
aI5051
aI5348
aI10157
aI10517
aI11863
aI12714
aI12833
aI13965
aI14977
aI15329
aI15865
aI16172
aI16711
aI16892
aI17296
aI17785
aI18148
aI18649
aI19005
asg1
(g5
S'\x00\x00\x01\x95'
p1600
tp1601
Rp1602
(lp1603
I128
aI620
aI1278
aI1439
aI1676
aI2029
aI2030
aI2080
aI2111
aI2607
aI3665
aI4280
aI4416
aI4488
aI4597
aI5097
aI6130
aI6212
aI6559
aI7308
aI7456
aI8107
aI8264
aI8364
aI9289
aI9446
aI9605
aI9676
aI9959
aI9986
aI10598
aI10622
aI10857
aI11184
aI12285
aI12416
aI12493
aI12924
aI13155
aI13307
aI13467
aI13602
aI14451
aI15117
aI16230
aI16290
aI16536
aI16634
aI16911
aI17052
aI17195
aI17358
aI17525
aI17750
aI17774
aI17874
aI18257
aI19729
aI20272
aI20553
aI20801
aI20974
asg1
(g5
S'\x00\x00\x01\x96'
p1604
tp1605
Rp1606
(lp1607
I464
aI751
aI787
aI1377
aI1417
aI1668
aI2134
aI2638
aI2739
aI3029
aI3318
aI3459
aI3725
aI3804
aI3926
aI4048
aI4542
aI4759
aI5998
aI6251
aI6796
aI6850
aI7449
aI7686
aI7749
aI8530
aI9011
aI10584
aI10698
aI10705
aI10782
aI11711
aI12312
aI12430
aI12626
aI12997
aI13129
aI13454
aI13841
aI13842
aI14171
aI14215
aI14705
aI14939
aI15100
aI15704
aI16134
aI16156
aI16617
aI17130
aI17657
aI18415
aI19172
asg1
(g5
S'\x00\x00\x01\x97'
p1608
tp1609
Rp1610
(lp1611
I215
aI244
aI786
aI1215
aI1397
aI2685
aI2785
aI2798
aI3160
aI3680
aI3793
aI4126
aI4539
aI4723
aI4831
aI5060
aI5281
aI5284
aI6230
aI6407
aI7735
aI7787
aI8349
aI8863
aI9373
aI9723
aI10300
aI10307
aI10541
aI11279
aI11498
aI11965
aI12266
aI12599
aI13005
aI13049
aI13105
aI14189
aI15156
aI15244
aI16393
aI17362
aI17560
aI18104
aI18139
aI18915
aI19129
aI19178
aI19273
aI19467
aI19468
aI19701
aI20843
aI21101
asg1
(g5
S'\x00\x00\x01\x98'
p1612
tp1613
Rp1614
(lp1615
I48
aI104
aI958
aI1055
aI1323
aI1382
aI2381
aI2509
aI2983
aI2997
aI3737
aI4647
aI5024
aI5289
aI6544
aI6587
aI6988
aI7285
aI7660
aI7781
aI8132
aI8753
aI8943
aI9161
aI9445
aI9626
aI10914
aI11141
aI12526
aI12933
aI14020
aI14028
aI14380
aI15060
aI15078
aI15572
aI15674
aI15777
aI15915
aI16194
aI16429
aI16435
aI16771
aI16838
aI16900
aI17350
aI17618
aI18778
aI18993
aI19524
aI20029
aI20052
asg1
(g5
S'\x00\x00\x01\x99'
p1616
tp1617
Rp1618
(lp1619
I873
aI2671
aI4812
aI5645
aI6810
aI7209
aI7907
aI8044
aI8388
aI8856
aI10735
aI11393
aI13552
aI14489
aI14969
aI15771
aI16537
aI19402
aI19528
aI20079
asg1
(g5
S'\x00\x00\x01\x9a'
p1620
tp1621
Rp1622
(lp1623
I129
aI707
aI821
aI1942
aI2903
aI3268
aI3349
aI4011
aI4117
aI4192
aI4356
aI4800
aI5021
aI5214
aI5898
aI6287
aI7089
aI7333
aI7958
aI8011
aI8525
aI9384
aI9398
aI10856
aI11028
aI11721
aI11734
aI12585
aI12738
aI13132
aI13437
aI13629
aI14077
aI14530
aI14734
aI15001
aI15269
aI16542
aI16822
aI17438
aI17949
aI18730
aI20438
aI20527
aI20782
asg1
(g5
S'\x00\x00\x01\x9b'
p1624
tp1625
Rp1626
(lp1627
I2475
aI14201
aI19157
asg1
(g5
S'\x00\x00\x01\x9c'
p1628
tp1629
Rp1630
(lp1631
I1039
aI5408
aI11519
aI17045
aI19260
aI19589
asg1
(g5
S'\x00\x00\x01\x9d'
p1632
tp1633
Rp1634
(lp1635
I4862
aI6348
aI18702
aI19985
asg1
(g5
S'\x00\x00\x01\x9e'
p1636
tp1637
Rp1638
(lp1639
I4246
asg1
(g5
S'\x00\x00\x01\x9f'
p1640
tp1641
Rp1642
(lp1643
I405
aI590
aI2862
aI4678
aI4948
aI5944
aI6007
aI6978
aI8806
aI10402
aI10954
aI11571
aI11828
aI12150
aI13578
aI14833
aI14872
aI16030
aI18694
aI18811
aI19308
asg1
(g5
S'\x00\x00\x01\xa0'
p1644
tp1645
Rp1646
(lp1647
I270
aI528
aI639
aI1028
aI1481
aI2482
aI2750
aI3070
aI3226
aI3479
aI3601
aI3769
aI4323
aI4333
aI4337
aI4753
aI5299
aI5511
aI5512
aI5521
aI5862
aI5951
aI6727
aI6783
aI7531
aI8660
aI8945
aI9005
aI9183
aI9441
aI10076
aI10378
aI11054
aI11232
aI11577
aI11626
aI12388
aI12980
aI13231
aI13361
aI13544
aI14036
aI14439
aI14765
aI15494
aI15629
aI15636
aI17116
aI17252
aI18976
aI19700
aI19914
aI19920
aI20495
aI20939
aI20957
asg1
(g5
S'\x00\x00\x01\xa1'
p1648
tp1649
Rp1650
(lp1651
I32
aI125
aI698
aI1415
aI1844
aI1961
aI2406
aI2615
aI3178
aI3324
aI3910
aI4556
aI4671
aI4804
aI4903
aI5337
aI5892
aI6116
aI6622
aI7182
aI7619
aI8244
aI8700
aI9078
aI10700
aI10706
aI10873
aI10986
aI11177
aI11633
aI11733
aI12383
aI12495
aI12789
aI13526
aI14046
aI14179
aI14693
aI15335
aI16367
aI17283
aI18615
aI19597
aI20277
aI20499
aI21049
asg1
(g5
S'\x00\x00\x01\xa2'
p1652
tp1653
Rp1654
(lp1655
I249
aI853
aI879
aI1102
aI1846
aI2399
aI2691
aI3176
aI4204
aI4908
aI4918
aI5352
aI5453
aI5601
aI5734
aI5895
aI6011
aI6282
aI7176
aI7420
aI8888
aI9890
aI9904
aI9924
aI10310
aI10371
aI10608
aI12198
aI12327
aI14640
aI14999
aI15327
aI16217
aI16276
aI16512
aI16965
aI17630
aI17698
aI17884
aI17924
aI19297
aI19376
aI19500
aI20579
aI20900
asg1
(g5
S'\x00\x00\x01\xa3'
p1656
tp1657
Rp1658
(lp1659
I1849
aI9549
aI10093
aI16910
asg1
(g5
S'\x00\x00\x01\xa4'
p1660
tp1661
Rp1662
(lp1663
I951
aI2044
aI2140
aI2362
aI2642
aI3522
aI3642
aI3895
aI4375
aI4677
aI4972
aI5592
aI5750
aI8126
aI8561
aI9417
aI10460
aI11137
aI11350
aI11431
aI11590
aI11776
aI12112
aI13329
aI13490
aI15565
aI15757
aI15889
aI16160
aI16357
aI16417
aI17181
aI18099
aI18307
aI18410
aI18619
aI19710
aI20490
aI21035
asg1
(g5
S'\x00\x00\x01\xa5'
p1664
tp1665
Rp1666
(lp1667
I685
aI1230
aI1350
aI1549
aI2982
aI3202
aI3879
aI5386
aI6075
aI6386
aI8570
aI8675
aI8689
aI10106
aI10427
aI10843
aI10946
aI12629
aI13065
aI13076
aI13732
aI13955
aI14826
aI14859
aI15270
aI15869
aI16059
aI16784
aI17169
aI17590
aI17650
aI17851
aI18268
aI18874
aI19020
aI19173
aI19283
asg1
(g5
S'\x00\x00\x01\xa6'
p1668
tp1669
Rp1670
(lp1671
I983
aI1552
aI2764
aI3152
aI4324
aI4396
aI4929
aI6425
aI6847
aI6851
aI7000
aI7375
aI7498
aI7835
aI8302
aI8668
aI9327
aI9920
aI10903
aI11076
aI11768
aI11986
aI12627
aI12992
aI13401
aI13499
aI14113
aI14434
aI15048
aI15398
aI15798
aI16974
aI17478
aI17672
aI17716
aI17835
aI17888
aI18393
aI19634
aI20339
aI20381
aI20408
aI20560
aI20667
asg1
(g5
S'\x00\x00\x01\xa7'
p1672
tp1673
Rp1674
(lp1675
I2855
aI4445
aI8455
aI8852
aI9139
aI12534
aI13394
aI14243
aI17277
aI18486
aI20543
asg1
(g5
S'\x00\x00\x01\xa8'
p1676
tp1677
Rp1678
(lp1679
I1509
aI1542
aI2194
aI2690
aI4353
aI4793
aI5816
aI6254
aI7016
aI8865
aI10363
aI10461
aI10766
aI13655
aI13899
aI14014
aI14368
aI15128
aI15333
aI15393
aI16153
aI16444
asg1
(g5
S'\x00\x00\x01\xa9'
p1680
tp1681
Rp1682
(lp1683
I380
aI474
aI612
aI711
aI995
aI1073
aI1229
aI1234
aI2008
aI2460
aI2504
aI2941
aI3106
aI3394
aI3968
aI4274
aI4465
aI5578
aI5827
aI5879
aI6047
aI6410
aI7111
aI7201
aI7471
aI7643
aI7975
aI8329
aI8447
aI9506
aI9529
aI9775
aI9936
aI10474
aI11273
aI11352
aI11413
aI11894
aI11919
aI12049
aI14270
aI14358
aI14359
aI14752
aI14776
aI14929
aI15187
aI15458
aI15562
aI15858
aI16151
aI16295
aI16514
aI16755
aI17170
aI17188
aI18170
aI18306
aI18359
aI18667
aI18917
aI19475
aI19736
aI19807
aI20070
aI20625
aI20895
aI21079
aI21081
asg1
(g5
S'\x00\x00\x01\xaa'
p1684
tp1685
Rp1686
(lp1687
I148
aI1137
aI1211
aI1244
aI1772
aI1827
aI2639
aI2650
aI2892
aI4581
aI5312
aI5581
aI5705
aI6078
aI6709
aI7708
aI8024
aI8271
aI8307
aI8452
aI8506
aI8623
aI9303
aI9603
aI9861
aI10009
aI10456
aI10498
aI12092
aI12454
aI12556
aI12752
aI13259
aI14013
aI14059
aI14475
aI14725
aI14887
aI15247
aI15313
aI15420
aI15450
aI16317
aI16428
aI17347
aI18081
aI18463
aI19405
aI19689
aI19873
asg1
(g5
S'\x00\x00\x01\xab'
p1688
tp1689
Rp1690
(lp1691
I616
aI884
aI1681
aI4026
aI4283
aI4470
aI4628
aI4761
aI5053
aI5597
aI5907
aI6122
aI6262
aI6460
aI6758
aI8692
aI8833
aI9216
aI9429
aI10089
aI10388
aI11070
aI12538
aI12799
aI12910
aI13679
aI13921
aI15003
aI15160
aI15412
aI16283
aI16548
aI16670
aI16737
aI17161
aI17690
aI18888
aI19227
aI19574
aI19868
aI19891
aI20358
aI20571
asg1
(g5
S'\x00\x00\x01\xac'
p1692
tp1693
Rp1694
(lp1695
I1089
aI1288
aI1321
aI1885
aI2816
aI4788
aI5184
aI5444
aI5843
aI5923
aI6518
aI7260
aI7639
aI7985
aI8218
aI8580
aI9138
aI9140
aI9405
aI9922
aI10416
aI10998
aI11809
aI12443
aI12522
aI12597
aI13853
aI14341
aI14478
aI14669
aI15483
aI16190
aI16798
aI17084
aI17504
aI17970
aI18023
aI18485
aI18543
aI20404
aI20875
asg1
(g5
S'\x00\x00\x01\xad'
p1696
tp1697
Rp1698
(lp1699
I442
aI1185
aI2315
aI2450
aI3016
aI3332
aI3380
aI3393
aI3507
aI4289
aI4325
aI4479
aI5215
aI5953
aI6295
aI7566
aI7631
aI7816
aI7842
aI9153
aI10301
aI10530
aI11811
aI12021
aI12050
aI12375
aI12403
aI12680
aI12857
aI13011
aI14034
aI14445
aI14520
aI15489
aI16356
aI16486
aI16876
aI17293
aI18805
aI18912
aI19669
aI20190
aI20770
asg1
(g5
S'\x00\x00\x01\xae'
p1700
tp1701
Rp1702
(lp1703
I20
aI444
aI641
aI928
aI1407
aI1560
aI1616
aI1632
aI1833
aI2471
aI2653
aI2674
aI2718
aI2773
aI4689
aI5260
aI6611
aI6898
aI7707
aI8354
aI8610
aI8742
aI8815
aI9151
aI10489
aI10730
aI10762
aI11666
aI13411
aI14053
aI15248
aI15431
aI15711
aI15874
aI15974
aI16988
aI17197
aI17411
aI17547
aI18041
aI18408
aI18858
aI19051
aI19767
aI20708
aI20985
aI21073
asg1
(g5
S'\x00\x00\x01\xaf'
p1704
tp1705
Rp1706
(lp1707
I117
aI425
aI637
aI1731
aI2086
aI2414
aI2515
aI2645
aI2881
aI3666
aI3835
aI3889
aI4032
aI4359
aI4666
aI6232
aI6421
aI6534
aI6695
aI6771
aI7280
aI7365
aI7715
aI8952
aI9512
aI9717
aI11775
aI11840
aI12822
aI12914
aI13028
aI13083
aI13318
aI13807
aI14288
aI14349
aI14987
aI16377
aI16407
aI16907
aI17220
aI17818
aI18311
aI18651
aI19913
aI20902
aI21063
asg1
(g5
S'\x00\x00\x01\xb0'
p1708
tp1709
Rp1710
(lp1711
I1295
aI2019
aI2155
aI2552
aI4158
aI4791
aI7314
aI8206
aI8493
aI8614
aI8938
aI9705
aI10225
aI10281
aI10521
aI10639
aI10791
aI10936
aI11302
aI11395
aI11829
aI13168
aI13276
aI14308
aI14610
aI15902
aI17477
aI17593
aI17604
aI18303
aI19289
aI19636
aI19645
aI19959
aI19970
aI20125
aI20453
aI20879
asg1
(g5
S'\x00\x00\x01\xb1'
p1712
tp1713
Rp1714
(lp1715
I1489
aI2561
aI2613
aI2992
aI3066
aI3753
aI4291
aI4543
aI4646
aI5302
aI5391
aI5912
aI6064
aI6106
aI6554
aI6687
aI7968
aI8511
aI8535
aI8809
aI9031
aI9604
aI10582
aI11371
aI11623
aI12720
aI14783
aI14906
aI15141
aI16277
aI16482
aI16736
aI16770
aI17952
aI18019
aI18727
aI19223
aI19413
aI19817
aI20091
aI20332
aI20703
asg1
(g5
S'\x00\x00\x01\xb2'
p1716
tp1717
Rp1718
(lp1719
I2332
aI3706
aI5370
aI5409
aI5589
aI5929
aI8393
aI8620
aI8910
aI10019
aI10021
aI10391
aI10603
aI11120
aI12118
aI14089
aI14431
aI15888
aI16226
aI18421
aI18495
aI18960
aI20161
aI20205
asg1
(g5
S'\x00\x00\x01\xb3'
p1720
tp1721
Rp1722
(lp1723
I84
aI227
aI633
aI1537
aI1977
aI2305
aI2379
aI3032
aI3168
aI4061
aI4524
aI4809
aI5551
aI6310
aI6580
aI6877
aI6961
aI7097
aI7721
aI8205
aI8275
aI9116
aI9635
aI10204
aI11050
aI11670
aI11744
aI11758
aI12172
aI13340
aI13662
aI13744
aI13997
aI14607
aI15112
aI15212
aI15506
aI15522
aI15895
aI16630
aI17390
aI17605
aI17812
aI17912
aI17939
aI18165
aI18531
aI18718
aI19192
aI19200
aI19280
aI19855
asg1
(g5
S'\x00\x00\x01\xb4'
p1724
tp1725
Rp1726
(lp1727
I365
aI558
aI2165
aI2868
aI3413
aI3935
aI4027
aI4386
aI5212
aI5482
aI5549
aI6068
aI6161
aI7079
aI8001
aI8077
aI8994
aI9037
aI9306
aI9948
aI10438
aI10631
aI10922
aI11248
aI11307
aI11312
aI11416
aI12000
aI12333
aI12577
aI13250
aI13305
aI14244
aI14450
aI14585
aI14702
aI14738
aI14769
aI15289
aI15325
aI15710
aI15773
aI15853
aI17482
aI17612
aI17783
aI17982
aI18000
aI19610
aI20072
aI20513
asg1
(g5
S'\x00\x00\x01\xb5'
p1728
tp1729
Rp1730
(lp1731
I855
aI2085
aI2738
aI2849
aI3757
aI6678
aI7110
aI8948
aI9366
aI9422
aI14039
aI16150
aI20192
asg1
(g5
S'\x00\x00\x01\xb6'
p1732
tp1733
Rp1734
(lp1735
I131
aI937
aI1322
aI1480
aI1667
aI1745
aI1806
aI2168
aI2527
aI2532
aI3003
aI3336
aI3633
aI3653
aI3903
aI4402
aI4810
aI5003
aI5680
aI7630
aI8657
aI8743
aI9629
aI9901
aI10439
aI10624
aI12356
aI13390
aI15104
aI15154
aI15334
aI17216
aI17927
aI18446
aI18966
aI19007
aI20245
aI20562
asg1
(g5
S'\x00\x00\x01\xb7'
p1736
tp1737
Rp1738
(lp1739
I1998
aI2195
aI2424
aI2446
aI4260
aI4975
aI6443
aI6928
aI7359
aI7376
aI7509
aI7597
aI8079
aI8662
aI9942
aI10073
aI10131
aI10196
aI11655
aI11854
aI12292
aI12711
aI13639
aI14222
aI15424
aI15831
aI16197
aI16906
aI18507
aI19790
asg1
(g5
S'\x00\x00\x01\xb8'
p1740
tp1741
Rp1742
(lp1743
I594
aI1083
aI1562
aI1742
aI3059
aI3167
aI4728
aI5293
aI5393
aI8793
aI8974
aI9499
aI10065
aI11473
aI13579
aI14361
aI15291
aI15642
aI15935
aI16582
aI17251
aI17380
aI17538
aI19531
aI20057
aI20094
aI20785
asg1
(g5
S'\x00\x00\x01\xb9'
p1744
tp1745
Rp1746
(lp1747
I773
aI858
aI1317
aI2530
aI2646
aI3061
aI3386
aI4935
aI5664
aI6218
aI6560
aI6841
aI7431
aI9112
aI9113
aI9617
aI10988
aI11790
aI12570
aI12962
aI14090
aI14135
aI15922
aI15934
aI16391
aI16565
aI18082
aI18314
aI18398
aI19326
aI19699
aI19756
aI20821
aI21104
asg1
(g5
S'\x00\x00\x01\xba'
p1748
tp1749
Rp1750
(lp1751
I413
aI690
aI2555
aI2586
aI3395
aI4031
aI4244
aI5066
aI5355
aI5726
aI6035
aI6156
aI6655
aI7405
aI7696
aI7824
aI8928
aI9326
aI9336
aI10192
aI10280
aI10287
aI10377
aI10647
aI10923
aI11579
aI13109
aI13833
aI14111
aI14593
aI16139
aI16183
aI16383
aI17218
aI17332
aI17759
aI17828
aI17886
aI19244
aI19587
aI19781
asg1
(g5
S'\x00\x00\x01\xbb'
p1752
tp1753
Rp1754
(lp1755
I1896
aI2197
aI2978
aI3002
aI3354
aI3388
aI4649
aI5146
aI6795
aI6901
aI7024
aI7472
aI8131
aI9196
aI10763
aI10806
aI11536
aI12652
aI12708
aI12847
aI13184
aI13301
aI14153
aI14864
aI15056
aI15436
aI16519
aI17213
aI17572
aI17608
aI18445
aI19439
aI20013
aI20599
asg1
(g5
S'\x00\x00\x01\xbc'
p1756
tp1757
Rp1758
(lp1759
I7
aI768
aI1282
aI1408
aI1653
aI1725
aI2003
aI2241
aI2593
aI2791
aI3245
aI3570
aI3595
aI3964
aI4334
aI4881
aI4910
aI4968
aI5129
aI5133
aI6009
aI6086
aI6899
aI7397
aI7432
aI7502
aI8375
aI9591
aI9644
aI10444
aI10476
aI10751
aI11188
aI11335
aI12329
aI13252
aI14901
aI15083
aI15110
aI16324
aI16587
aI16681
aI16712
aI17013
aI17268
aI18600
aI18803
aI19360
aI19492
aI20251
aI20300
aI20529
aI21103
asg1
(g5
S'\x00\x00\x01\xbd'
p1760
tp1761
Rp1762
(lp1763
I343
aI420
aI505
aI642
aI896
aI932
aI1010
aI1154
aI1445
aI1576
aI1781
aI2231
aI3303
aI3542
aI3761
aI3805
aI4328
aI4351
aI4563
aI4675
aI6738
aI6962
aI6994
aI7251
aI8672
aI9118
aI11036
aI11440
aI11457
aI11788
aI11801
aI12989
aI14166
aI14213
aI14913
aI16877
aI17203
aI17508
aI18931
aI19123
aI19213
asg1
(g5
S'\x00\x00\x01\xbe'
p1764
tp1765
Rp1766
(lp1767
I742
aI1648
aI2078
aI2468
aI2476
aI2889
aI3046
aI3456
aI3474
aI3546
aI3609
aI3696
aI3845
aI4427
aI7021
aI7288
aI7756
aI8212
aI8513
aI9269
aI10374
aI10538
aI11423
aI12109
aI12351
aI12617
aI12865
aI13571
aI14512
aI15598
aI15652
aI18327
aI18666
aI19469
aI19968
aI20292
aI20363
aI20482
aI20657
aI20943
asg1
(g5
S'\x00\x00\x01\xbf'
p1768
tp1769
Rp1770
(lp1771
I996
aI2580
aI2633
aI3986
aI4181
aI4440
aI4466
aI5145
aI5358
aI6891
aI6970
aI7136
aI7225
aI7592
aI9263
aI10102
aI10999
aI11022
aI11147
aI12448
aI12836
aI13092
aI14621
aI15215
aI15760
aI15897
aI15926
aI16899
aI17105
aI17722
aI18357
aI18598
aI18623
aI19324
aI19425
aI20111
aI20184
aI20457
asg1
(g5
S'\x00\x00\x01\xc1'
p1772
tp1773
Rp1774
(lp1775
I571
aI3821
aI5928
aI6892
aI11155
aI11189
aI12568
aI14648
aI15579
aI19637
aI19905
aI20154
asg1
(g5
S'\x00\x00\x01\xc2'
p1776
tp1777
Rp1778
(lp1779
I605
aI1275
aI1955
aI2069
aI2076
aI2189
aI3775
aI3868
aI3995
aI4547
aI5132
aI5539
aI6103
aI6418
aI6737
aI7450
aI8847
aI9049
aI9179
aI10519
aI10523
aI10701
aI10953
aI12103
aI12380
aI13263
aI13295
aI13346
aI13743
aI13750
aI14547
aI15614
aI16064
aI16074
aI16934
aI17230
aI17799
aI17889
aI19046
aI19686
aI19708
aI20108
aI20165
aI20257
aI20586
asg1
(g5
S'\x00\x00\x01\xc3'
p1780
tp1781
Rp1782
(lp1783
I68
aI455
aI709
aI728
aI1171
aI1274
aI1462
aI1703
aI2250
aI2349
aI2473
aI2899
aI4651
aI5367
aI5535
aI5864
aI5889
aI6959
aI7724
aI8440
aI8819
aI8827
aI8950
aI9184
aI9675
aI10064
aI11594
aI11606
aI12571
aI12879
aI13895
aI15063
aI15419
aI15566
aI16312
aI16731
aI17184
aI17276
aI18226
aI18458
aI18490
aI18656
aI18839
aI19158
aI19625
aI19641
aI19744
aI19773
aI19780
aI19924
aI20384
aI20845
asg1
(g5
S'\x00\x00\x01\xc4'
p1784
tp1785
Rp1786
(lp1787
I1240
aI1361
aI1379
aI1962
aI2407
aI3231
aI3317
aI3604
aI3721
aI4213
aI5161
aI5168
aI5226
aI5296
aI5385
aI5847
aI6281
aI6399
aI6453
aI6833
aI8058
aI8394
aI8449
aI9271
aI10067
aI10463
aI10924
aI11315
aI12208
aI12340
aI12414
aI12424
aI13885
aI13901
aI14395
aI14529
aI14549
aI14924
aI16092
aI17172
aI17341
aI17636
aI18360
aI20195
aI20532
aI20577
aI21026
asg1
(g5
S'\x00\x00\x01\xc5'
p1788
tp1789
Rp1790
(lp1791
I210
aI294
aI378
aI514
aI953
aI1098
aI1381
aI1498
aI2237
aI3265
aI4112
aI4164
aI4477
aI5159
aI5335
aI5350
aI5596
aI6029
aI7668
aI8127
aI8202
aI8210
aI8259
aI8477
aI10569
aI11523
aI11629
aI11779
aI11917
aI12016
aI12331
aI12478
aI12695
aI12996
aI13192
aI13317
aI13724
aI13818
aI13872
aI14148
aI14873
aI15297
aI16053
aI16202
aI16266
aI16423
aI16487
aI16621
aI16750
aI16842
aI17029
aI18293
aI18515
aI19304
aI19327
aI19760
aI20840
aI21097
asg1
(g5
S'\x00\x00\x01\xc6'
p1792
tp1793
Rp1794
(lp1795
I316
aI1053
aI1281
aI3228
aI4279
aI5745
aI6463
aI9223
aI9365
aI9642
aI10686
aI10962
aI11242
aI13247
aI13509
aI13847
aI15635
aI15790
aI16569
aI18230
aI18934
aI19590
aI20480
aI20716
aI20856
aI21036
asg1
(g5
S'\x00\x00\x01\xc7'
p1796
tp1797
Rp1798
(lp1799
I88
aI738
aI1066
aI1122
aI2369
aI2600
aI2622
aI2681
aI3603
aI3987
aI4439
aI4739
aI5258
aI5769
aI5903
aI7497
aI8397
aI9285
aI9593
aI10060
aI10745
aI10913
aI13540
aI13551
aI14194
aI14371
aI14749
aI14791
aI17270
aI19002
aI19707
aI20234
aI20493
aI20659
asg1
(g5
S'\x00\x00\x01\xc8'
p1800
tp1801
Rp1802
(lp1803
I3414
aI4182
aI6947
aI7694
aI8761
aI9615
aI11380
aI13023
aI13044
aI13445
aI14592
aI14979
aI15689
aI16410
aI16747
aI17080
aI17768
aI17865
aI18067
aI18166
aI19537
aI19622
aI20144
aI20497
aI20701
aI20773
aI21072
asg1
(g5
S'\x00\x00\x01\xc9'
p1804
tp1805
Rp1806
(lp1807
I8836
aI19573
asg1
(g5
S'\x00\x00\x01\xca'
p1808
tp1809
Rp1810
(lp1811
I12727
aI13788
asg1
(g5
S'\x00\x00\x01\xcb'
p1812
tp1813
Rp1814
(lp1815
I440
aI782
aI1085
aI1544
aI2300
aI2696
aI3040
aI3482
aI3764
aI3798
aI5251
aI5532
aI5811
aI6039
aI6170
aI6341
aI6395
aI7063
aI7869
aI8226
aI8321
aI8346
aI8451
aI8978
aI9349
aI9380
aI9400
aI9520
aI9820
aI10443
aI10496
aI10515
aI10601
aI11185
aI11336
aI11428
aI14205
aI14566
aI14676
aI14851
aI15665
aI15744
aI15842
aI16745
aI17104
aI17505
aI18074
aI18922
aI19148
aI19534
aI19714
aI19928
aI20624
aI20927
aI21065
asg1
(g5
S'\x00\x00\x01\xcc'
p1816
tp1817
Rp1818
(lp1819
I2925
aI6490
asg1
(g5
S'\x00\x00\x01\xcd'
p1820
tp1821
Rp1822
(lp1823
I98
aI272
aI481
aI917
aI1058
aI1294
aI1302
aI1574
aI1615
aI1672
aI1740
aI1861
aI2131
aI2373
aI3251
aI3263
aI3295
aI3348
aI3509
aI3688
aI3717
aI3724
aI3801
aI3831
aI3871
aI4712
aI5007
aI6128
aI7165
aI7253
aI7558
aI7766
aI8097
aI8490
aI8498
aI8507
aI8967
aI9283
aI10384
aI10547
aI10561
aI10849
aI12036
aI12041
aI12128
aI12295
aI12851
aI12945
aI12948
aI13125
aI13175
aI13350
aI14336
aI14416
aI14744
aI14947
aI14996
aI15026
aI15122
aI15237
aI15454
aI16089
aI16209
aI16489
aI16692
aI17081
aI17117
aI17239
aI17824
aI18466
aI18817
aI18964
aI19019
aI19037
aI19319
aI20119
aI20318
aI20503
asg1
(g5
S'\x00\x00\x01\xce'
p1824
tp1825
Rp1826
(lp1827
I175
aI208
aI718
aI1508
aI1720
aI1945
aI1958
aI2201
aI2540
aI3013
aI3214
aI3605
aI5106
aI5155
aI6508
aI7162
aI7738
aI8043
aI8123
aI9075
aI9215
aI10005
aI10182
aI10784
aI11162
aI11844
aI12781
aI13934
aI13983
aI14989
aI15089
aI15394
aI15609
aI15615
aI16240
aI16461
aI17457
aI17752
aI18516
aI18636
aI18639
aI18767
aI18779
aI19320
aI19638
aI20286
aI20452
asg1
(g5
S'\x00\x00\x01\xcf'
p1828
tp1829
Rp1830
(lp1831
I1169
aI1630
aI4045
aI4194
aI5310
aI6241
aI6568
aI6844
aI7383
aI9513
aI11086
aI12373
aI12739
aI13127
aI15784
aI18894
aI19459
asg1
(g5
S'\x00\x00\x01\xd0'
p1832
tp1833
Rp1834
(lp1835
I12
aI525
aI836
aI1324
aI1444
aI2346
aI2462
aI2494
aI2503
aI2842
aI5543
aI5853
aI6770
aI7147
aI7156
aI7435
aI7593
aI7608
aI7634
aI8589
aI8797
aI9069
aI9260
aI9438
aI9969
aI10372
aI10591
aI12177
aI12539
aI13176
aI13925
aI14707
aI16495
aI17556
aI18519
aI18810
aI18899
aI20310
aI20413
asg1
(g5
S'\x00\x00\x01\xd1'
p1836
tp1837
Rp1838
(lp1839
I197
aI277
aI339
aI1754
aI1968
aI2147
aI2263
aI2719
aI2995
aI3011
aI3081
aI3649
aI4207
aI4331
aI5558
aI5855
aI6110
aI6350
aI6472
aI6478
aI6964
aI7004
aI7109
aI7843
aI7850
aI7871
aI8161
aI9274
aI9371
aI9495
aI9588
aI9835
aI11274
aI11421
aI11547
aI11837
aI13114
aI13208
aI13510
aI13532
aI13627
aI13632
aI13835
aI15763
aI16532
aI16635
aI17086
aI18404
aI18632
aI18860
aI19070
aI19498
aI20747
aI21042
asg1
(g5
S'\x00\x00\x01\xd2'
p1840
tp1841
Rp1842
(lp1843
I221
aI1188
aI1191
aI1416
aI2213
aI2256
aI2662
aI2794
aI2936
aI3931
aI4261
aI4419
aI5340
aI7814
aI7909
aI8841
aI8963
aI10270
aI11731
aI12066
aI12256
aI12318
aI13666
aI13805
aI14081
aI14110
aI14318
aI14858
aI14912
aI17349
aI18411
aI18827
asg1
(g5
S'\x00\x00\x01\xd3'
p1844
tp1845
Rp1846
(lp1847
I445
aI1748
aI2348
aI2668
aI2709
aI3528
aI3876
aI3905
aI6364
aI7360
aI7410
aI7827
aI8172
aI8925
aI9288
aI9859
aI10081
aI10919
aI11058
aI11221
aI11989
aI13268
aI13517
aI13851
aI14659
aI15008
aI15176
aI15837
aI16096
aI16374
aI16384
aI16541
aI16687
aI16986
aI17683
aI17971
aI18755
aI19072
aI19768
aI20210
asg1
(g5
S'\x00\x00\x01\xd4'
p1848
tp1849
Rp1850
(lp1851
I390
aI436
aI799
aI1403
aI1733
aI1990
aI2137
aI2174
aI2327
aI2479
aI2725
aI2869
aI3083
aI3207
aI3257
aI3415
aI4096
aI4128
aI4227
aI4358
aI4526
aI4836
aI5635
aI6215
aI6673
aI6675
aI6914
aI7493
aI7900
aI8223
aI9299
aI9574
aI9843
aI10483
aI11535
aI12182
aI12348
aI12366
aI12866
aI12949
aI13029
aI13162
aI13438
aI15040
aI15342
aI15634
aI15979
aI16122
aI16180
aI16683
aI17003
aI17224
aI17244
aI17262
aI17736
aI18593
aI18613
aI18671
aI18763
aI19015
aI19834
aI19844
aI19856
aI20143
aI20189
aI20248
aI20841
asg1
(g5
S'\x00\x00\x01\xd5'
p1852
tp1853
Rp1854
(lp1855
I107
aI134
aI476
aI964
aI1192
aI1336
aI2099
aI2257
aI2905
aI3558
aI3676
aI3982
aI3990
aI4239
aI4630
aI5193
aI5397
aI5406
aI5548
aI5640
aI5878
aI7529
aI7837
aI7860
aI8231
aI8475
aI9419
aI10099
aI10357
aI10983
aI11324
aI11614
aI13285
aI13591
aI14037
aI14044
aI14664
aI15531
aI15717
aI15823
aI17432
aI17944
aI17986
aI18153
aI18205
aI18275
aI18896
aI19724
aI20521
aI20775
asg1
(g5
S'\x00\x00\x01\xd6'
p1856
tp1857
Rp1858
(lp1859
I283
aI1729
aI3913
aI4232
aI4817
aI4936
aI5334
aI5369
aI5455
aI6155
aI6997
aI7277
aI8190
aI8258
aI8586
aI8998
aI9060
aI9155
aI9379
aI9521
aI9806
aI10207
aI10430
aI10555
aI10910
aI10943
aI11450
aI11756
aI11980
aI13047
aI13439
aI13727
aI15427
aI15540
aI15993
aI16027
aI18045
aI18405
aI18460
aI18792
aI18861
aI18949
aI19356
aI19725
aI19804
aI20261
aI20419
aI20851
aI21098
asg1
(g5
S'\x00\x00\x01\xd7'
p1860
tp1861
Rp1862
(lp1863
I152
aI447
aI462
aI1585
aI2117
aI4589
aI4824
aI4846
aI4943
aI5824
aI6273
aI6599
aI8330
aI9039
aI9592
aI10020
aI10236
aI11568
aI11693
aI11887
aI13886
aI14138
aI14460
aI14988
aI15702
aI16658
aI19257
aI20296
aI20992
asg1
(g5
S'\x00\x00\x01\xd8'
p1864
tp1865
Rp1866
(lp1867
I1086
aI2994
aI11464
aI12281
asg1
(g5
S'\x00\x00\x01\xd9'
p1868
tp1869
Rp1870
(lp1871
I1590
aI3523
aI3597
aI5065
aI9162
aI14163
aI18885
aI18990
aI20805
aI21024
asg1
(g5
S'\x00\x00\x01\xda'
p1872
tp1873
Rp1874
(lp1875
I290
aI2291
aI3092
aI3406
aI3784
aI4210
aI4599
aI4811
aI5099
aI5149
aI5398
aI5925
aI6005
aI6126
aI6965
aI8250
aI8407
aI9698
aI9970
aI10351
aI10534
aI10684
aI10871
aI12596
aI14035
aI16081
aI17088
aI17258
aI17571
aI18061
aI18266
aI18400
aI19619
aI19654
aI20181
aI20199
aI20308
asg1
(g5
S'\x00\x00\x01\xdb'
p1876
tp1877
Rp1878
(lp1879
I0
aI275
aI327
aI1786
aI2220
aI2850
aI4940
aI5653
aI7467
aI8273
aI9505
aI10788
aI10977
aI13574
aI16614
aI17335
aI17366
aI18950
aI20675
aI20849
asg1
(g5
S'\x00\x00\x01\xdc'
p1880
tp1881
Rp1882
(lp1883
I92
aI860
aI1149
aI2678
aI2710
aI2999
aI3057
aI3194
aI5574
aI5696
aI5831
aI6096
aI6186
aI6692
aI6800
aI7096
aI7118
aI8061
aI8323
aI8594
aI8845
aI8955
aI9471
aI9508
aI9595
aI9774
aI10484
aI11030
aI11083
aI11308
aI11641
aI11656
aI12074
aI12385
aI12392
aI13040
aI13051
aI13193
aI13523
aI15068
aI15470
aI15487
aI15528
aI15738
aI16101
aI16321
aI16372
aI16673
aI16935
aI17156
aI17200
aI17286
aI18286
aI19041
aI19533
aI19788
aI19809
aI19894
aI20152
aI20862
aI21080
asg1
(g5
S'\x00\x00\x01\xdd'
p1884
tp1885
Rp1886
(lp1887
I150
aI1378
aI3398
aI3497
aI3683
aI4083
aI4095
aI4149
aI4970
aI5137
aI5421
aI5559
aI6004
aI6101
aI6164
aI6296
aI6409
aI6656
aI6733
aI7012
aI7245
aI8015
aI8556
aI9045
aI9947
aI9995
aI11033
aI11207
aI11411
aI11581
aI11690
aI12302
aI13330
aI13848
aI14407
aI14415
aI15086
aI15429
aI15767
aI16328
aI17060
aI17099
aI17700
aI18005
aI18260
aI18597
aI18674
aI18891
aI20443
asg1
(g5
S'\x00\x00\x01\xde'
p1888
tp1889
Rp1890
(lp1891
I172
aI547
aI662
aI795
aI1559
aI2820
aI2829
aI4097
aI4185
aI4433
aI5540
aI5636
aI5875
aI6289
aI7262
aI7344
aI9662
aI10486
aI11163
aI13055
aI13099
aI14130
aI14599
aI17751
aI18065
aI18499
aI19091
aI20295
aI20485
aI20828
asg1
(g5
S'\x00\x00\x01\xdf'
p1892
tp1893
Rp1894
(lp1895
I817
aI1238
aI1335
aI1405
aI1938
aI2405
aI3301
aI3592
aI3611
aI4066
aI4205
aI4773
aI4931
aI5072
aI5464
aI5760
aI5841
aI6335
aI7005
aI8194
aI8374
aI8638
aI9040
aI9504
aI9582
aI10100
aI10118
aI11009
aI11257
aI11293
aI11787
aI12017
aI12087
aI12943
aI13473
aI14129
aI14440
aI15239
aI15415
aI15631
aI15803
aI15923
aI16040
aI16689
aI17238
aI17822
aI18102
aI18180
aI18612
aI18798
aI19079
aI19239
aI20674
asg1
(g5
S'\x00\x00\x01\xe0'
p1896
tp1897
Rp1898
(lp1899
I219
aI575
aI1799
aI1870
aI3230
aI4453
aI4577
aI5117
aI7888
aI7942
aI8086
aI8116
aI8269
aI8763
aI8930
aI10445
aI11334
aI12161
aI14021
aI14200
aI14915
aI15030
aI15075
aI15589
aI15862
aI17511
aI17570
aI17837
aI19568
aI21021
aI21106
asg1
(g5
S'\x00\x00\x01\xe1'
p1900
tp1901
Rp1902
(lp1903
I10022
asg1
(g5
S'\x00\x00\x01\xe2'
p1904
tp1905
Rp1906
(lp1907
I756
aI1091
aI1735
aI1898
aI1944
aI1950
aI2205
aI2297
aI2360
aI2655
aI2814
aI3044
aI3407
aI3553
aI3841
aI4127
aI4299
aI4852
aI5399
aI5402
aI5416
aI6061
aI6307
aI6894
aI7184
aI7363
aI7560
aI7719
aI9484
aI9761
aI9893
aI10753
aI10926
aI11134
aI12544
aI12678
aI12908
aI13094
aI13680
aI13984
aI13991
aI14070
aI14112
aI14378
aI14900
aI15051
aI15452
aI15546
aI15768
aI15819
aI16045
aI16176
aI16967
aI17461
aI17550
aI18088
aI18161
aI18371
aI18375
aI19212
aI20554
aI20684
aI20692
aI20722
aI20889
asg1
(g5
S'\x00\x00\x01\xe3'
p1908
tp1909
Rp1910
(lp1911
I453
aI1888
aI2102
aI2940
aI5782
aI5874
aI7091
aI9987
aI19490
aI20440
asg1
(g5
S'\x00\x00\x01\xe4'
p1912
tp1913
Rp1914
(lp1915
I401
aI1016
aI1527
aI3072
aI4814
aI5022
aI5173
aI5345
aI5659
aI5787
aI6422
aI7396
aI7784
aI8939
aI8995
aI9657
aI10269
aI10418
aI11621
aI11759
aI12339
aI12622
aI13073
aI13476
aI15682
aI15957
aI15982
aI16231
aI16477
aI16886
aI16905
aI17114
aI17583
aI18786
aI19088
aI20115
asg1
(g5
S'\x00\x00\x01\xe5'
p1916
tp1917
Rp1918
(lp1919
I241
aI1477
aI3729
aI4340
aI5775
aI7178
aI7754
aI8117
aI8406
aI10449
aI10454
aI10528
aI10872
aI11465
aI11718
aI12561
aI15577
aI16019
aI16178
aI17794
aI18034
aI18737
aI18921
aI19464
aI19706
asg1
(g5
S'\x00\x00\x01\xe6'
p1920
tp1921
Rp1922
(lp1923
I11870
aI13172
aI14334
asg1
(g5
S'\x00\x00\x01\xe7'
p1924
tp1925
Rp1926
(lp1927
I45
aI169
aI593
aI981
aI1606
aI1852
aI2456
aI2574
aI2617
aI2896
aI3970
aI4115
aI4315
aI4553
aI5250
aI5329
aI5423
aI5466
aI5695
aI5763
aI6119
aI6563
aI6946
aI7704
aI7911
aI8167
aI8171
aI8327
aI8381
aI8575
aI8702
aI9046
aI9194
aI9375
aI10049
aI10729
aI10814
aI11272
aI11916
aI12220
aI13459
aI14093
aI14096
aI14515
aI17191
aI17763
aI18391
aI19368
aI19414
aI19556
aI19783
aI20051
aI20175
aI20243
aI20486
aI20825
aI20912
asg1
(g5
S'\x00\x00\x01\xe8'
p1928
tp1929
Rp1930
(lp1931
I1642
aI2595
aI4407
aI5978
aI7678
aI10487
aI12040
aI13946
aI15530
aI17314
aI19749
aI20038
asg1
(g5
S'\x00\x00\x01\xe9'
p1932
tp1933
Rp1934
(lp1935
I1887
aI2766
aI3240
aI3305
aI3891
aI4069
aI4167
aI5273
aI5759
aI5881
aI7747
aI8607
aI10030
aI10492
aI10566
aI10780
aI10794
aI11486
aI11764
aI12313
aI12966
aI13001
aI13710
aI14500
aI15386
aI16708
aI17311
aI18726
aI19162
aI20342
aI20377
aI20884
asg1
(g5
S'\x00\x00\x01\xea'
p1936
tp1937
Rp1938
(lp1939
I2171
aI4474
aI12583
aI17705
aI19709
asg1
(g5
S'\x00\x00\x01\xeb'
p1940
tp1941
Rp1942
(lp1943
I156
aI196
aI465
aI859
aI935
aI1176
aI1625
aI2434
aI2789
aI3426
aI3465
aI3651
aI3763
aI4957
aI5748
aI5796
aI6102
aI6250
aI6590
aI6684
aI6712
aI8824
aI8851
aI8906
aI8999
aI10562
aI10877
aI10974
aI12867
aI13426
aI13429
aI13543
aI13944
aI14803
aI14941
aI15983
aI16387
aI17387
aI17941
aI17951
aI18049
aI18626
aI18866
aI19295
aI19382
aI19605
aI19733
aI20523
aI20758
aI20812
asg1
(g5
S'\x00\x00\x01\xec'
p1944
tp1945
Rp1946
(lp1947
I333
aI3338
aI4635
aI5655
aI6179
aI6304
aI6995
aI7362
aI7581
aI8040
aI8631
aI9175
aI9553
aI10277
aI10309
aI10459
aI10499
aI10532
aI11290
aI11497
aI11798
aI11884
aI13993
aI14102
aI14831
aI15012
aI15535
aI15872
aI16048
aI16212
aI16229
aI16263
aI16294
aI16525
aI16577
aI17242
aI18141
aI18279
aI18496
aI18588
aI20252
aI20537
aI20942
asg1
(g5
S'\x00\x00\x01\xed'
p1948
tp1949
Rp1950
(lp1951
I103
aI149
aI246
aI647
aI861
aI1292
aI1466
aI1679
aI1836
aI2063
aI2149
aI2186
aI3051
aI3383
aI3839
aI3915
aI4735
aI4854
aI5730
aI6121
aI6139
aI6369
aI7029
aI7575
aI7913
aI9163
aI9282
aI9440
aI9449
aI10159
aI10170
aI10248
aI10469
aI11320
aI11559
aI12795
aI12983
aI14108
aI14154
aI14502
aI14747
aI14795
aI15259
aI15651
aI15741
aI15827
aI16573
aI16973
aI18322
aI18689
aI19691
aI19831
aI19840
aI19978
aI20262
aI20638
aI20753
aI20891
asg1
(g5
S'\x00\x00\x01\xee'
p1952
tp1953
Rp1954
(lp1955
I1096
aI1551
aI1949
aI2011
aI2765
aI3073
aI3453
aI4105
aI4317
aI4391
aI4720
aI5788
aI8682
aI8820
aI8917
aI12214
aI13141
aI13291
aI16123
aI16465
aI19665
aI19745
aI19787
asg1
(g5
S'\x00\x00\x01\xef'
p1956
tp1957
Rp1958
(lp1959
I439
aI446
aI1783
aI1843
aI4029
aI4484
aI4588
aI5991
aI6046
aI6213
aI6659
aI6846
aI7469
aI7774
aI8353
aI8524
aI8710
aI9385
aI9793
aI9815
aI11802
aI12748
aI13466
aI13940
aI13957
aI14269
aI14373
aI14413
aI14420
aI14908
aI15383
aI15495
aI16997
aI17323
aI17715
aI17935
aI17961
aI18420
aI18642
aI18717
aI19180
aI19312
aI19393
aI19453
aI19494
aI20605
aI20614
aI20965
aI20999
asg1
(g5
S'\x00\x00\x01\xf0'
p1960
tp1961
Rp1962
(lp1963
I303
aI400
aI599
aI2234
aI2365
aI2938
aI3433
aI3485
aI3623
aI4078
aI5080
aI7319
aI7962
aI9594
aI10452
aI10482
aI11295
aI12785
aI13389
aI14048
aI15183
aI15362
aI15460
aI16574
aI16589
aI17103
aI18253
aI18290
aI18914
aI19167
aI19265
aI20496
aI20791
asg1
(g5
S'\x00\x00\x01\xf1'
p1964
tp1965
Rp1966
(lp1967
I346
aI437
aI579
aI680
aI2214
aI2431
aI2649
aI2831
aI3212
aI3556
aI3637
aI3855
aI5035
aI5475
aI5703
aI7293
aI7671
aI8325
aI8516
aI8810
aI8872
aI9117
aI9616
aI10605
aI10889
aI11201
aI12018
aI12216
aI12353
aI12700
aI12766
aI12837
aI13107
aI14541
aI14736
aI14943
aI15673
aI16868
aI18157
aI19078
aI19272
aI20034
aI20576
aI20603
asg1
(g5
S'\x00\x00\x01\xf2'
p1968
tp1969
Rp1970
(lp1971
I284
aI345
aI587
aI1504
aI1824
aI2136
aI2404
aI4100
aI4107
aI4506
aI4600
aI4772
aI4953
aI5437
aI5747
aI6084
aI6658
aI8169
aI8255
aI8987
aI9185
aI9391
aI9532
aI9722
aI10495
aI10520
aI10543
aI11769
aI11983
aI12070
aI12197
aI12607
aI13126
aI13366
aI14572
aI15267
aI15303
aI15605
aI16562
aI16594
aI17514
aI17635
aI18094
aI18296
aI18504
aI18913
aI19630
aI19971
aI20259
asg1
(g5
S'\x00\x00\x01\xf3'
p1972
tp1973
Rp1974
(lp1975
I377
aI724
aI4150
aI4163
aI4594
aI6225
aI6545
aI7057
aI7771
aI7992
aI8904
aI9152
aI9480
aI11713
aI12692
aI13433
aI14226
aI14932
aI16047
aI17852
aI19937
asg1
(g5
S'\x00\x00\x01\xf4'
p1976
tp1977
Rp1978
(lp1979
I1351
aI1986
aI2525
aI5718
aI6048
aI6391
aI6736
aI7270
aI8768
aI11582
aI12812
aI13745
aI14301
aI14432
aI15113
aI15810
aI17739
aI19594
asg1
(g5
S'\x00\x00\x01\xf5'
p1980
tp1981
Rp1982
(lp1983
I507
aI600
aI907
aI1179
aI1258
aI1899
aI1936
aI2520
aI2526
aI2606
aI2610
aI3288
aI3363
aI3506
aI4690
aI5387
aI5785
aI5901
aI6092
aI6876
aI7084
aI7748
aI8262
aI8421
aI8478
aI8565
aI9284
aI9468
aI10436
aI10448
aI11032
aI11223
aI12783
aI12787
aI15311
aI15660
aI17134
aI17611
aI18162
aI18545
aI20738
asg1
(g5
S'\x00\x00\x01\xf6'
p1984
tp1985
Rp1986
(lp1987
I640
aI1366
aI1522
aI1726
aI2330
aI2980
aI3458
aI3602
aI4198
aI4981
aI5081
aI5377
aI8345
aI10338
aI11224
aI11441
aI11597
aI12546
aI12797
aI13180
aI13961
aI14317
aI14518
aI15130
aI16787
aI16795
aI18270
asg1
(g5
S'\x00\x00\x01\xf7'
p1988
tp1989
Rp1990
(lp1991
I100
aI530
aI609
aI1146
aI1208
aI1611
aI1923
aI2287
aI2741
aI3203
aI3544
aI4183
aI4275
aI4367
aI4732
aI6438
aI6882
aI9268
aI10256
aI11049
aI11422
aI11925
aI11981
aI12601
aI12719
aI13676
aI15197
aI15545
aI17581
aI18654
aI18895
aI19163
aI20065
aI20193
aI20281
aI20445
aI20980
asg1
(g5
S'\x00\x00\x01\xf8'
p1992
tp1993
Rp1994
(lp1995
I3086
aI3693
aI3700
aI7076
aI7461
aI8168
aI8483
aI8903
aI9181
aI10328
aI11169
aI11508
aI11521
aI11907
aI12379
aI12947
aI13226
aI13242
aI13447
aI13597
aI14951
aI15292
aI15490
aI18927
aI20201
aI21012
asg1
(g5
S'\x00\x00\x01\xf9'
p1996
tp1997
Rp1998
(lp1999
I825
aI1200
aI2684
aI3232
aI3573
aI3719
aI4938
aI6371
aI7090
aI7157
aI7465
aI8173
aI8385
aI8731
aI9516
aI9655
aI10342
aI10570
aI13980
aI15125
aI15943
aI17569
aI17664
aI17692
aI17920
aI18179
aI18684
aI19412
aI20539
aI20847
asg1
(g5
S'\x00\x00\x01\xfa'
p2000
tp2001
Rp2002
(lp2003
I240
aI1070
aI1995
aI2224
aI2288
aI2523
aI3566
aI4980
aI5631
aI5643
aI5712
aI6032
aI6742
aI6984
aI7006
aI7050
aI8159
aI8488
aI10458
aI10503
aI10719
aI11098
aI12969
aI15607
aI19878
aI20232
aI20432
aI21107
asg1
(g5
S'\x00\x00\x01\xfb'
p2004
tp2005
Rp2006
(lp2007
I9
aI58
aI376
aI556
aI1305
aI1796
aI2035
aI2185
aI2604
aI3274
aI3419
aI3532
aI3630
aI3715
aI3869
aI4889
aI5031
aI5058
aI5139
aI6066
aI6592
aI6834
aI7034
aI7264
aI7445
aI7494
aI8189
aI9374
aI9650
aI9653
aI10029
aI10047
aI10305
aI10415
aI10619
aI11339
aI11444
aI11447
aI11725
aI11757
aI12590
aI13078
aI13139
aI13152
aI13280
aI13542
aI13734
aI13959
aI14700
aI14763
aI15619
aI16600
aI16818
aI17670
aI18160
aI20428
aI20941
aI21002
asg1
(g5
S'\x00\x00\x01\xfc'
p2008
tp2009
Rp2010
(lp2011
I3514
aI3670
aI3746
aI5460
aI5524
aI6543
aI6623
aI7582
aI8431
aI9733
aI10141
aI10613
aI11931
aI12991
aI13978
aI15052
aI15198
aI15947
aI16213
aI17141
aI17463
aI18093
aI18616
aI19465
aI19601
aI20639
aI20967
asg1
(g5
S'\x00\x00\x01\xfd'
p2012
tp2013
Rp2014
(lp2015
I368
aI487
aI1548
aI1722
aI2227
aI2648
aI2967
aI3112
aI3777
aI3927
aI5426
aI5471
aI5638
aI6094
aI6202
aI6270
aI6718
aI7794
aI8216
aI8417
aI8437
aI9047
aI9225
aI9351
aI9518
aI10052
aI10162
aI10428
aI10441
aI11038
aI12332
aI13637
aI13768
aI13859
aI14516
aI14665
aI14948
aI14973
aI15121
aI17124
aI17758
aI18910
aI19261
aI20075
aI20337
aI20409
aI20528
asg1
(g5
S'\x00\x00\x01\xfe'
p2016
tp2017
Rp2018
(lp2019
I27
aI194
aI336
aI761
aI1691
aI2438
aI2566
aI3326
aI4039
aI5341
aI5639
aI6821
aI7321
aI10707
aI11730
aI12280
aI14994
aI18513
aI18693
aI18757
aI19311
aI20110
aI20454
aI20673
aI20813
asg1
(g5
S'\x00\x00\x01\xff'
p2020
tp2021
Rp2022
(lp2023
I185
aI451
aI569
aI914
aI1878
aI2480
aI2721
aI3235
aI3350
aI5666
aI5963
aI8042
aI8362
aI8420
aI9092
aI9646
aI11696
aI12440
aI12915
aI13032
aI13331
aI13464
aI13700
aI13715
aI13956
aI14291
aI14462
aI14532
aI14539
aI15482
aI15924
aI16505
aI17554
aI17681
aI17756
aI18548
aI18579
aI19282
aI19576
aI20345
aI20397
aI20952
asg1
(g5
S'\x00\x00\x02\x00'
p2024
tp2025
Rp2026
(lp2027
I139
aI901
aI1100
aI1134
aI1306
aI1399
aI1589
aI2154
aI2539
aI2828
aI3579
aI4631
aI4875
aI5114
aI5189
aI5586
aI5820
aI6760
aI7568
aI7577
aI7833
aI8156
aI8378
aI8735
aI9250
aI9472
aI9621
aI9656
aI10129
aI10166
aI10201
aI11111
aI11396
aI12276
aI12498
aI14056
aI14083
aI14225
aI14545
aI14557
aI14774
aI15295
aI15388
aI15992
aI17016
aI17150
aI17540
aI17875
aI18063
aI18682
aI18865
aI19013
aI19271
aI19433
aI19839
aI20042
aI20575
aI20803
aI21099
asg1
(g5
S'\x00\x00\x02\x01'
p2028
tp2029
Rp2030
(lp2031
I393
aI1841
aI2314
aI2898
aI3864
aI4816
aI5517
aI6398
aI6575
aI6646
aI7119
aI8468
aI8983
aI10252
aI11234
aI11792
aI11909
aI11991
aI12311
aI12459
aI12821
aI12875
aI13088
aI13678
aI13767
aI14030
aI16362
aI16513
aI16825
aI17816
aI18087
aI18389
aI18489
aI19910
aI20287
aI20907
asg1
(g5
S'\x00\x00\x02\x02'
p2032
tp2033
Rp2034
(lp2035
I454
aI460
aI1330
aI1512
aI1535
aI1641
aI1684
aI1712
aI1910
aI1937
aI2083
aI2248
aI2594
aI2688
aI4660
aI5346
aI5958
aI6090
aI6145
aI6255
aI7851
aI8065
aI8199
aI8479
aI9563
aI9907
aI10360
aI10644
aI10690
aI11842
aI11988
aI12057
aI13118
aI13614
aI13968
aI14263
aI14548
aI14922
aI15715
aI16054
aI16507
aI16538
aI17053
aI17548
aI19584
asg1
(g5
S'\x00\x00\x02\x03'
p2036
tp2037
Rp2038
(lp2039
I24
aI370
aI941
aI1112
aI2277
aI3771
aI3884
aI4882
aI5513
aI6884
aI7402
aI8215
aI10335
aI10783
aI11125
aI12465
aI13123
aI13875
aI14737
aI15226
aI15820
aI16311
aI18409
aI18872
aI19881
asg1
(g5
S'\x00\x00\x02\x04'
p2040
tp2041
Rp2042
(lp2043
I534
aI1400
aI1734
aI2055
aI2636
aI2656
aI2904
aI2928
aI3221
aI3638
aI4370
aI5187
aI5227
aI5283
aI5287
aI6173
aI6334
aI6389
aI6735
aI6747
aI6751
aI6817
aI7128
aI7533
aI7955
aI7963
aI8022
aI8261
aI9488
aI9665
aI9792
aI10095
aI10143
aI10940
aI11996
aI12137
aI12261
aI13246
aI13634
aI14482
aI14867
aI15850
aI16002
aI16833
aI18149
aI19048
aI19507
aI19921
aI20236
aI20293
aI20459
aI20470
asg1
(g5
S'\x00\x00\x02\x05'
p2044
tp2045
Rp2046
(lp2047
I1435
aI2944
aI2959
aI4206
aI4456
aI5752
aI6625
aI6752
aI9575
aI15542
aI17375
aI19450
aI19711
aI19720
asg1
(g5
S'\x00\x00\x02\x06'
p2048
tp2049
Rp2050
(lp2051
I349
aI1151
aI1710
aI2036
aI2518
aI3058
aI3502
aI3598
aI3925
aI4783
aI4829
aI5077
aI5216
aI5697
aI5866
aI6087
aI6240
aI6308
aI6731
aI6825
aI6852
aI7400
aI7823
aI7956
aI8036
aI9206
aI9874
aI9878
aI10260
aI10345
aI11041
aI11118
aI11566
aI11700
aI11937
aI11949
aI12022
aI12485
aI12595
aI13321
aI13856
aI13985
aI14259
aI14369
aI14678
aI14726
aI15032
aI15148
aI15585
aI15624
aI15675
aI16804
aI17237
aI17720
aI18265
aI18442
aI18549
aI18996
aI19267
aI19286
aI19293
aI19310
aI19545
aI20157
aI20270
aI20520
aI20863
aI20872
asg1
(g5
S'\x00\x00\x02\x07'
p2052
tp2053
Rp2054
(lp2055
I1935
aI2724
aI3765
aI4745
aI6300
aI6539
aI7307
aI7713
aI8655
aI8678
aI9344
aI10400
aI10909
aI11408
aI11624
aI12718
aI12788
aI14405
aI15581
aI15662
aI16148
aI17509
aI18670
aI19553
aI20019
aI20336
aI20950
asg1
(g5
S'\x00\x00\x02\x08'
p2056
tp2057
Rp2058
(lp2059
I1097
aI1111
aI3021
aI3639
aI3664
aI5164
aI7452
aI7629
aI10823
aI12988
aI13941
aI17677
aI17945
aI20993
asg1
(g5
S'\x00\x00\x02\t'
p2060
tp2061
Rp2062
(lp2063
I5637
aI6442
aI10198
aI10663
aI14651
aI16651
aI17407
aI18134
aI20349
aI20488
asg1
(g5
S'\x00\x00\x02\n'
p2064
tp2065
Rp2066
(lp2067
I1655
aI2156
aI2811
aI2907
aI2960
aI4380
aI4425
aI4625
aI4641
aI5042
aI6412
aI6683
aI8151
aI8152
aI9360
aI9569
aI10779
aI10937
aI12082
aI12611
aI13737
aI14484
aI14626
aI15050
aI15072
aI15206
aI15719
aI15800
aI15946
aI16409
aI16685
aI17542
aI17820
aI18797
aI18822
aI19437
aI19858
aI20978
asg1
(g5
S'\x00\x00\x02\x0b'
p2068
tp2069
Rp2070
(lp2071
I166
aI3432
aI4450
aI4605
aI5470
aI6485
aI8526
aI9312
aI11052
aI13398
aI19082
aI20005
asg1
(g5
S'\x00\x00\x02\x0c'
p2072
tp2073
Rp2074
(lp2075
I656
aI695
aI851
aI885
aI2618
aI2713
aI5784
aI6895
aI7584
aI8916
aI9231
aI9812
aI10294
aI10419
aI11714
aI11728
aI11747
aI11962
aI14508
aI14728
aI15510
aI16839
aI17212
aI17395
aI18015
aI18124
aI19366
asg1
(g5
S'\x00\x00\x02\r'
p2076
tp2077
Rp2078
(lp2079
I11576
asg1
(g5
S'\x00\x00\x02\x0e'
p2080
tp2081
Rp2082
(lp2083
I1297
aI1539
aI1601
aI1744
aI1807
aI1965
aI2010
aI2027
aI2052
aI2511
aI2578
aI3364
aI3378
aI3519
aI3936
aI4801
aI5220
aI5254
aI5620
aI5721
aI5795
aI6900
aI7032
aI7425
aI7482
aI7831
aI8408
aI8832
aI9552
aI9712
aI10716
aI11341
aI11835
aI11873
aI11956
aI12654
aI12798
aI14146
aI14578
aI14596
aI14964
aI15042
aI15092
aI15354
aI15597
aI15706
aI15742
aI15753
aI16185
aI16343
aI17435
aI17786
aI17801
aI17978
aI18089
aI18150
aI18288
aI18426
aI18753
aI18971
aI19748
asg1
(g5
S'\x00\x00\x02\x0f'
p2084
tp2085
Rp2086
(lp2087
I745
aI2459
aI3293
aI3515
aI3880
aI4764
aI7232
aI8517
aI8937
aI9860
aI10200
aI10271
aI10583
aI11985
aI13855
aI14793
aI17298
aI18356
aI19011
aI19898
asg1
(g5
S'\x00\x00\x02\x10'
p2088
tp2089
Rp2090
(lp2091
I31
aI231
aI654
aI721
aI1469
aI1747
aI2367
aI2398
aI2786
aI4053
aI4193
aI4520
aI4576
aI5621
aI5808
aI6258
aI6314
aI6704
aI6953
aI7141
aI8651
aI8758
aI8782
aI8942
aI9052
aI9243
aI10291
aI10522
aI10955
aI11024
aI11319
aI11356
aI11922
aI11969
aI12179
aI12242
aI12937
aI13248
aI13735
aI15616
aI16533
aI16572
aI18113
aI19092
aI19103
aI19375
aI19902
aI20002
aI20194
aI20263
aI20630
aI20823
asg1
(g5
S'\x00\x00\x02\x11'
p2092
tp2093
Rp2094
(lp2095
I5611
aI8135
aI8247
aI11724
aI13916
aI14357
aI17231
aI18062
aI19080
asg1
(g5
S'\x00\x00\x02\x12'
p2096
tp2097
Rp2098
(lp2099
I203
aI702
aI2323
aI2498
aI2693
aI3223
aI3385
aI3908
aI4040
aI4476
aI4614
aI5244
aI5625
aI6185
aI6630
aI8038
aI8728
aI9470
aI11182
aI11501
aI12167
aI12412
aI13220
aI13315
aI13791
aI13960
aI15729
aI16341
aI17157
aI17552
aI18521
aI19335
aI19396
asg1
(g5
S'\x00\x00\x02\x13'
p2100
tp2101
Rp2102
(lp2103
I1259
aI10167
aI19470
aI20881
asg1
(g5
S'\x00\x00\x02\x14'
p2104
tp2105
Rp2106
(lp2107
I177
aI222
aI572
aI1271
aI1621
aI1804
aI2657
aI2989
aI3173
aI4744
aI5211
aI5269
aI5307
aI5572
aI5583
aI7236
aI8738
aI9658
aI10216
aI11361
aI11584
aI12202
aI12362
aI12391
aI12661
aI13095
aI13436
aI14672
aI14805
aI15108
aI15929
aI16093
aI16775
aI16909
aI17379
aI17539
aI18022
aI18703
aI19060
aI19125
aI19255
aI19761
aI20356
aI20391
aI20400
aI20671
asg1
(g5
S'\x00\x00\x02\x15'
p2108
tp2109
Rp2110
(lp2111
I4874
aI8598
aI10876
aI12758
aI14027
aI15561
aI16520
asg1
(g5
S'\x00\x00\x02\x16'
p2112
tp2113
Rp2114
(lp2115
I4983
aI5876
aI7698
aI14078
asg1
(g5
S'\x00\x00\x02\x17'
p2116
tp2117
Rp2118
(lp2119
I255
aI635
aI1534
aI1692
aI1792
aI2006
aI2299
aI3283
aI4750
aI5163
aI5171
aI5261
aI6380
aI6551
aI6676
aI7052
aI7241
aI7772
aI8018
aI8466
aI9654
aI9946
aI10807
aI11051
aI12130
aI12219
aI12257
aI12554
aI12572
aI12573
aI12855
aI12863
aI14239
aI14675
aI14854
aI14923
aI15240
aI15320
aI15511
aI15962
aI16345
aI16883
aI18437
aI18546
aI18716
aI19099
aI19668
aI19685
aI19945
asg1
(g5
S'\x00\x00\x02\x18'
p2120
tp2121
Rp2122
(lp2123
I86
aI2247
aI2312
aI4146
aI5935
aI7797
aI8265
aI8704
aI12696
aI12982
aI13845
aI14666
aI14764
aI14839
aI15265
aI16449
aI16956
aI17245
aI18231
aI19836
aI20045
aI20224
aI20334
aI20975
asg1
(g5
S'\x00\x00\x02\x19'
p2124
tp2125
Rp2126
(lp2127
I191
aI517
aI1256
aI1437
aI1443
aI1674
aI2054
aI2089
aI2486
aI3115
aI3148
aI3246
aI3679
aI3992
aI4144
aI4197
aI4598
aI5165
aI6043
aI6385
aI7389
aI7451
aI7836
aI8195
aI8229
aI8823
aI9053
aI9558
aI9928
aI10820
aI12610
aI12621
aI13134
aI13440
aI13728
aI14583
aI14611
aI16187
aI16359
aI17030
aI17361
aI19391
aI21089
asg1
(g5
S'\x00\x00\x02\x1a'
p2128
tp2129
Rp2130
(lp2131
I69
aI634
aI701
aI1420
aI1771
aI1978
aI2457
aI2624
aI3745
aI5087
aI5382
aI5544
aI5566
aI5608
aI5627
aI5826
aI6734
aI6854
aI7936
aI8268
aI8549
aI8837
aI9000
aI9142
aI9230
aI9640
aI9798
aI9862
aI10579
aI10929
aI11139
aI11640
aI12322
aI12733
aI12755
aI12819
aI13136
aI13347
aI14088
aI14119
aI14260
aI14372
aI15172
aI15174
aI15222
aI15712
aI16110
aI16355
aI16390
aI16454
aI16926
aI17071
aI17529
aI17617
aI17796
aI18263
aI18349
aI19426
aI19739
aI20033
aI20268
aI20721
aI20859
aI20871
asg1
(g5
S'\x00\x00\x02\x1b'
p2132
tp2133
Rp2134
(lp2135
I212
aI732
aI878
aI1118
aI1459
aI1831
aI1872
aI2970
aI3116
aI3298
aI4019
aI4813
aI5102
aI5670
aI5679
aI6263
aI7081
aI7191
aI7301
aI8376
aI8410
aI8653
aI10396
aI10834
aI11060
aI11140
aI11160
aI11212
aI11685
aI12290
aI12922
aI13823
aI15621
aI16710
aI16928
aI17729
aI18278
aI19251
aI19438
aI19501
aI19606
aI19917
aI20244
aI20606
aI20652
aI20777
aI20956
aI21014
asg1
(g5
S'\x00\x00\x02\x1c'
p2136
tp2137
Rp2138
(lp2139
I267
aI443
aI564
aI679
aI750
aI905
aI2045
aI2075
aI3344
aI3660
aI3824
aI4349
aI5701
aI5786
aI6301
aI6504
aI6520
aI6667
aI6721
aI7112
aI7514
aI7903
aI7932
aI9627
aI10017
aI10431
aI11514
aI12080
aI12132
aI12417
aI12909
aI13334
aI13415
aI14147
aI14370
aI14817
aI16385
aI17006
aI17039
aI17183
aI17338
aI17417
aI17456
aI17666
aI17977
aI18223
aI18259
aI18836
aI19122
aI20041
asg1
(g5
S'\x00\x00\x02\x1d'
p2140
tp2141
Rp2142
(lp2143
I34
aI374
aI979
aI1343
aI1694
aI1738
aI1822
aI1876
aI2050
aI2426
aI2772
aI2775
aI2825
aI2856
aI2878
aI3275
aI3327
aI3965
aI4473
aI5298
aI6131
aI6967
aI7489
aI7613
aI7626
aI7966
aI8029
aI9964
aI10206
aI10512
aI10959
aI11217
aI11781
aI12105
aI12666
aI12722
aI13045
aI13272
aI13500
aI13645
aI13731
aI14477
aI15502
aI15669
aI16057
aI16087
aI16100
aI16739
aI16996
aI17519
aI17676
aI17922
aI18761
aI18957
aI19284
aI19734
aI19992
aI20620
aI21013
asg1
(g5
S'\x00\x00\x02\x1e'
p2144
tp2145
Rp2146
(lp2147
I2548
aI13148
aI17256
asg1
(g5
S'\x00\x00\x02\x1f'
p2148
tp2149
Rp2150
(lp2151
I76
aI359
aI1695
aI1886
aI2160
aI2395
aI2435
aI3110
aI3345
aI3877
aI4560
aI5275
aI5326
aI5439
aI5650
aI6174
aI7545
aI8051
aI8150
aI8522
aI9378
aI9382
aI9846
aI10337
aI13487
aI13522
aI13585
aI15069
aI15402
aI16055
aI16488
aI17121
aI18014
aI18631
aI18955
aI19071
aI19274
aI19681
aI20035
asg1
(g5
S'\x00\x00\x02 '
p2152
tp2153
Rp2154
(lp2155
I2818
aI3360
aI3425
aI7038
aI7542
aI8021
aI17175
asg1
(g5
S'\x00\x00\x02!'
p2156
tp2157
Rp2158
(lp2159
I250
aI422
aI529
aI954
aI1157
aI1434
aI2016
aI3421
aI5217
aI5652
aI5888
aI6189
aI6309
aI6435
aI7282
aI7464
aI7520
aI7717
aI8956
aI9220
aI9766
aI9941
aI10041
aI11087
aI11710
aI11717
aI11889
aI12399
aI14206
aI14479
aI16404
aI16994
aI17076
aI17112
aI17877
aI18238
aI18662
aI18985
aI19045
aI19291
aI19571
aI19919
asg1
(g5
S'\x00\x00\x02"'
p2160
tp2161
Rp2162
(lp2163
I301
aI3549
aI4655
aI5156
aI6015
aI14889
asg1
(g5
S'\x00\x00\x02#'
p2164
tp2165
Rp2166
(lp2167
I894
aI913
aI939
aI1698
aI1873
aI2151
aI2164
aI2900
aI3118
aI3133
aI3870
aI3922
aI4148
aI4201
aI4338
aI4629
aI5026
aI6473
aI6925
aI7354
aI7366
aI7580
aI8225
aI8387
aI9167
aI9311
aI9938
aI10394
aI10733
aI11812
aI11918
aI12011
aI12067
aI12481
aI12890
aI13455
aI14234
aI14866
aI15447
aI16061
aI16725
aI17171
aI17235
aI17260
aI17603
aI17753
aI18287
aI19120
aI19270
aI19369
aI19504
aI19717
aI19758
aI19793
aI19847
aI20186
aI20487
aI20751
aI20757
aI20970
asg1
(g5
S'\x00\x00\x02$'
p2168
tp2169
Rp2170
(lp2171
I1
aI652
aI846
aI868
aI1517
aI3906
aI4133
aI4369
aI4399
aI4482
aI4550
aI4662
aI5109
aI5181
aI5419
aI5790
aI6855
aI7001
aI7146
aI7316
aI7587
aI7910
aI7957
aI7996
aI8283
aI8412
aI8661
aI8884
aI9022
aI9035
aI9720
aI9932
aI10257
aI10565
aI11142
aI11384
aI11808
aI12466
aI12574
aI12929
aI13446
aI13948
aI14010
aI14658
aI15832
aI15904
aI16265
aI16502
aI16723
aI17034
aI17823
aI18207
aI18220
aI18348
aI18455
aI18476
aI18898
aI19084
aI19626
aI19718
aI19979
aI20095
asg1
(g5
S'\x00\x00\x02%'
p2172
tp2173
Rp2174
(lp2175
I1071
aI2074
aI2815
aI3759
aI3969
aI7750
aI14699
aI15525
aI15639
aI16597
aI19139
aI19613
asg1
(g5
S'\x00\x00\x02&'
p2176
tp2177
Rp2178
(lp2179
I543
aI1569
aI2493
aI2877
aI3463
aI4021
aI4610
aI5012
aI5166
aI5209
aI5713
aI6138
aI6171
aI6184
aI6313
aI6593
aI7370
aI7770
aI7881
aI8133
aI8531
aI9044
aI9677
aI10317
aI11575
aI11770
aI12218
aI12614
aI12681
aI13169
aI13491
aI13770
aI14160
aI14907
aI15054
aI15202
aI15503
aI16157
aI16204
aI17074
aI17531
aI17678
aI17869
aI17876
aI18198
aI18313
aI18629
aI18889
aI19055
aI19407
aI19644
aI19731
aI19857
aI20078
aI20274
aI20330
aI20350
aI20509
aI20916
asg1
(g5
S"\x00\x00\x02'"
p2180
tp2181
Rp2182
(lp2183
I1103
aI2302
aI3424
aI3624
aI3942
aI4960
aI5154
aI5221
aI5486
aI5550
aI6246
aI6433
aI6503
aI7035
aI7406
aI8019
aI8093
aI8356
aI8491
aI9237
aI9301
aI9856
aI10837
aI11402
aI14187
aI14614
aI14654
aI14716
aI14985
aI15980
aI16452
aI16922
aI17162
aI17400
aI17507
aI19217
aI19974
aI20128
aI20264
aI20319
aI20808
asg1
(g5
S'\x00\x00\x02('
p2184
tp2185
Rp2186
(lp2187
I265
aI809
aI1196
aI1265
aI1474
aI1486
aI2053
aI2598
aI3166
aI3379
aI3420
aI3883
aI3951
aI4116
aI4153
aI4251
aI4253
aI5010
aI5040
aI5800
aI5865
aI6917
aI7689
aI7981
aI8790
aI9187
aI9200
aI9265
aI9317
aI9482
aI9562
aI9833
aI9883
aI11414
aI11475
aI11697
aI11959
aI13618
aI14785
aI15421
aI15861
aI16167
aI16373
aI16403
aI16497
aI16521
aI17391
aI17675
aI17960
aI18169
aI18183
aI18299
aI18514
aI18695
aI19966
aI20118
asg1
(g5
S'\x00\x00\x02)'
p2188
tp2189
Rp2190
(lp2191
I4306
aI10575
aI17582
aI20050
asg1
(g5
S'\x00\x00\x02*'
p2192
tp2193
Rp2194
(lp2195
I5671
aI11951
aI12089
aI13484
aI15111
aI16121
aI18840
aI20717
asg1
(g5
S'\x00\x00\x02+'
p2196
tp2197
Rp2198
(lp2199
I1113
aI1801
aI4001
aI5104
aI5144
aI5458
aI5676
aI7311
aI10529
aI11511
aI11513
aI11716
aI12289
aI13780
aI13849
aI14786
aI16790
aI16849
aI16902
aI17397
aI17844
aI17861
aI18830
aI19001
aI20822
asg1
(g5
S'\x00\x00\x02,'
p2200
tp2201
Rp2202
(lp2203
I258
aI1186
aI1760
aI2034
aI2192
aI3629
aI3751
aI3962
aI4222
aI4627
aI5363
aI6057
aI6224
aI6576
aI6908
aI6982
aI8558
aI8811
aI8951
aI9418
aI9531
aI9979
aI11822
aI12706
aI13465
aI14682
aI15430
aI16215
aI17575
aI17588
aI18395
aI18595
aI18722
aI19059
aI20023
aI20135
asg1
(g5
S'\x00\x00\x02-'
p2204
tp2205
Rp2206
(lp2207
I232
aI292
aI479
aI1922
aI1975
aI2182
aI2260
aI2683
aI3475
aI3852
aI4463
aI4977
aI5630
aI7675
aI8049
aI9080
aI10429
aI10831
aI10844
aI10993
aI11476
aI11705
aI12889
aI13066
aI15603
aI16320
aI18773
aI19256
aI19554
aI19814
aI19904
aI20112
aI21011
asg1
(g5
S'\x00\x00\x02.'
p2208
tp2209
Rp2210
(lp2211
I531
aI1546
aI3153
aI3340
aI5151
aI5456
aI5836
aI5939
aI6939
aI6941
aI7292
aI7474
aI7595
aI7656
aI8257
aI9100
aI9460
aI10050
aI10171
aI10956
aI13512
aI13914
aI14329
aI15006
aI15260
aI16143
aI16427
aI17058
aI17299
aI17845
aI19047
aI19147
aI19897
aI20681
asg1
(g5
S'\x00\x00\x02/'
p2212
tp2213
Rp2214
(lp2215
I4944
asg1
(g5
S'\x00\x00\x020'
p2216
tp2217
Rp2218
(lp2219
I398
aI781
aI904
aI1894
aI1963
aI2296
aI2840
aI3052
aI3165
aI4114
aI4285
aI5803
aI5921
aI7722
aI7725
aI8709
aI8861
aI9256
aI11247
aI12470
aI12504
aI13669
aI14022
aI14152
aI14195
aI14801
aI15613
aI16806
aI16867
aI17065
aI18261
aI18785
aI19333
aI19784
aI20009
aI20885
asg1
(g5
S'\x00\x00\x021'
p2220
tp2221
Rp2222
(lp2223
I16331
aI18057
aI20254
asg1
(g5
S'\x00\x00\x022'
p2224
tp2225
Rp2226
(lp2227
I230
aI355
aI450
aI1266
aI3655
aI4007
aI4933
aI5863
aI6108
aI7207
aI7252
aI7821
aI7852
aI9425
aI10617
aI10982
aI11831
aI12178
aI14546
aI15159
aI15165
aI15406
aI15945
aI16353
aI16496
aI16564
aI17021
aI17770
aI18242
aI19026
asg1
(g5
S'\x00\x00\x023'
p2228
tp2229
Rp2230
(lp2231
I1357
aI4077
aI4891
aI4966
aI5103
aI5531
aI5700
aI5900
aI8130
aI8140
aI9235
aI9458
aI10513
aI10607
aI11187
aI11780
aI12460
aI12921
aI13217
aI13580
aI13641
aI13774
aI14080
aI14483
aI14800
aI14971
aI15061
aI15516
aI15680
aI15761
aI15770
aI16347
aI17316
aI17892
aI19033
aI19085
aI19097
aI19696
aI19786
aI19977
aI20172
aI20178
aI20410
aI20593
aI20765
aI21062
asg1
(g5
S'\x00\x00\x024'
p2232
tp2233
Rp2234
(lp2235
I178
aI805
aI1369
aI1789
aI2612
aI3444
aI3893
aI4498
aI4760
aI5062
aI7935
aI8267
aI11211
aI11903
aI12716
aI13378
aI14670
aI16650
aI16923
aI18310
aI20235
aI20676
aI21053
asg1
(g5
S'\x00\x00\x025'
p2236
tp2237
Rp2238
(lp2239
I160
aI310
aI478
aI494
aI766
aI1436
aI1510
aI1586
aI2286
aI2753
aI2782
aI5017
aI5610
aI5678
aI6944
aI7574
aI8010
aI8245
aI9853
aI9992
aI10392
aI10421
aI10659
aI12335
aI14366
aI14568
aI14940
aI16091
aI18229
aI19350
aI19487
asg1
(g5
S'\x00\x00\x026'
p2240
tp2241
Rp2242
(lp2243
I351
aI764
aI3241
aI3634
aI4348
aI5961
aI6149
aI6950
aI8469
aI8480
aI10668
aI10685
aI11170
aI11192
aI13372
aI14300
aI14364
aI14938
aI16259
aI16809
aI16977
aI17356
aI18435
aI18871
aI19347
aI19348
aI19436
aI20647
asg1
(g5
S'\x00\x00\x027'
p2244
tp2245
Rp2246
(lp2247
I1006
aI1158
aI1429
aI2702
aI3310
aI4927
aI5126
aI5481
aI8295
aI8601
aI8686
aI9132
aI9182
aI9703
aI10164
aI10330
aI11106
aI11310
aI12154
aI12521
aI12674
aI12699
aI13181
aI13550
aI14072
aI14543
aI15152
aI15229
aI15841
aI16193
aI16893
aI17041
aI17319
aI17334
aI17805
aI18439
aI18468
aI18890
aI19303
aI19477
aI19517
aI20096
aI20507
asg1
(g5
S'\x00\x00\x028'
p2248
tp2249
Rp2250
(lp2251
I1507
aI1818
aI2139
aI2371
aI2918
aI3622
aI3661
aI3800
aI4101
aI4297
aI4303
aI5303
aI6141
aI6702
aI6705
aI7233
aI7829
aI8059
aI8251
aI8578
aI8885
aI8972
aI10490
aI11322
aI11482
aI11793
aI13183
aI13721
aI13755
aI13844
aI13891
aI13928
aI14517
aI16279
aI16627
aI17312
aI17426
aI18620
aI19205
aI19417
aI19486
aI19516
aI19598
aI20273
aI20651
aI20930
asg1
(g5
S'\x00\x00\x029'
p2252
tp2253
Rp2254
(lp2255
I181
aI560
aI759
aI1251
aI1438
aI2106
aI2275
aI3521
aI3659
aI3711
aI3809
aI3885
aI4623
aI4667
aI4992
aI6124
aI7543
aI7954
aI8970
aI9086
aI9637
aI10152
aI10243
aI10778
aI11127
aI11667
aI12370
aI12648
aI13569
aI13711
aI13877
aI14004
aI15022
aI15119
aI16016
aI16032
aI16308
aI16631
aI17815
aI18520
aI19614
aI20066
aI20516
aI21005
asg1
(g5
S'\x00\x00\x02:'
p2256
tp2257
Rp2258
(lp2259
I409
aI857
aI1059
aI2303
aI2466
aI2589
aI2913
aI3560
aI3654
aI3741
aI4365
aI5297
aI6167
aI6384
aI6674
aI7031
aI7043
aI7268
aI7468
aI8618
aI9757
aI10284
aI10958
aI11280
aI11489
aI12052
aI12192
aI12520
aI12682
aI13137
aI14496
aI14755
aI14807
aI14921
aI15217
aI15644
aI16432
aI17000
aI17198
aI17343
aI17842
aI19633
aI20298
aI20348
asg1
(g5
S'\x00\x00\x02;'
p2260
tp2261
Rp2262
(lp2263
I1525
aI9058
aI13687
aI20142
asg1
(g5
S'\x00\x00\x02<'
p2264
tp2265
Rp2266
(lp2267
I684
aI716
aI1857
aI1897
aI2390
aI3491
aI3900
aI4919
aI5131
aI5197
aI5262
aI5390
aI5916
aI6172
aI6411
aI6446
aI6930
aI7924
aI7976
aI8067
aI8402
aI8935
aI9286
aI9530
aI9885
aI9933
aI10799
aI10847
aI12085
aI12110
aI12283
aI12950
aI14032
aI14456
aI15219
aI15286
aI15964
aI16690
aI17643
aI17651
aI17694
aI19258
aI19373
aI20610
asg1
(g5
S'\x00\x00\x02='
p2268
tp2269
Rp2270
(lp2271
I22
aI489
aI1304
aI1645
aI1787
aI1971
aI2269
aI2819
aI2906
aI2946
aI3104
aI3218
aI3510
aI3513
aI4228
aI4422
aI4496
aI5288
aI5480
aI5685
aI5744
aI6019
aI6151
aI6198
aI6269
aI6536
aI6903
aI7059
aI8076
aI8249
aI8718
aI8936
aI9145
aI9242
aI9275
aI9363
aI9394
aI9477
aI10213
aI10385
aI10390
aI10507
aI10557
aI10703
aI10994
aI11836
aI11911
aI12735
aI13147
aI13342
aI13907
aI14289
aI15009
aI15264
aI15315
aI15856
aI16205
aI16416
aI17073
aI17496
aI17749
aI18042
aI18697
aI19130
aI19499
aI19521
aI20211
aI20218
asg1
(g5
S'\x00\x00\x02>'
p2272
tp2273
Rp2274
(lp2275
I415
aI1864
aI2212
aI2246
aI4841
aI4923
aI5175
aI5952
aI6392
aI6636
aI7042
aI7795
aI7905
aI8649
aI8781
aI8867
aI8899
aI8977
aI9255
aI11485
aI11570
aI11742
aI11952
aI12005
aI12098
aI12689
aI14175
aI14314
aI14692
aI14784
aI14993
aI15529
aI15679
aI15826
aI17459
aI17480
aI18477
aI19165
aI20824
asg1
(g5
S'\x00\x00\x02?'
p2276
tp2277
Rp2278
(lp2279
I807
aI993
aI1150
aI1663
aI1800
aI2181
aI3476
aI4785
aI4959
aI5118
aI5917
aI7163
aI8436
aI9430
aI9537
aI9541
aI9641
aI9842
aI10043
aI10773
aI10965
aI11122
aI11924
aI11932
aI12008
aI12458
aI12537
aI12604
aI12898
aI14203
aI14441
aI14691
aI15707
aI15838
aI15956
aI16369
aI17807
aI18101
aI19022
aI20672
aI20700
aI20706
aI20861
asg1
(g5
S'\x00\x00\x02@'
p2280
tp2281
Rp2282
(lp2283
I852
aI1412
aI1765
aI1850
aI1883
aI1920
aI2280
aI3511
aI3797
aI4136
aI5383
aI5468
aI6159
aI6541
aI7964
aI8191
aI9297
aI9945
aI10034
aI10066
aI10221
aI10743
aI11172
aI12013
aI12255
aI12709
aI12731
aI14576
aI15093
aI15459
aI15517
aI15833
aI15950
aI16058
aI16785
aI16933
aI17044
aI17069
aI17186
aI17561
aI18066
aI18184
aI18585
aI18893
aI19145
aI19236
aI19259
aI20068
aI20212
aI20249
aI20282
aI20510
asg1
(g5
S'\x00\x00\x02A'
p2284
tp2285
Rp2286
(lp2287
I2176
aI3387
aI3486
aI7534
aI8108
aI11534
aI11600
aI16653
asg1
(g5
S'\x00\x00\x02B'
p2288
tp2289
Rp2290
(lp2291
I10156
asg1
(g5
S'\x00\x00\x02C'
p2292
tp2293
Rp2294
(lp2295
I358
aI827
aI2133
aI3547
aI3658
aI4491
aI4741
aI5913
aI5996
aI6547
aI6755
aI7415
aI7492
aI7524
aI7817
aI9068
aI9247
aI11026
aI12779
aI13613
aI14401
aI14470
aI16643
aI18217
aI18542
aI19164
aI19420
aI20627
asg1
(g5
S'\x00\x00\x02D'
p2296
tp2297
Rp2298
(lp2299
I1272
aI2623
aI2669
aI3177
aI3239
aI3562
aI5152
aI5356
aI6052
aI6616
aI6955
aI7046
aI7485
aI7594
aI7902
aI8277
aI8701
aI9599
aI9849
aI9872
aI10012
aI10717
aI11263
aI11506
aI11897
aI12418
aI12427
aI12693
aI13371
aI14186
aI14376
aI15085
aI15699
aI15792
aI16381
aI16705
aI16873
aI17728
aI18606
aI18939
aI19726
aI19737
aI20237
aI20932
asg1
(g5
S'\x00\x00\x02E'
p2300
tp2301
Rp2302
(lp2303
I135
aI1045
aI1286
aI1758
aI3710
aI5389
aI6076
aI6133
aI6206
aI7448
aI8188
aI9810
aI10594
aI11168
aI11368
aI12194
aI12369
aI12707
aI12934
aI13713
aI14843
aI15293
aI15413
aI15448
aI16843
aI17578
aI20915
asg1
(g5
S'\x00\x00\x02G'
p2304
tp2305
Rp2306
(lp2307
I183
aI305
aI585
aI864
aI1144
aI1717
aI3571
aI3733
aI4492
aI4571
aI6878
aI7857
aI8444
aI10577
aI10828
aI10850
aI10880
aI11161
aI11318
aI11689
aI12045
aI12211
aI13428
aI14219
aI15632
aI18559
aI18681
aI18869
aI18881
aI19069
aI19264
aI19583
aI20290
aI20954
asg1
(g5
S'\x00\x00\x02H'
p2308
tp2309
Rp2310
(lp2311
I2452
aI4770
aI7279
aI12536
aI15594
asg1
(g5
S'\x00\x00\x02I'
p2312
tp2313
Rp2314
(lp2315
I65
aI1241
aI1488
aI4223
aI6123
aI6414
aI7078
aI7679
aI8068
aI8508
aI8560
aI8830
aI8975
aI11073
aI11385
aI11874
aI12510
aI12841
aI13829
aI13876
aI16919
aI16929
aI16992
aI17048
aI17137
aI17839
aI18106
aI19302
asg1
(g5
S'\x00\x00\x02J'
p2316
tp2317
Rp2318
(lp2319
I1213
aI1964
aI2596
aI3005
aI3587
aI3812
aI4616
aI5282
aI6420
aI6557
aI7007
aI7387
aI7640
aI8734
aI8961
aI9790
aI10121
aI10887
aI11483
aI13930
aI14798
aI14916
aI15013
aI15445
aI15949
aI17594
aI18487
aI18932
aI19334
aI19716
aI20725
aI20934
aI21102
asg1
(g5
S'\x00\x00\x02K'
p2320
tp2321
Rp2322
(lp2323
I5561
aI6776
aI8787
aI9576
aI11904
asg1
(g5
S'\x00\x00\x02L'
p2324
tp2325
Rp2326
(lp2327
I206
aI589
aI963
aI967
aI1572
aI2135
aI3264
aI3402
aI3534
aI4064
aI4409
aI4661
aI4740
aI4926
aI5403
aI6074
aI6120
aI6280
aI6486
aI6627
aI6983
aI7181
aI8031
aI8512
aI8705
aI9494
aI9781
aI10665
aI10795
aI12260
aI12304
aI12637
aI13758
aI13819
aI15175
aI15227
aI17107
aI17645
aI18008
aI18650
aI19155
aI19409
aI19849
aI20156
asg1
(g5
S'\x00\x00\x02M'
p2328
tp2329
Rp2330
(lp2331
I259
aI622
aI754
aI1881
aI2274
aI4071
aI4455
aI4534
aI4730
aI5552
aI6322
aI6647
aI7286
aI7460
aI7782
aI7899
aI8248
aI8377
aI8567
aI8712
aI10197
aI10279
aI10810
aI10860
aI11381
aI11551
aI11767
aI13686
aI13723
aI14595
aI14917
aI14970
aI15249
aI15648
aI16713
aI16743
aI16765
aI16853
aI17129
aI17159
aI17176
aI18469
aI18506
aI19443
aI19551
aI19651
aI20299
aI20361
aI20518
asg1
(g5
S'\x00\x00\x02N'
p2332
tp2333
Rp2334
(lp2335
I220
aI2797
aI6203
aI7496
aI8958
aI10138
aI12157
aI12471
aI13203
aI15434
aI15876
aI16005
aI16728
aI19592
aI19932
asg1
(g5
S'\x00\x00\x02O'
p2336
tp2337
Rp2338
(lp2339
I902
aI1612
aI1868
aI2166
aI2585
aI2935
aI3574
aI3716
aI3807
aI3960
aI4519
aI4742
aI4743
aI4961
aI5110
aI5230
aI6613
aI7092
aI8196
aI8333
aI8681
aI9699
aI10616
aI11478
aI11569
aI11964
aI12034
aI12207
aI13060
aI13119
aI13202
aI13211
aI13278
aI13495
aI13515
aI14134
aI14724
aI15296
aI16115
aI16189
aI16225
aI17557
aI18031
aI18142
aI18221
aI18378
aI18510
aI20239
aI20359
asg1
(g5
S'\x00\x00\x02P'
p2340
tp2341
Rp2342
(lp2343
I522
aI549
aI715
aI762
aI790
aI1380
aI1715
aI2276
aI2757
aI2813
aI3518
aI4727
aI4885
aI5057
aI5897
aI5965
aI6524
aI6856
aI6910
aI6938
aI7883
aI7951
aI8110
aI8471
aI8628
aI8733
aI8848
aI9830
aI10267
aI10373
aI10660
aI11023
aI11229
aI11591
aI11971
aI13090
aI13406
aI13514
aI13531
aI13644
aI15191
aI15881
aI16114
aI17047
aI17401
aI17723
aI18952
aI19269
aI19388
aI19525
aI20533
asg1
(g5
S'\x00\x00\x02Q'
p2344
tp2345
Rp2346
(lp2347
I29
aI3448
aI11214
aI12003
aI17881
aI18462
asg1
(g5
S'\x00\x00\x02R'
p2348
tp2349
Rp2350
(lp2351
I808
aI4122
aI4541
aI5519
aI6315
aI7266
aI8180
aI8759
aI9331
aI9432
aI10082
aI10177
aI10217
aI11006
aI12324
aI12423
aI13475
aI14944
aI16234
aI16820
aI18029
aI20817
asg1
(g5
S'\x00\x00\x02S'
p2352
tp2353
Rp2354
(lp2355
I1732
aI1832
aI2092
aI2447
aI3501
aI3712
aI4294
aI4596
aI4650
aI6284
aI6290
aI6888
aI7039
aI7618
aI7753
aI8489
aI9490
aI10951
aI11974
aI12236
aI12432
aI12771
aI12882
aI13850
aI14362
aI14600
aI14794
aI15167
aI16786
aI16856
aI17054
aI18289
aI18402
aI19851
aI20324
aI20846
asg1
(g5
S'\x00\x00\x02T'
p2356
tp2357
Rp2358
(lp2359
I4196
aI8481
aI12027
aI12494
aI14305
aI17399
aI17962
aI18422
aI18538
aI18614
aI19955
asg1
(g5
S'\x00\x00\x02U'
p2360
tp2361
Rp2362
(lp2363
I242
aI1627
aI1690
aI2496
aI2957
aI3238
aI3331
aI3409
aI3490
aI3690
aI4905
aI5821
aI6165
aI6803
aI7313
aI7356
aI7454
aI7729
aI7870
aI8593
aI8667
aI8843
aI9063
aI9687
aI9867
aI10090
aI10190
aI10259
aI10674
aI10971
aI11233
aI11340
aI11978
aI12061
aI12338
aI12672
aI13766
aI13972
aI14076
aI14402
aI15849
aI16056
aI17555
aI18453
aI19399
aI20073
asg1
(g5
S'\x00\x00\x02V'
p2364
tp2365
Rp2366
(lp2367
I217
aI225
aI459
aI1180
aI1199
aI1419
aI1626
aI1901
aI1989
aI2126
aI4018
aI4469
aI5182
aI5194
aI5210
aI6327
aI6649
aI6775
aI6996
aI7066
aI7189
aI7463
aI8988
aI9159
aI9503
aI9919
aI10241
aI10316
aI10527
aI10862
aI10885
aI10949
aI11270
aI11598
aI11773
aI12136
aI12957
aI13013
aI13469
aI13480
aI13507
aI13530
aI13923
aI14490
aI15762
aI16071
aI16075
aI16418
aI16462
aI17247
aI17419
aI17779
aI17997
aI18326
aI18394
aI20117
asg1
(g5
S'\x00\x00\x02W'
p2368
tp2369
Rp2370
(lp2371
I402
aI683
aI2095
aI2419
aI2549
aI2932
aI3196
aI4003
aI4060
aI4746
aI5904
aI6010
aI6247
aI7070
aI7390
aI7651
aI7861
aI8041
aI8200
aI8224
aI10925
aI11132
aI13736
aI15010
aI15209
aI16159
aI16379
aI16764
aI17673
aI18336
aI18590
aI20126
aI20689
asg1
(g5
S'\x00\x00\x02X'
p2372
tp2373
Rp2374
(lp2375
I1249
asg1
(g5
S'\x00\x00\x02Y'
p2376
tp2377
Rp2378
(lp2379
I121
aI298
aI877
aI1183
aI1193
aI1455
aI1976
aI2350
aI4006
aI4601
aI5008
aI5020
aI7058
aI8456
aI10133
aI10297
aI11268
aI11433
aI11746
aI12294
aI12475
aI12552
aI13581
aI14404
aI14925
aI15330
aI15496
aI16463
aI16468
aI16914
aI18284
aI19618
aI19629
aI20406
aI20471
aI21047
asg1
(g5
S'\x00\x00\x02Z'
p2380
tp2381
Rp2382
(lp2383
I584
aI645
aI777
aI919
aI921
aI1895
aI2478
aI2771
aI3122
aI3144
aI3933
aI3974
aI4074
aI4354
aI4561
aI4939
aI5428
aI5742
aI6906
aI6979
aI7164
aI7246
aI7291
aI8118
aI8372
aI9527
aI9741
aI9961
aI10893
aI11772
aI11941
aI12394
aI12500
aI12843
aI13223
aI14182
aI14713
aI14781
aI15305
aI15839
aI16220
aI16460
aI16983
aI17267
aI17558
aI17719
aI17827
aI18450
aI19960
aI20222
aI20407
aI20731
aI20979
asg1
(g5
S'\x00\x00\x02['
p2384
tp2385
Rp2386
(lp2387
I1110
aI3494
aI5267
aI5353
aI6093
aI7649
aI8756
aI8927
aI9376
aI10199
aI10758
aI11934
aI11945
aI12967
aI13958
aI14009
aI15917
aI17437
aI18766
aI20865
asg1
(g5
S'\x00\x00\x02\\'
p2388
tp2389
Rp2390
(lp2391
I66
aI159
aI205
aI224
aI273
aI911
aI989
aI1159
aI1280
aI1461
aI2562
aI2576
aI2833
aI3017
aI3708
aI4533
aI4799
aI5234
aI6299
aI6634
aI6707
aI6744
aI6889
aI7144
aI7385
aI8148
aI8328
aI8520
aI8557
aI9298
aI9322
aI9324
aI9769
aI9937
aI10721
aI10911
aI11124
aI11156
aI11586
aI11605
aI11651
aI11715
aI12368
aI12422
aI12603
aI12725
aI13067
aI13338
aI13357
aI13519
aI13616
aI14199
aI14292
aI14469
aI15134
aI15527
aI16284
aI16688
aI16744
aI16846
aI16990
aI17165
aI17248
aI17269
aI17297
aI17450
aI17476
aI17497
aI18224
aI18475
aI19732
aI19986
aI20275
aI20892
asg1
(g5
S'\x00\x00\x02]'
p2392
tp2393
Rp2394
(lp2395
I625
aI733
aI876
aI950
aI1101
aI1225
aI2206
aI2464
aI5628
aI6249
aI6693
aI6923
aI8272
aI8866
aI8914
aI10069
aI10380
aI10508
aI11592
aI12028
aI12832
aI13084
aI13720
aI14986
aI15464
aI16132
aI16363
aI16758
aI17102
aI18401
aI19757
aI19938
asg1
(g5
S'\x00\x00\x02^'
p2396
tp2397
Rp2398
(lp2399
I2251
aI2386
aI3048
aI3873
aI3963
aI4143
aI4423
aI5180
aI5710
aI6477
aI7168
aI7237
aI7269
aI7417
aI7804
aI9160
aI9370
aI9960
aI10261
aI10589
aI10723
aI11821
aI11913
aI12365
aI13057
aI13072
aI13536
aI14926
aI15801
aI16298
aI16414
aI17229
aI17740
aI18191
aI19562
aI19830
aI19933
aI20702
aI20807
aI20984
asg1
(g5
S'\x00\x00\x02_'
p2400
tp2401
Rp2402
(lp2403
I3282
aI5237
aI5534
aI7020
aI7953
aI10731
aI16655
aI17250
aI18500
aI18509
asg1
(g5
S'\x00\x00\x02`'
p2404
tp2405
Rp2406
(lp2407
I1243
aI1490
aI1594
aI2077
aI3205
aI3833
aI4147
aI5292
aI6180
aI6904
aI7481
aI8502
aI9101
aI9428
aI9710
aI9977
aI10024
aI10283
aI11283
aI11306
aI11816
aI12056
aI12791
aI12864
aI12978
aI13583
aI13778
aI14294
aI14296
aI14390
aI15578
aI15925
aI16811
aI17254
aI17637
aI17682
aI17800
aI18206
aI18277
aI19159
aI19874
aI20477
asg1
(g5
S'\x00\x00\x02a'
p2408
tp2409
Rp2410
(lp2411
I9033
aI9088
aI16675
aI20959
asg1
(g5
S'\x00\x00\x02b'
p2412
tp2413
Rp2414
(lp2415
I4249
aI4795
aI6514
aI6987
aI9949
aI16620
aI16680
aI16851
asg1
(g5
S'\x00\x00\x02c'
p2416
tp2417
Rp2418
(lp2419
I245
aI869
aI1117
aI1130
aI3210
aI5753
aI7788
aI8337
aI8666
aI9364
aI9587
aI10808
aI11407
aI13333
aI13527
aI13832
aI14286
aI14840
aI14905
aI15552
aI15871
aI17090
aI19695
aI19723
aI19948
asg1
(g5
S'\x00\x00\x02d'
p2420
tp2421
Rp2422
(lp2423
I1296
aI10142
aI13096
aI13421
aI17537
aI20354
asg1
(g5
S'\x00\x00\x02e'
p2424
tp2425
Rp2426
(lp2427
I691
aI1518
aI1591
aI1994
aI2328
aI2495
aI2895
aI3155
aI3182
aI3269
aI4695
aI4752
aI6063
aI6323
aI6762
aI6780
aI6819
aI6974
aI7256
aI7865
aI8000
aI8457
aI9492
aI10051
aI10367
aI10457
aI11585
aI11609
aI11939
aI12240
aI12243
aI12532
aI12635
aI12973
aI13477
aI13652
aI14101
aI14327
aI14773
aI14857
aI16203
aI16664
aI17147
aI18364
aI18369
aI18967
aI20146
aI20556
asg1
(g5
S'\x00\x00\x02f'
p2428
tp2429
Rp2430
(lp2431
I60
aI176
aI591
aI659
aI811
aI824
aI1912
aI2270
aI3608
aI4777
aI5136
aI5926
aI6393
aI7548
aI7769
aI8636
aI8693
aI9295
aI10314
aI10657
aI10838
aI11298
aI12081
aI12094
aI12145
aI12228
aI12393
aI12598
aI12804
aI13456
aI13863
aI14647
aI15593
aI15721
aI15830
aI16307
aI16717
aI17610
aI18863
aI19090
aI19446
aI19705
aI20133
aI20549
aI20636
asg1
(g5
S'\x00\x00\x02g'
p2432
tp2433
Rp2434
(lp2435
I237
aI416
aI1174
aI1425
aI1524
aI2124
aI3186
aI3209
aI3266
aI3480
aI3612
aI3907
aI5394
aI5835
aI5954
aI5995
aI6998
aI7095
aI7221
aI7302
aI7928
aI8155
aI8559
aI8658
aI8858
aI9193
aI9272
aI9339
aI10202
aI10422
aI10916
aI10918
aI11145
aI11400
aI11452
aI12053
aI12155
aI12516
aI14615
aI14634
aI14862
aI15574
aI15990
aI16154
aI16182
aI16232
aI16378
aI16703
aI18018
aI18407
aI18416
aI19288
aI20514
aI20524
asg1
(g5
S'\x00\x00\x02h'
p2436
tp2437
Rp2438
(lp2439
I10320
asg1
(g5
S'\x00\x00\x02i'
p2440
tp2441
Rp2442
(lp2443
I686
aI2784
aI4559
aI5667
aI6530
aI6826
aI7196
aI7208
aI9763
aI10497
aI11554
aI11642
aI11754
aI11830
aI12400
aI12624
aI12740
aI13661
aI13772
aI17616
aI18807
aI19362
aI19895
aI20456
asg1
(g5
S'\x00\x00\x02j'
p2444
tp2445
Rp2446
(lp2447
I30
aI47
aI285
aI542
aI1332
aI2436
aI2712
aI2801
aI3198
aI3672
aI3674
aI5208
aI5279
aI5294
aI5324
aI5585
aI5594
aI5931
aI6507
aI7098
aI7249
aI7351
aI7364
aI7419
aI8458
aI8813
aI9054
aI9122
aI9186
aI9209
aI9251
aI9321
aI9917
aI10144
aI10921
aI11015
aI11094
aI11914
aI11938
aI12095
aI12592
aI13033
aI13190
aI13311
aI13504
aI14183
aI14540
aI15373
aI15395
aI16050
aI16113
aI16285
aI16483
aI17278
aI17536
aI17597
aI18575
aI18945
aI18978
aI19419
aI19519
aI19575
aI19632
aI20685
asg1
(g5
S'\x00\x00\x02k'
p2448
tp2449
Rp2450
(lp2451
I467
aI667
aI689
aI994
aI1755
aI1840
aI3374
aI4036
aI4379
aI4411
aI5138
aI5433
aI5959
aI6402
aI7513
aI7921
aI8121
aI8552
aI8588
aI9551
aI9636
aI10339
aI10859
aI11055
aI11487
aI12527
aI12608
aI13101
aI14877
aI14967
aI15133
aI15189
aI15245
aI15481
aI16127
aI17421
aI17545
aI17696
aI17735
aI18077
aI18187
aI18508
aI18534
aI18573
aI18772
aI18832
aI18977
aI20167
aI20335
aI20597
asg1
(g5
S'\x00\x00\x02l'
p2452
tp2453
Rp2454
(lp2455
I997
aI2002
aI5233
aI5749
aI6368
aI7124
aI8238
aI11346
aI12772
aI15397
aI17253
aI19841
asg1
(g5
S'\x00\x00\x02m'
p2456
tp2457
Rp2458
(lp2459
I142
aI606
aI1531
aI2565
aI2939
aI4758
aI5485
aI7152
aI7901
aI9097
aI9341
aI9903
aI10720
aI11286
aI12402
aI14151
aI14339
aI14963
aI15518
aI16012
aI18071
aI19675
aI20269
asg1
(g5
S'\x00\x00\x02n'
p2460
tp2461
Rp2462
(lp2463
I354
aI943
aI1349
aI2112
aI2150
aI2177
aI2507
aI2956
aI3201
aI4002
aI4157
aI4404
aI4624
aI4976
aI5023
aI5429
aI5563
aI5957
aI6191
aI6768
aI7177
aI7342
aI7505
aI7535
aI8104
aI8306
aI8496
aI8840
aI10061
aI10183
aI10927
aI10957
aI11103
aI11443
aI11494
aI11957
aI12238
aI13174
aI13262
aI13351
aI13399
aI13534
aI13601
aI13681
aI14230
aI16281
aI17974
aI17996
aI18319
aI18352
aI18683
aI18979
aI19219
aI19753
aI20538
aI20800
aI20806
aI21074
asg1
(g5
S'\x00\x00\x02o'
p2464
tp2465
Rp2466
(lp2467
I314
aI484
aI1482
aI3308
aI3342
aI4568
aI5689
aI6292
aI6958
aI7022
aI7122
aI7329
aI7538
aI8331
aI8459
aI8605
aI10991
aI12097
aI12631
aI12780
aI13824
aI14485
aI14519
aI14730
aI15308
aI15914
aI19030
aI20182
aI20826
asg1
(g5
S'\x00\x00\x02p'
p2468
tp2469
Rp2470
(lp2471
I886
aI903
aI1647
aI1932
aI1959
aI2492
aI2533
aI2637
aI3034
aI3101
aI3589
aI4969
aI4978
aI5056
aI5150
aI6217
aI6345
aI6582
aI6893
aI7199
aI7361
aI7475
aI7947
aI8652
aI9024
aI9606
aI9840
aI9870
aI10228
aI10262
aI11064
aI11328
aI11984
aI12293
aI12721
aI13240
aI14307
aI15028
aI15132
aI15749
aI15799
aI16408
aI16558
aI16598
aI16749
aI17382
aI17491
aI17989
aI18273
aI18334
aI18580
aI18657
aI18793
aI18809
aI19028
aI19963
aI20204
aI20732
aI20798
aI20990
aI21067
aI21092
asg1
(g5
S'\x00\x00\x02q'
p2472
tp2473
Rp2474
(lp2475
I291
aI433
aI500
aI744
aI949
aI2009
aI2094
aI2127
aI4052
aI4316
aI4538
aI4802
aI6231
aI6682
aI8213
aI8281
aI9008
aI9442
aI9608
aI10586
aI10732
aI10750
aI10812
aI12076
aI12676
aI12970
aI12979
aI14811
aI15952
aI17462
aI17626
aI17802
aI18724
aI19300
aI20000
aI20219
aI20931
asg1
(g5
S'\x00\x00\x02r'
p2476
tp2477
Rp2478
(lp2479
I423
aI2141
aI4051
aI4837
aI5359
aI5568
aI7732
aI8769
aI9027
aI10401
aI11567
aI12632
aI15740
aI16098
aI16165
aI19663
aI19865
aI20887
asg1
(g5
S'\x00\x00\x02s'
p2480
tp2481
Rp2482
(lp2483
I323
aI429
aI1794
aI2359
aI3114
aI3180
aI3996
aI4642
aI4693
aI4731
aI6070
aI6192
aI7813
aI8102
aI8296
aI9125
aI9466
aI10278
aI10306
aI10829
aI11659
aI11727
aI11915
aI12374
aI12558
aI12728
aI13352
aI13609
aI14038
aI14324
aI14335
aI15568
aI15759
aI16897
aI17891
aI18069
aI18658
aI19149
aI19340
aI19480
aI19722
aI20226
aI20590
aI21032
asg1
(g5
S'\x00\x00\x02t'
p2484
tp2485
Rp2486
(lp2487
I78
aI596
aI646
aI734
aI883
aI991
aI1142
aI1181
aI1270
aI1736
aI1774
aI2463
aI4103
aI4256
aI4287
aI4911
aI4982
aI5043
aI5147
aI5469
aI5941
aI6020
aI6351
aI6510
aI7659
aI7898
aI8232
aI9469
aI9963
aI10323
aI11112
aI11115
aI11665
aI12404
aI12768
aI12850
aI13672
aI14185
aI14241
aI14249
aI14266
aI14476
aI14481
aI14498
aI15171
aI15359
aI15638
aI15780
aI15809
aI16198
aI16457
aI18026
aI18212
aI18294
aI19511
aI19779
aI20130
aI20998
asg1
(g5
S'\x00\x00\x02u'
p2488
tp2489
Rp2490
(lp2491
I780
aI1334
aI1696
aI1723
aI2502
aI2682
aI2751
aI3656
aI4233
aI4607
aI5490
aI6360
aI6865
aI8178
aI8246
aI9065
aI9091
aI9388
aI9678
aI9865
aI12024
aI12091
aI12433
aI12506
aI13668
aI13874
aI13979
aI14068
aI14165
aI14352
aI15996
aI16375
aI16580
aI16645
aI16837
aI16864
aI17027
aI17092
aI17149
aI17228
aI18098
aI18447
aI18503
aI18589
aI18680
aI18758
aI18769
aI18940
aI19181
aI19833
aI20297
aI20794
aI20815
asg1
(g5
S'\x00\x00\x02v'
p2492
tp2493
Rp2494
(lp2495
I944
aI1487
aI2184
aI2353
aI2839
aI2934
aI3028
aI3060
aI3151
aI3457
aI3732
aI3983
aI4312
aI4645
aI5604
aI6526
aI6981
aI7374
aI7550
aI8292
aI8503
aI8553
aI8563
aI8989
aI9025
aI9333
aI9453
aI10848
aI10874
aI11833
aI12398
aI12806
aI13443
aI13599
aI13733
aI14248
aI14792
aI15403
aI16766
aI16875
aI17445
aI17639
aI18058
aI18112
aI18144
aI18163
aI18195
aI18344
aI18471
aI18648
aI18734
aI19444
aI20653
asg1
(g5
S'\x00\x00\x02w'
p2496
tp2497
Rp2498
(lp2499
I361
aI791
aI956
aI1316
aI1687
aI1697
aI2611
aI3369
aI3551
aI4057
aI5599
aI6197
aI6440
aI6639
aI7897
aI8314
aI8450
aI8960
aI9738
aI9911
aI10120
aI10158
aI10602
aI10702
aI11362
aI11398
aI11492
aI11760
aI11935
aI11982
aI12563
aI12584
aI12774
aI13325
aI13757
aI13837
aI13846
aI14007
aI15834
aI16252
aI16583
aI17040
aI17089
aI18754
aI19694
aI19899
aI19940
aI20475
asg1
(g5
S'\x00\x00\x02x'
p2500
tp2501
Rp2502
(lp2503
I198
aI391
aI803
aI1121
aI1538
aI1889
aI2490
aI3495
aI4241
aI5321
aI6471
aI6513
aI6952
aI7466
aI7979
aI8342
aI9198
aI9526
aI9618
aI9667
aI10475
aI10649
aI10832
aI11518
aI13314
aI13434
aI13902
aI14006
aI14082
aI14345
aI15262
aI15312
aI15534
aI16447
aI16575
aI17405
aI17701
aI17792
aI17879
aI18240
aI18413
aI18970
aI19735
aI19967
aI20203
aI20289
asg1
(g5
S'\x00\x00\x02y'
p2504
tp2505
Rp2506
(lp2507
I315
aI672
aI1448
aI1553
aI1635
aI1706
aI2557
aI3163
aI3250
aI3382
aI3533
aI3888
aI4414
aI4765
aI4958
aI5794
aI7222
aI7382
aI7579
aI7841
aI8241
aI9304
aI9695
aI9758
aI10892
aI11002
aI11056
aI12489
aI13187
aI13418
aI13622
aI14212
aI14488
aI15280
aI16310
aI16847
aI17363
aI17797
aI18267
aI18464
aI18630
aI20344
aI20583
aI20633
asg1
(g5
S'\x00\x00\x02z'
p2508
tp2509
Rp2510
(lp2511
I934
aI1842
aI2082
aI2458
aI3403
aI3626
aI3750
aI4989
aI5160
aI5725
aI6016
aI6723
aI6879
aI6913
aI7149
aI7412
aI8382
aI9307
aI9320
aI9411
aI9554
aI9559
aI9584
aI9700
aI10664
aI10759
aI10769
aI10963
aI11459
aI12060
aI12096
aI13106
aI14409
aI14731
aI15114
aI15224
aI16201
aI16551
aI17433
aI18250
aI19184
aI19687
aI20202
aI20343
aI20355
aI20901
aI20936
aI21052
asg1
(g5
S'\x00\x00\x02{'
p2512
tp2513
Rp2514
(lp2515
I122
aI286
aI431
aI957
aI1395
aI1595
aI2670
aI4278
aI4517
aI5405
aI5779
aI5810
aI7320
aI7588
aI7677
aI7825
aI8252
aI8315
aI8752
aI8786
aI9114
aI9343
aI10405
aI10987
aI11630
aI12048
aI12175
aI12496
aI12665
aI13003
aI13299
aI13397
aI13860
aI14677
aI14892
aI14984
aI15136
aI15271
aI15563
aI16801
aI17464
aI17503
aI17713
aI18608
aI18624
aI19358
aI19363
aI20351
aI20390
aI20953
asg1
(g5
S'\x00\x00\x02}'
p2516
tp2517
Rp2518
(lp2519
I722
aI1114
aI1219
aI1340
aI2919
aI3197
aI3466
aI4934
aI5199
aI5489
aI5791
aI5852
aI6394
aI6428
aI6726
aI7040
aI7049
aI7145
aI7971
aI8893
aI8981
aI9061
aI9367
aI9940
aI10234
aI10564
aI10692
aI10915
aI12814
aI12905
aI13312
aI13458
aI13651
aI13815
aI14383
aI15294
aI15438
aI15722
aI16239
aI16253
aI16975
aI17196
aI17718
aI17901
aI17972
aI18541
aI18790
aI19235
aI19460
aI19649
aI20997
aI21007
aI21056
asg1
(g5
S'\x00\x00\x02~'
p2520
tp2521
Rp2522
(lp2523
I608
aI1622
aI1798
aI2505
aI2727
aI2779
aI3832
aI4270
aI8235
aI8973
aI9625
aI10007
aI10450
aI10689
aI11463
aI11820
aI13919
aI14419
aI14890
aI15969
aI16579
aI16815
aI18177
aI19017
aI21094
asg1
(g5
S'\x00\x00\x02\x7f'
p2524
tp2525
Rp2526
(lp2527
I578
aI735
aI2448
aI2707
aI4132
aI4916
aI5247
aI6305
aI7194
aI7443
aI8309
aI9708
aI11502
aI12058
aI12872
aI13799
aI13945
aI14638
aI18064
aI19930
asg1
(g5
S'\x00\x00\x02\x80'
p2528
tp2529
Rp2530
(lp2531
I186
aI421
aI1124
aI1147
aI1344
aI1847
aI2040
aI3341
aI4154
aI5045
aI6761
aI6808
aI8890
aI9130
aI9517
aI9913
aI10651
aI11436
aI11612
aI11677
aI12659
aI12765
aI13690
aI13935
aI14232
aI14233
aI14958
aI15143
aI15283
aI15366
aI15392
aI16678
aI16691
aI17077
aI17814
aI18801
aI19052
aI19488
aI19762
aI19982
aI19999
aI20132
aI20464
asg1
(g5
S'\x00\x00\x02\x81'
p2532
tp2533
Rp2534
(lp2535
I5441
aI5641
aI10614
aI13716
aI14127
aI15748
aI18751
aI19712
aI20720
as.